EXPORTS 
	?$TSS0@?1??_GetStaticAmbientSchedulerStorage@details@Concurrency@@YAPEAV?$shared_ptr@Uscheduler_interface@Concurrency@@@std@@XZ@4HA 	 DATA
	??_R0?AU?$BoundValueRef@I@Detail@Clara@Catch@@@8 	 DATA
	??_R0?AU?$BoundValueRef@N@Detail@Clara@Catch@@@8 	 DATA
	??_R0?AU?$BoundValueRef@V?$basic_string@DU?$char_traits@D@std@@V?$allocator@D@2@@std@@@Detail@Clara@Catch@@@8 	 DATA
	??_R0?AU?$BoundValueRef@V?$vector@V?$basic_string@DU?$char_traits@D@std@@V?$allocator@D@2@@std@@V?$allocator@V?$basic_string@DU?$char_traits@D@std@@V?$allocator@D@2@@std@@@2@@std@@@Detail@Clara@Catch@@@8 	 DATA
	??_R0?AU?$BoundValueRef@_J@Detail@Clara@Catch@@@8 	 DATA
	??_R0?AU?$_Task_impl@E@details@Concurrency@@@8 	 DATA
	??_R0?AUBoundFlagRef@Detail@Clara@Catch@@@8 	 DATA
	??_R0?AUBoundFlagRefBase@Detail@Clara@Catch@@@8 	 DATA
	??_R0?AUBoundRef@Detail@Clara@Catch@@@8 	 DATA
	??_R0?AUBoundValueRefBase@Detail@Clara@Catch@@@8 	 DATA
	??_R0?AUChronometerConcept@Detail@Benchmark@Catch@@@8 	 DATA
	??_R0?AUHelp@Clara@Catch@@@8 	 DATA
	??_R0?AUISingleton@Catch@@@8 	 DATA
	??_R0?AUStringStreams@Catch@@@8 	 DATA
	??_R0?AUTestFailureException@Catch@@@8 	 DATA
	??_R0?AUTestSkipException@Catch@@@8 	 DATA
	??_R0?AU_Crt_new_delete@std@@@8 	 DATA
	??_R0?AU_TaskProcHandle@details@Concurrency@@@8 	 DATA
	??_R0?AU_Task_impl_base@details@Concurrency@@@8 	 DATA
	??_R0?AUcallable@BenchmarkFunction@Detail@Benchmark@Catch@@@8 	 DATA
	??_R0?AUoptimized_away_error@Detail@Benchmark@Catch@@@8 	 DATA
	??_R0?AUscheduler_interface@Concurrency@@@8 	 DATA
	??_R0?AV<lambda_1>@?1??_MakeVoidToUnitFunc@details@Concurrency@@YA?AV?$function@$$A6AEXZ@std@@AEBV?$function@$$A6AXXZ@5@@Z@@8 	 DATA
	??_R0?AV<lambda_1>@?4??_ScheduleContinuationTask@_Task_impl_base@details@Concurrency@@QEAAXPEAU_ContinuationTaskHandleBase@34@@Z@@8 	 DATA
	??_R0?AV<lambda_1>@?7???R0?4??_ScheduleContinuationTask@_Task_impl_base@details@Concurrency@@QEAAXPEAU_ContinuationTaskHandleBase@34@@Z@QEBA@XZ@@8 	 DATA
	??_R0?AV<lambda_1>@?CC@??_CancelAndRunContinuations@?$_Task_impl@E@details@Concurrency@@UEAA_N_N00AEBV?$shared_ptr@U_ExceptionHolder@details@Concurrency@@@std@@@Z@@8 	 DATA
	??_R0?AV?$BasicResult@VParseState@Detail@Clara@Catch@@@Detail@Clara@Catch@@@8 	 DATA
	??_R0?AV?$BasicResult@W4ParseResultType@Clara@Catch@@@Detail@Clara@Catch@@@8 	 DATA
	??_R0?AV?$BasicResult@X@Detail@Clara@Catch@@@8 	 DATA
	??_R0?AV?$ComposableParserImpl@VArg@Clara@Catch@@@Detail@Clara@Catch@@@8 	 DATA
	??_R0?AV?$ComposableParserImpl@VExeName@Clara@Catch@@@Detail@Clara@Catch@@@8 	 DATA
	??_R0?AV?$ComposableParserImpl@VOpt@Clara@Catch@@@Detail@Clara@Catch@@@8 	 DATA
	??_R0?AV?$MatchExpr@V?$basic_string@DU?$char_traits@D@std@@V?$allocator@D@2@@std@@AEBV?$MatcherBase@V?$basic_string@DU?$char_traits@D@std@@V?$allocator@D@2@@std@@@Matchers@Catch@@@Catch@@@8 	 DATA
	??_R0?AV?$MatcherBase@N@Matchers@Catch@@@8 	 DATA
	??_R0?AV?$MatcherBase@V?$basic_string@DU?$char_traits@D@std@@V?$allocator@D@2@@std@@@Matchers@Catch@@@8 	 DATA
	??_R0?AV?$MatcherBase@Vexception@std@@@Matchers@Catch@@@8 	 DATA
	??_R0?AV?$ParserRefImpl@VArg@Clara@Catch@@@Detail@Clara@Catch@@@8 	 DATA
	??_R0?AV?$ParserRefImpl@VOpt@Clara@Catch@@@Detail@Clara@Catch@@@8 	 DATA
	??_R0?AV?$ReporterFactory@VAutomakeReporter@Catch@@@Catch@@@8 	 DATA
	??_R0?AV?$ReporterFactory@VCompactReporter@Catch@@@Catch@@@8 	 DATA
	??_R0?AV?$ReporterFactory@VConsoleReporter@Catch@@@Catch@@@8 	 DATA
	??_R0?AV?$ReporterFactory@VJunitReporter@Catch@@@Catch@@@8 	 DATA
	??_R0?AV?$ReporterFactory@VSonarQubeReporter@Catch@@@Catch@@@8 	 DATA
	??_R0?AV?$ReporterFactory@VTAPReporter@Catch@@@Catch@@@8 	 DATA
	??_R0?AV?$ReporterFactory@VTeamCityReporter@Catch@@@Catch@@@8 	 DATA
	??_R0?AV?$ReporterFactory@VXmlReporter@Catch@@@Catch@@@8 	 DATA
	??_R0?AV?$ResultValueBase@VParseState@Detail@Clara@Catch@@@Detail@Clara@Catch@@@8 	 DATA
	??_R0?AV?$ResultValueBase@W4ParseResultType@Clara@Catch@@@Detail@Clara@Catch@@@8 	 DATA
	??_R0?AV?$ResultValueBase@X@Detail@Clara@Catch@@@8 	 DATA
	??_R0?AV?$Singleton@UStringStreams@Catch@@U12@U12@@Catch@@@8 	 DATA
	??_R0?AV?$_Associated_state@U?$Estimate@N@Benchmark@Catch@@@std@@@8 	 DATA
	??_R0?AV?$_CancellationTokenCallback@V<lambda_1>@?1??_RegisterCancellation@_Task_impl_base@details@Concurrency@@QEAAXV?$weak_ptr@U_Task_impl_base@details@Concurrency@@@std@@@Z@@details@Concurrency@@@8 	 DATA
	??_R0?AV?$_Deferred_async_state@U?$Estimate@N@Benchmark@Catch@@@std@@@8 	 DATA
	??_R0?AV?$_Func_base@E$$V@std@@@8 	 DATA
	??_R0?AV?$_Func_base@U?$Estimate@N@Benchmark@Catch@@$$V@std@@@8 	 DATA
	??_R0?AV?$_Func_base@X$$V@std@@@8 	 DATA
	??_R0?AV?$_Func_impl_no_alloc@V<lambda_1>@?1??_MakeVoidToUnitFunc@details@Concurrency@@YA?AV?$function@$$A6AEXZ@std@@AEBV?$function@$$A6AXXZ@6@@Z@E$$V@std@@@8 	 DATA
	??_R0?AV?$_Func_impl_no_alloc@V<lambda_1>@?4??_ScheduleContinuationTask@_Task_impl_base@details@Concurrency@@QEAAXPEAU_ContinuationTaskHandleBase@45@@Z@X$$V@std@@@8 	 DATA
	??_R0?AV?$_Func_impl_no_alloc@V<lambda_1>@?7???R1?4??_ScheduleContinuationTask@_Task_impl_base@details@Concurrency@@QEAAXPEAU_ContinuationTaskHandleBase@45@@Z@QEBA@XZ@X$$V@std@@@8 	 DATA
	??_R0?AV?$_Func_impl_no_alloc@V<lambda_1>@?CC@??_CancelAndRunContinuations@?$_Task_impl@E@details@Concurrency@@UEAA_N_N00AEBV?$shared_ptr@U_ExceptionHolder@details@Concurrency@@@std@@@Z@X$$V@std@@@8 	 DATA
	??_R0?AV?$_Iosb@H@std@@@8 	 DATA
	??_R0?AV?$_Node_class@DV?$regex_traits@D@std@@@std@@@8 	 DATA
	??_R0?AV?$_Node_str@D@std@@@8 	 DATA
	??_R0?AV?$_Packaged_state@$$A6A?AU?$Estimate@N@Benchmark@Catch@@XZ@std@@@8 	 DATA
	??_R0?AV?$_Ref_count_obj2@U?$BoundValueRef@I@Detail@Clara@Catch@@@std@@@8 	 DATA
	??_R0?AV?$_Ref_count_obj2@U?$BoundValueRef@N@Detail@Clara@Catch@@@std@@@8 	 DATA
	??_R0?AV?$_Ref_count_obj2@U?$BoundValueRef@V?$basic_string@DU?$char_traits@D@std@@V?$allocator@D@2@@std@@@Detail@Clara@Catch@@@std@@@8 	 DATA
	??_R0?AV?$_Ref_count_obj2@U?$BoundValueRef@V?$vector@V?$basic_string@DU?$char_traits@D@std@@V?$allocator@D@2@@std@@V?$allocator@V?$basic_string@DU?$char_traits@D@std@@V?$allocator@D@2@@std@@@2@@std@@@Detail@Clara@Catch@@@std@@@8 	 DATA
	??_R0?AV?$_Ref_count_obj2@U?$BoundValueRef@_J@Detail@Clara@Catch@@@std@@@8 	 DATA
	??_R0?AV?$_Ref_count_obj2@U?$_Task_impl@E@details@Concurrency@@@std@@@8 	 DATA
	??_R0?AV?$_Ref_count_obj2@UBoundFlagRef@Detail@Clara@Catch@@@std@@@8 	 DATA
	??_R0?AV?$_Ref_count_obj2@U_ExceptionHolder@details@Concurrency@@@std@@@8 	 DATA
	??_R0?AV?$_Ref_count_obj2@V?$basic_string@DU?$char_traits@D@std@@V?$allocator@D@2@@std@@@std@@@8 	 DATA
	??_R0?AV?$_Task_async_state@U?$Estimate@N@Benchmark@Catch@@@std@@@8 	 DATA
	??_R0?AV?$basic_filebuf@DU?$char_traits@D@std@@@std@@@8 	 DATA
	??_R0?AV?$basic_ifstream@DU?$char_traits@D@std@@@std@@@8 	 DATA
	??_R0?AV?$basic_ios@DU?$char_traits@D@std@@@std@@@8 	 DATA
	??_R0?AV?$basic_iostream@DU?$char_traits@D@std@@@std@@@8 	 DATA
	??_R0?AV?$basic_istream@DU?$char_traits@D@std@@@std@@@8 	 DATA
	??_R0?AV?$basic_ofstream@DU?$char_traits@D@std@@@std@@@8 	 DATA
	??_R0?AV?$basic_ostream@DU?$char_traits@D@std@@@std@@@8 	 DATA
	??_R0?AV?$basic_ostringstream@DU?$char_traits@D@std@@V?$allocator@D@2@@std@@@8 	 DATA
	??_R0?AV?$basic_streambuf@DU?$char_traits@D@std@@@std@@@8 	 DATA
	??_R0?AV?$basic_string@DU?$char_traits@D@std@@V?$allocator@D@2@@std@@@8 	 DATA
	??_R0?AV?$basic_stringbuf@DU?$char_traits@D@std@@V?$allocator@D@2@@std@@@8 	 DATA
	??_R0?AV?$basic_stringstream@DU?$char_traits@D@std@@V?$allocator@D@2@@std@@@8 	 DATA
	??_R0?AV?$collate@D@std@@@8 	 DATA
	??_R0?AVAllTrueMatcher@Matchers@Catch@@@8 	 DATA
	??_R0?AVAnyTrueMatcher@Matchers@Catch@@@8 	 DATA
	??_R0?AVArg@Clara@Catch@@@8 	 DATA
	??_R0?AVAutomakeReporter@Catch@@@8 	 DATA
	??_R0?AVColourImpl@Catch@@@8 	 DATA
	??_R0?AVCompactReporter@Catch@@@8 	 DATA
	??_R0?AVConfig@Catch@@@8 	 DATA
	??_R0?AVConsoleReporter@Catch@@@8 	 DATA
	??_R0?AVCumulativeReporterBase@Catch@@@8 	 DATA
	??_R0?AVEndsWithMatcher@Matchers@Catch@@@8 	 DATA
	??_R0?AVEnumValuesRegistry@Detail@Catch@@@8 	 DATA
	??_R0?AVEventListenerFactory@Catch@@@8 	 DATA
	??_R0?AVExceptionMessageMatcher@Matchers@Catch@@@8 	 DATA
	??_R0?AVExceptionTranslatorRegistry@Catch@@@8 	 DATA
	??_R0?AVExeName@Clara@Catch@@@8 	 DATA
	??_R0?AVGeneratorException@Catch@@@8 	 DATA
	??_R0?AVGeneratorUntypedBase@Generators@Catch@@@8 	 DATA
	??_R0?AVHasSizeMatcher@Matchers@Catch@@@8 	 DATA
	??_R0?AVIConfig@Catch@@@8 	 DATA
	??_R0?AVIEventListener@Catch@@@8 	 DATA
	??_R0?AVIExceptionTranslator@Catch@@@8 	 DATA
	??_R0?AVIExceptionTranslatorRegistry@Catch@@@8 	 DATA
	??_R0?AVIGeneratorTracker@Catch@@@8 	 DATA
	??_R0?AVIMutableEnumValuesRegistry@Catch@@@8 	 DATA
	??_R0?AVIMutableRegistryHub@Catch@@@8 	 DATA
	??_R0?AVIRegistryHub@Catch@@@8 	 DATA
	??_R0?AVIReporterFactory@Catch@@@8 	 DATA
	??_R0?AVIResultCapture@Catch@@@8 	 DATA
	??_R0?AVIStream@Catch@@@8 	 DATA
	??_R0?AVITagAliasRegistry@Catch@@@8 	 DATA
	??_R0?AVITestCaseRegistry@Catch@@@8 	 DATA
	??_R0?AVITestInvoker@Catch@@@8 	 DATA
	??_R0?AVITracker@TestCaseTracking@Catch@@@8 	 DATA
	??_R0?AVITransientExpression@Catch@@@8 	 DATA
	??_R0?AVIsEmptyMatcher@Matchers@Catch@@@8 	 DATA
	??_R0?AVIsNaNMatcher@Matchers@Catch@@@8 	 DATA
	??_R0?AVJunitReporter@Catch@@@8 	 DATA
	??_R0?AVMatcherGenericBase@Matchers@Catch@@@8 	 DATA
	??_R0?AVMatcherUntypedBase@Matchers@Catch@@@8 	 DATA
	??_R0?AVMultiReporter@Catch@@@8 	 DATA
	??_R0?AVNamePattern@TestSpec@Catch@@@8 	 DATA
	??_R0?AVNonCopyable@Detail@Catch@@@8 	 DATA
	??_R0?AVNoneTrueMatcher@Matchers@Catch@@@8 	 DATA
	??_R0?AVOpt@Clara@Catch@@@8 	 DATA
	??_R0?AVParser@Clara@Catch@@@8 	 DATA
	??_R0?AVParserBase@Detail@Clara@Catch@@@8 	 DATA
	??_R0?AVPattern@TestSpec@Catch@@@8 	 DATA
	??_R0?AVRegexMatcher@Matchers@Catch@@@8 	 DATA
	??_R0?AVReporterBase@Catch@@@8 	 DATA
	??_R0?AVResultBase@Detail@Clara@Catch@@@8 	 DATA
	??_R0?AVRunContext@Catch@@@8 	 DATA
	??_R0?AVSectionTracker@TestCaseTracking@Catch@@@8 	 DATA
	??_R0?AVSonarQubeReporter@Catch@@@8 	 DATA
	??_R0?AVStartsWithMatcher@Matchers@Catch@@@8 	 DATA
	??_R0?AVStreamingReporterBase@Catch@@@8 	 DATA
	??_R0?AVStringContainsMatcher@Matchers@Catch@@@8 	 DATA
	??_R0?AVStringEqualsMatcher@Matchers@Catch@@@8 	 DATA
	??_R0?AVStringMatcherBase@Matchers@Catch@@@8 	 DATA
	??_R0?AVTAPReporter@Catch@@@8 	 DATA
	??_R0?AVTagAliasRegistry@Catch@@@8 	 DATA
	??_R0?AVTagPattern@TestSpec@Catch@@@8 	 DATA
	??_R0?AVTeamCityReporter@Catch@@@8 	 DATA
	??_R0?AVTestRegistry@Catch@@@8 	 DATA
	??_R0?AVTrackerBase@TestCaseTracking@Catch@@@8 	 DATA
	??_R0?AVWithinAbsMatcher@Matchers@Catch@@@8 	 DATA
	??_R0?AVWithinRelMatcher@Matchers@Catch@@@8 	 DATA
	??_R0?AVWithinUlpsMatcher@Matchers@Catch@@@8 	 DATA
	??_R0?AVXmlReporter@Catch@@@8 	 DATA
	??_R0?AV_CancellationTokenRegistration@details@Concurrency@@@8 	 DATA
	??_R0?AV_DefaultPPLTaskScheduler@details@Concurrency@@@8 	 DATA
	??_R0?AV_Facet_base@std@@@8 	 DATA
	??_R0?AV_Future_error_category2@std@@@8 	 DATA
	??_R0?AV_Generic_error_category@std@@@8 	 DATA
	??_R0?AV_Interruption_exception@details@Concurrency@@@8 	 DATA
	??_R0?AV_Node_assert@std@@@8 	 DATA
	??_R0?AV_Node_back@std@@@8 	 DATA
	??_R0?AV_Node_base@std@@@8 	 DATA
	??_R0?AV_Node_capture@std@@@8 	 DATA
	??_R0?AV_Node_end_group@std@@@8 	 DATA
	??_R0?AV_Node_end_rep@std@@@8 	 DATA
	??_R0?AV_Node_endif@std@@@8 	 DATA
	??_R0?AV_Node_if@std@@@8 	 DATA
	??_R0?AV_Node_rep@std@@@8 	 DATA
	??_R0?AV_RefCounter@details@Concurrency@@@8 	 DATA
	??_R0?AV_Ref_count_base@std@@@8 	 DATA
	??_R0?AV_Root_node@std@@@8 	 DATA
	??_R0?AV_System_error@std@@@8 	 DATA
	??_R0?AVbad_alloc@std@@@8 	 DATA
	??_R0?AVbad_array_new_length@std@@@8 	 DATA
	??_R0?AVbad_cast@std@@@8 	 DATA
	??_R0?AVdomain_error@std@@@8 	 DATA
	??_R0?AVerror_category@std@@@8 	 DATA
	??_R0?AVexception@std@@@8 	 DATA
	??_R0?AVfacet@locale@std@@@8 	 DATA
	??_R0?AVfuture_error@std@@@8 	 DATA
	??_R0?AVinvalid_argument@std@@@8 	 DATA
	??_R0?AVinvalid_operation@Concurrency@@@8 	 DATA
	??_R0?AVios_base@std@@@8 	 DATA
	??_R0?AVlogic_error@std@@@8 	 DATA
	??_R0?AVout_of_range@std@@@8 	 DATA
	??_R0?AVruntime_error@std@@@8 	 DATA
	??_R0?AVsystem_error@std@@@8 	 DATA
	??_R0?AVtask_canceled@Concurrency@@@8 	 DATA
	??_R0PEAD@8 	 DATA
	?_Flag@?1??_GetStaticAmbientSchedulerRef@details@Concurrency@@YAAEAV?$shared_ptr@Uscheduler_interface@Concurrency@@@std@@XZ@4Uonce_flag@5@A 	 DATA
	?_OptionsStorage@?1??__local_stdio_printf_options@@9@4_KA 	 DATA
	?_Psave@?$_Facetptr@V?$codecvt@DDU_Mbstatet@@@std@@@std@@2PEBVfacet@locale@2@EB 	 DATA
	?_Psave@?$_Facetptr@V?$collate@D@std@@@std@@2PEBVfacet@locale@2@EB 	 DATA
	?_Psave@?$_Facetptr@V?$ctype@D@std@@@std@@2PEBVfacet@locale@2@EB 	 DATA
	?_S_scheduler@?1??_GetStaticAmbientSchedulerStorage@details@Concurrency@@YAPEAV?$shared_ptr@Uscheduler_interface@Concurrency@@@std@@XZ@4V45@A 	 DATA
	?_S_scheduler_address@?1??_GetStaticAmbientSchedulerRef@details@Concurrency@@YAAEAV?$shared_ptr@Uscheduler_interface@Concurrency@@@std@@XZ@4PEAV45@EA 	 DATA
	?_Static@?1???$_Immortalize_memcpy_image@V_Future_error_category2@std@@@std@@YAAEBV_Future_error_category2@1@XZ@4U?$_Constexpr_immortalize_impl@V_Future_error_category2@std@@@1@A 	 DATA
	?_Static@?1???$_Immortalize_memcpy_image@V_Generic_error_category@std@@@std@@YAAEBV_Generic_error_category@1@XZ@4U?$_Constexpr_immortalize_impl@V_Generic_error_category@std@@@1@A 	 DATA
	?_Stinit@?1??_Init@?$basic_filebuf@DU?$char_traits@D@std@@@std@@IEAAXPEAU_iobuf@@W4_Initfl@23@@Z@4U_Mbstatet@@A 	 DATA
	?currentContext@Context@Catch@@0PEAV12@EA 	 DATA
	?globalCount@MessageInfo@Catch@@0IA 	 DATA
	?precision@?$StringMaker@MX@Catch@@2HA 	 DATA
	?precision@?$StringMaker@NX@Catch@@2HA 	 DATA
	?s_instance@?1??getInternal@?$Singleton@UStringStreams@Catch@@U12@U12@@Catch@@CAPEAV23@XZ@4PEAV23@EA 	 DATA
	_Avx2WmemEnabledWeakValue 	 DATA
	??$?0$$QEAV?$basic_string@DU?$char_traits@D@std@@V?$allocator@D@2@@std@@$$Z$$V@?$pair@$$CBV?$basic_string@DU?$char_traits@D@std@@V?$allocator@D@2@@std@@V?$unique_ptr@VIReporterFactory@Catch@@@Detail@Catch@@@std@@QEAA@Upiecewise_construct_t@1@V?$tuple@$$QEAV?$basic_string@DU?$char_traits@D@std@@V?$allocator@D@2@@std@@@1@V?$tuple@$$V@1@@Z
	??$?0$$QEAVStringRef@Catch@@$$Z$$V@?$pair@$$CBVStringRef@Catch@@V?$vector@PEBU?$Node@UTestCaseStats@Catch@@USectionNode@CumulativeReporterBase@2@@CumulativeReporterBase@Catch@@V?$allocator@PEBU?$Node@UTestCaseStats@Catch@@USectionNode@CumulativeReporterBase@2@@CumulativeReporterBase@Catch@@@std@@@std@@@std@@QEAA@Upiecewise_construct_t@1@V?$tuple@$$QEAVStringRef@Catch@@@1@V?$tuple@$$V@1@@Z
	??$?0$$V@?$_Compressed_pair@V?$allocator@D@std@@V?$_Deque_val@U?$_Deque_simple_types@D@std@@@2@$00@std@@QEAA@U_Zero_then_variadic_args_t@1@@Z
	??$?0$$V@?$_Compressed_pair@V?$allocator@D@std@@V?$_String_val@U?$_Simple_types@D@std@@@2@$00@std@@QEAA@U_Zero_then_variadic_args_t@1@@Z
	??$?0$$V@?$_Compressed_pair@V?$allocator@N@std@@V?$_Vector_val@U?$_Simple_types@N@std@@@2@$00@std@@QEAA@U_Zero_then_variadic_args_t@1@@Z
	??$?0$$V@?$_Compressed_pair@V?$allocator@PEAUISingleton@Catch@@@std@@V?$_Vector_val@U?$_Simple_types@PEAUISingleton@Catch@@@std@@@2@$00@std@@QEAA@U_Zero_then_variadic_args_t@1@@Z
	??$?0$$V@?$_Compressed_pair@V?$allocator@PEAUSectionNode@CumulativeReporterBase@Catch@@@std@@V?$_Vector_val@U?$_Simple_types@PEAUSectionNode@CumulativeReporterBase@Catch@@@std@@@2@$00@std@@QEAA@U_Zero_then_variadic_args_t@1@@Z
	??$?0$$V@?$_Compressed_pair@V?$allocator@PEAUTestCaseInfo@Catch@@@std@@V?$_Vector_val@U?$_Simple_types@PEAUTestCaseInfo@Catch@@@std@@@2@$00@std@@QEAA@U_Zero_then_variadic_args_t@1@@Z
	??$?0$$V@?$_Compressed_pair@V?$allocator@PEAVITracker@TestCaseTracking@Catch@@@std@@V?$_Vector_val@U?$_Simple_types@PEAVITracker@TestCaseTracking@Catch@@@std@@@2@$00@std@@QEAA@U_Zero_then_variadic_args_t@1@@Z
	??$?0$$V@?$_Compressed_pair@V?$allocator@PEAX@std@@V?$_Vector_val@U?$_Simple_types@PEAX@std@@@2@$00@std@@QEAA@U_Zero_then_variadic_args_t@1@@Z
	??$?0$$V@?$_Compressed_pair@V?$allocator@PEBU?$Node@UTestCaseStats@Catch@@USectionNode@CumulativeReporterBase@2@@CumulativeReporterBase@Catch@@@std@@V?$_Vector_val@U?$_Simple_types@PEBU?$Node@UTestCaseStats@Catch@@USectionNode@CumulativeReporterBase@2@@CumulativeReporterBase@Catch@@@std@@@2@$00@std@@QEAA@U_Zero_then_variadic_args_t@1@@Z
	??$?0$$V@?$_Compressed_pair@V?$allocator@PEBVTestCaseHandle@Catch@@@std@@V?$_Vector_val@U?$_Simple_types@PEBVTestCaseHandle@Catch@@@std@@@2@$00@std@@QEAA@U_Zero_then_variadic_args_t@1@@Z
	??$?0$$V@?$_Compressed_pair@V?$allocator@U?$_Tree_node@PEBUTestCaseInfo@Catch@@PEAX@std@@@std@@V?$_Tree_val@U?$_Tree_simple_types@PEBUTestCaseInfo@Catch@@@std@@@2@$00@std@@QEAA@U_Zero_then_variadic_args_t@1@@Z
	??$?0$$V@?$_Compressed_pair@V?$allocator@U?$_Tree_node@PEBVTestCaseHandle@Catch@@PEAX@std@@@std@@V?$_Tree_val@U?$_Tree_simple_types@PEBVTestCaseHandle@Catch@@@std@@@2@$00@std@@QEAA@U_Zero_then_variadic_args_t@1@@Z
	??$?0$$V@?$_Compressed_pair@V?$allocator@U?$_Tree_node@U?$pair@$$CBV?$basic_string@DU?$char_traits@D@std@@V?$allocator@D@2@@std@@UTagAlias@Catch@@@std@@PEAX@std@@@std@@V?$_Tree_val@U?$_Tree_simple_types@U?$pair@$$CBV?$basic_string@DU?$char_traits@D@std@@V?$allocator@D@2@@std@@UTagAlias@Catch@@@std@@@std@@@2@$00@std@@QEAA@U_Zero_then_variadic_args_t@1@@Z
	??$?0$$V@?$_Compressed_pair@V?$allocator@U?$_Tree_node@U?$pair@$$CBV?$basic_string@DU?$char_traits@D@std@@V?$allocator@D@2@@std@@V12@@std@@PEAX@std@@@std@@V?$_Tree_val@U?$_Tree_simple_types@U?$pair@$$CBV?$basic_string@DU?$char_traits@D@std@@V?$allocator@D@2@@std@@V12@@std@@@std@@@2@$00@std@@QEAA@U_Zero_then_variadic_args_t@1@@Z
	??$?0$$V@?$_Compressed_pair@V?$allocator@U?$_Tree_node@U?$pair@$$CBV?$basic_string@DU?$char_traits@D@std@@V?$allocator@D@2@@std@@V?$unique_ptr@VIReporterFactory@Catch@@@Detail@Catch@@@std@@PEAX@std@@@std@@V?$_Tree_val@U?$_Tree_simple_types@U?$pair@$$CBV?$basic_string@DU?$char_traits@D@std@@V?$allocator@D@2@@std@@V?$unique_ptr@VIReporterFactory@Catch@@@Detail@Catch@@@std@@@std@@@2@$00@std@@QEAA@U_Zero_then_variadic_args_t@1@@Z
	??$?0$$V@?$_Compressed_pair@V?$allocator@U?$_Tree_node@U?$pair@$$CBVStringRef@Catch@@UTagInfo@2@@std@@PEAX@std@@@std@@V?$_Tree_val@U?$_Tree_simple_types@U?$pair@$$CBVStringRef@Catch@@UTagInfo@2@@std@@@std@@@2@$00@std@@QEAA@U_Zero_then_variadic_args_t@1@@Z
	??$?0$$V@?$_Compressed_pair@V?$allocator@U?$_Tree_node@U?$pair@$$CBVStringRef@Catch@@V?$vector@PEBU?$Node@UTestCaseStats@Catch@@USectionNode@CumulativeReporterBase@2@@CumulativeReporterBase@Catch@@V?$allocator@PEBU?$Node@UTestCaseStats@Catch@@USectionNode@CumulativeReporterBase@2@@CumulativeReporterBase@Catch@@@std@@@std@@@std@@PEAX@std@@@std@@V?$_Tree_val@U?$_Tree_simple_types@U?$pair@$$CBVStringRef@Catch@@V?$vector@PEBU?$Node@UTestCaseStats@Catch@@USectionNode@CumulativeReporterBase@2@@CumulativeReporterBase@Catch@@V?$allocator@PEBU?$Node@UTestCaseStats@Catch@@USectionNode@CumulativeReporterBase@2@@CumulativeReporterBase@Catch@@@std@@@std@@@std@@@std@@@2@$00@std@@QEAA@U_Zero_then_variadic_args_t@1@@Z
	??$?0$$V@?$_Compressed_pair@V?$allocator@U?$_Tree_node@VStringRef@Catch@@PEAX@std@@@std@@V?$_Tree_val@U?$_Tree_simple_types@VStringRef@Catch@@@std@@@2@$00@std@@QEAA@U_Zero_then_variadic_args_t@1@@Z
	??$?0$$V@?$_Compressed_pair@V?$allocator@U?$pair@HVStringRef@Catch@@@std@@@std@@V?$_Vector_val@U?$_Simple_types@U?$pair@HVStringRef@Catch@@@std@@@std@@@2@$00@std@@QEAA@U_Zero_then_variadic_args_t@1@@Z
	??$?0$$V@?$_Compressed_pair@V?$allocator@U?$pair@_KVTestCaseHandle@Catch@@@std@@@std@@V?$_Vector_val@U?$_Simple_types@U?$pair@_KVTestCaseHandle@Catch@@@std@@@std@@@2@$00@std@@QEAA@U_Zero_then_variadic_args_t@1@@Z
	??$?0$$V@?$_Compressed_pair@V?$allocator@UFilter@TestSpec@Catch@@@std@@V?$_Vector_val@U?$_Simple_types@UFilter@TestSpec@Catch@@@std@@@2@$00@std@@QEAA@U_Zero_then_variadic_args_t@1@@Z
	??$?0$$V@?$_Compressed_pair@V?$allocator@UFilterMatch@TestSpec@Catch@@@std@@V?$_Vector_val@U?$_Simple_types@UFilterMatch@TestSpec@Catch@@@std@@@2@$00@std@@QEAA@U_Zero_then_variadic_args_t@1@@Z
	??$?0$$V@?$_Compressed_pair@V?$allocator@UHelpColumns@Detail@Clara@Catch@@@std@@V?$_Vector_val@U?$_Simple_types@UHelpColumns@Detail@Clara@Catch@@@std@@@2@$00@std@@QEAA@U_Zero_then_variadic_args_t@1@@Z
	??$?0$$V@?$_Compressed_pair@V?$allocator@UListenerDescription@Catch@@@std@@V?$_Vector_val@U?$_Simple_types@UListenerDescription@Catch@@@std@@@2@$00@std@@QEAA@U_Zero_then_variadic_args_t@1@@Z
	??$?0$$V@?$_Compressed_pair@V?$allocator@UMessageInfo@Catch@@@std@@V?$_Vector_val@U?$_Simple_types@UMessageInfo@Catch@@@std@@@2@$00@std@@QEAA@U_Zero_then_variadic_args_t@1@@Z
	??$?0$$V@?$_Compressed_pair@V?$allocator@UProcessedReporterSpec@Catch@@@std@@V?$_Vector_val@U?$_Simple_types@UProcessedReporterSpec@Catch@@@std@@@2@$00@std@@QEAA@U_Zero_then_variadic_args_t@1@@Z
	??$?0$$V@?$_Compressed_pair@V?$allocator@UReporterDescription@Catch@@@std@@V?$_Vector_val@U?$_Simple_types@UReporterDescription@Catch@@@std@@@2@$00@std@@QEAA@U_Zero_then_variadic_args_t@1@@Z
	??$?0$$V@?$_Compressed_pair@V?$allocator@USectionEndInfo@Catch@@@std@@V?$_Vector_val@U?$_Simple_types@USectionEndInfo@Catch@@@std@@@2@$00@std@@QEAA@U_Zero_then_variadic_args_t@1@@Z
	??$?0$$V@?$_Compressed_pair@V?$allocator@USectionInfo@Catch@@@std@@V?$_Vector_val@U?$_Simple_types@USectionInfo@Catch@@@std@@@2@$00@std@@QEAA@U_Zero_then_variadic_args_t@1@@Z
	??$?0$$V@?$_Compressed_pair@V?$allocator@UTag@Catch@@@std@@V?$_Vector_val@U?$_Simple_types@UTag@Catch@@@std@@@2@$00@std@@QEAA@U_Zero_then_variadic_args_t@1@@Z
	??$?0$$V@?$_Compressed_pair@V?$allocator@UTagInfo@Catch@@@std@@V?$_Vector_val@U?$_Simple_types@UTagInfo@Catch@@@std@@@2@$00@std@@QEAA@U_Zero_then_variadic_args_t@1@@Z
	??$?0$$V@?$_Compressed_pair@V?$allocator@UToken@Detail@Clara@Catch@@@std@@V?$_Vector_val@U?$_Simple_types@UToken@Detail@Clara@Catch@@@std@@@2@$00@std@@QEAA@U_Zero_then_variadic_args_t@1@@Z
	??$?0$$V@?$_Compressed_pair@V?$allocator@U_Grp_t@?$_Tgt_state_t@PEBD@std@@@std@@V?$_Vector_val@U?$_Simple_types@U_Grp_t@?$_Tgt_state_t@PEBD@std@@@std@@@2@$00@std@@QEAA@U_Zero_then_variadic_args_t@1@@Z
	??$?0$$V@?$_Compressed_pair@V?$allocator@U_Loop_vals_t@std@@@std@@V?$_Vector_val@U?$_Simple_types@U_Loop_vals_t@std@@@std@@@2@$00@std@@QEAA@U_Zero_then_variadic_args_t@1@@Z
	??$?0$$V@?$_Compressed_pair@V?$allocator@V?$basic_string@DU?$char_traits@D@std@@V?$allocator@D@2@@std@@@std@@V?$_Vector_val@U?$_Simple_types@V?$basic_string@DU?$char_traits@D@std@@V?$allocator@D@2@@std@@@std@@@2@$00@std@@QEAA@U_Zero_then_variadic_args_t@1@@Z
	??$?0$$V@?$_Compressed_pair@V?$allocator@V?$unique_ptr@$$CBVIExceptionTranslator@Catch@@@Detail@Catch@@@std@@V?$_Vector_val@U?$_Simple_types@V?$unique_ptr@$$CBVIExceptionTranslator@Catch@@@Detail@Catch@@@std@@@2@$00@std@@QEAA@U_Zero_then_variadic_args_t@1@@Z
	??$?0$$V@?$_Compressed_pair@V?$allocator@V?$unique_ptr@U?$Node@UTestCaseStats@Catch@@USectionNode@CumulativeReporterBase@2@@CumulativeReporterBase@Catch@@@Detail@Catch@@@std@@V?$_Vector_val@U?$_Simple_types@V?$unique_ptr@U?$Node@UTestCaseStats@Catch@@USectionNode@CumulativeReporterBase@2@@CumulativeReporterBase@Catch@@@Detail@Catch@@@std@@@2@$00@std@@QEAA@U_Zero_then_variadic_args_t@1@@Z
	??$?0$$V@?$_Compressed_pair@V?$allocator@V?$unique_ptr@UEnumInfo@Detail@Catch@@@Detail@Catch@@@std@@V?$_Vector_val@U?$_Simple_types@V?$unique_ptr@UEnumInfo@Detail@Catch@@@Detail@Catch@@@std@@@2@$00@std@@QEAA@U_Zero_then_variadic_args_t@1@@Z
	??$?0$$V@?$_Compressed_pair@V?$allocator@V?$unique_ptr@USectionNode@CumulativeReporterBase@Catch@@@Detail@Catch@@@std@@V?$_Vector_val@U?$_Simple_types@V?$unique_ptr@USectionNode@CumulativeReporterBase@Catch@@@Detail@Catch@@@std@@@2@$00@std@@QEAA@U_Zero_then_variadic_args_t@1@@Z
	??$?0$$V@?$_Compressed_pair@V?$allocator@V?$unique_ptr@UTestCaseInfo@Catch@@@Detail@Catch@@@std@@V?$_Vector_val@U?$_Simple_types@V?$unique_ptr@UTestCaseInfo@Catch@@@Detail@Catch@@@std@@@2@$00@std@@QEAA@U_Zero_then_variadic_args_t@1@@Z
	??$?0$$V@?$_Compressed_pair@V?$allocator@V?$unique_ptr@V?$basic_ostringstream@DU?$char_traits@D@std@@V?$allocator@D@2@@std@@@Detail@Catch@@@std@@V?$_Vector_val@U?$_Simple_types@V?$unique_ptr@V?$basic_ostringstream@DU?$char_traits@D@std@@V?$allocator@D@2@@std@@@Detail@Catch@@@std@@@2@$00@std@@QEAA@U_Zero_then_variadic_args_t@1@@Z
	??$?0$$V@?$_Compressed_pair@V?$allocator@V?$unique_ptr@VEventListenerFactory@Catch@@@Detail@Catch@@@std@@V?$_Vector_val@U?$_Simple_types@V?$unique_ptr@VEventListenerFactory@Catch@@@Detail@Catch@@@std@@@2@$00@std@@QEAA@U_Zero_then_variadic_args_t@1@@Z
	??$?0$$V@?$_Compressed_pair@V?$allocator@V?$unique_ptr@VIEventListener@Catch@@@Detail@Catch@@@std@@V?$_Vector_val@U?$_Simple_types@V?$unique_ptr@VIEventListener@Catch@@@Detail@Catch@@@std@@@2@$00@std@@QEAA@U_Zero_then_variadic_args_t@1@@Z
	??$?0$$V@?$_Compressed_pair@V?$allocator@V?$unique_ptr@VITestInvoker@Catch@@@Detail@Catch@@@std@@V?$_Vector_val@U?$_Simple_types@V?$unique_ptr@VITestInvoker@Catch@@@Detail@Catch@@@std@@@2@$00@std@@QEAA@U_Zero_then_variadic_args_t@1@@Z
	??$?0$$V@?$_Compressed_pair@V?$allocator@V?$unique_ptr@VITracker@TestCaseTracking@Catch@@@Detail@Catch@@@std@@V?$_Vector_val@U?$_Simple_types@V?$unique_ptr@VITracker@TestCaseTracking@Catch@@@Detail@Catch@@@std@@@2@$00@std@@QEAA@U_Zero_then_variadic_args_t@1@@Z
	??$?0$$V@?$_Compressed_pair@V?$allocator@V?$unique_ptr@VPattern@TestSpec@Catch@@@Detail@Catch@@@std@@V?$_Vector_val@U?$_Simple_types@V?$unique_ptr@VPattern@TestSpec@Catch@@@Detail@Catch@@@std@@@2@$00@std@@QEAA@U_Zero_then_variadic_args_t@1@@Z
	??$?0$$V@?$_Compressed_pair@V?$allocator@VArg@Clara@Catch@@@std@@V?$_Vector_val@U?$_Simple_types@VArg@Clara@Catch@@@std@@@2@$00@std@@QEAA@U_Zero_then_variadic_args_t@1@@Z
	??$?0$$V@?$_Compressed_pair@V?$allocator@VAssertionOrBenchmarkResult@Detail@Catch@@@std@@V?$_Vector_val@U?$_Simple_types@VAssertionOrBenchmarkResult@Detail@Catch@@@std@@@2@$00@std@@QEAA@U_Zero_then_variadic_args_t@1@@Z
	??$?0$$V@?$_Compressed_pair@V?$allocator@VColumn@TextFlow@Catch@@@std@@V?$_Vector_val@U?$_Simple_types@VColumn@TextFlow@Catch@@@std@@@2@$00@std@@QEAA@U_Zero_then_variadic_args_t@1@@Z
	??$?0$$V@?$_Compressed_pair@V?$allocator@VOpt@Clara@Catch@@@std@@V?$_Vector_val@U?$_Simple_types@VOpt@Clara@Catch@@@std@@@2@$00@std@@QEAA@U_Zero_then_variadic_args_t@1@@Z
	??$?0$$V@?$_Compressed_pair@V?$allocator@VReporterSpec@Catch@@@std@@V?$_Vector_val@U?$_Simple_types@VReporterSpec@Catch@@@std@@@2@$00@std@@QEAA@U_Zero_then_variadic_args_t@1@@Z
	??$?0$$V@?$_Compressed_pair@V?$allocator@VScopedMessage@Catch@@@std@@V?$_Vector_val@U?$_Simple_types@VScopedMessage@Catch@@@std@@@2@$00@std@@QEAA@U_Zero_then_variadic_args_t@1@@Z
	??$?0$$V@?$_Compressed_pair@V?$allocator@VStringRef@Catch@@@std@@V?$_Vector_val@U?$_Simple_types@VStringRef@Catch@@@std@@@2@$00@std@@QEAA@U_Zero_then_variadic_args_t@1@@Z
	??$?0$$V@?$_Compressed_pair@V?$allocator@VTestCaseHandle@Catch@@@std@@V?$_Vector_val@U?$_Simple_types@VTestCaseHandle@Catch@@@std@@@2@$00@std@@QEAA@U_Zero_then_variadic_args_t@1@@Z
	??$?0$$V@?$_Compressed_pair@V?$allocator@Vconst_iterator@Column@TextFlow@Catch@@@std@@V?$_Vector_val@U?$_Simple_types@Vconst_iterator@Column@TextFlow@Catch@@@std@@@2@$00@std@@QEAA@U_Zero_then_variadic_args_t@1@@Z
	??$?0$$V@?$_Compressed_pair@V?$allocator@Vexception_ptr@std@@@std@@V?$_Vector_val@U?$_Simple_types@Vexception_ptr@std@@@std@@@2@$00@std@@QEAA@U_Zero_then_variadic_args_t@1@@Z
	??$?0$$V@?$_Compressed_pair@V?$allocator@_K@std@@V?$_Vector_val@U?$_Simple_types@_K@std@@@2@$00@std@@QEAA@U_Zero_then_variadic_args_t@1@@Z
	??$?0$$V@?$_Compressed_pair@V?$allocator@_W@std@@V?$_String_val@U?$_Simple_types@_W@std@@@2@$00@std@@QEAA@U_Zero_then_variadic_args_t@1@@Z
	??$?0AEAHAEBVStringRef@Catch@@$0A@@?$pair@HVStringRef@Catch@@@std@@QEAA@AEAHAEBVStringRef@Catch@@@Z
	??$?0AEAI@?$_Ref_count_obj2@U?$BoundValueRef@I@Detail@Clara@Catch@@@std@@QEAA@AEAI@Z
	??$?0AEAN@?$_Ref_count_obj2@U?$BoundValueRef@N@Detail@Clara@Catch@@@std@@QEAA@AEAN@Z
	??$?0AEAPEANAEAPEAN$0A@@?$pair@PEANPEAN@std@@QEAA@AEAPEAN0@Z
	??$?0AEAPEAU?$_Tree_node@PEBUTestCaseInfo@Catch@@PEAX@std@@_N$0A@@?$pair@PEAU?$_Tree_node@PEBUTestCaseInfo@Catch@@PEAX@std@@_N@std@@QEAA@AEAPEAU?$_Tree_node@PEBUTestCaseInfo@Catch@@PEAX@1@$$QEA_N@Z
	??$?0AEAPEAU?$_Tree_node@PEBVTestCaseHandle@Catch@@PEAX@std@@_N$0A@@?$pair@PEAU?$_Tree_node@PEBVTestCaseHandle@Catch@@PEAX@std@@_N@std@@QEAA@AEAPEAU?$_Tree_node@PEBVTestCaseHandle@Catch@@PEAX@1@$$QEA_N@Z
	??$?0AEAPEAU?$_Tree_node@U?$pair@$$CBV?$basic_string@DU?$char_traits@D@std@@V?$allocator@D@2@@std@@UTagAlias@Catch@@@std@@PEAX@std@@_N$0A@@?$pair@PEAU?$_Tree_node@U?$pair@$$CBV?$basic_string@DU?$char_traits@D@std@@V?$allocator@D@2@@std@@UTagAlias@Catch@@@std@@PEAX@std@@_N@std@@QEAA@AEAPEAU?$_Tree_node@U?$pair@$$CBV?$basic_string@DU?$char_traits@D@std@@V?$allocator@D@2@@std@@UTagAlias@Catch@@@std@@PEAX@1@$$QEA_N@Z
	??$?0AEAPEAU?$_Tree_node@U?$pair@$$CBV?$basic_string@DU?$char_traits@D@std@@V?$allocator@D@2@@std@@V12@@std@@PEAX@std@@_N$0A@@?$pair@PEAU?$_Tree_node@U?$pair@$$CBV?$basic_string@DU?$char_traits@D@std@@V?$allocator@D@2@@std@@V12@@std@@PEAX@std@@_N@std@@QEAA@AEAPEAU?$_Tree_node@U?$pair@$$CBV?$basic_string@DU?$char_traits@D@std@@V?$allocator@D@2@@std@@V12@@std@@PEAX@1@$$QEA_N@Z
	??$?0AEAPEAU?$_Tree_node@U?$pair@$$CBV?$basic_string@DU?$char_traits@D@std@@V?$allocator@D@2@@std@@V?$unique_ptr@VIReporterFactory@Catch@@@Detail@Catch@@@std@@PEAX@std@@_N$0A@@?$pair@PEAU?$_Tree_node@U?$pair@$$CBV?$basic_string@DU?$char_traits@D@std@@V?$allocator@D@2@@std@@V?$unique_ptr@VIReporterFactory@Catch@@@Detail@Catch@@@std@@PEAX@std@@_N@std@@QEAA@AEAPEAU?$_Tree_node@U?$pair@$$CBV?$basic_string@DU?$char_traits@D@std@@V?$allocator@D@2@@std@@V?$unique_ptr@VIReporterFactory@Catch@@@Detail@Catch@@@std@@PEAX@1@$$QEA_N@Z
	??$?0AEAPEAU?$_Tree_node@U?$pair@$$CBVStringRef@Catch@@UTagInfo@2@@std@@PEAX@std@@_N$0A@@?$pair@PEAU?$_Tree_node@U?$pair@$$CBVStringRef@Catch@@UTagInfo@2@@std@@PEAX@std@@_N@std@@QEAA@AEAPEAU?$_Tree_node@U?$pair@$$CBVStringRef@Catch@@UTagInfo@2@@std@@PEAX@1@$$QEA_N@Z
	??$?0AEAPEAU?$_Tree_node@VStringRef@Catch@@PEAX@std@@_N$0A@@?$pair@PEAU?$_Tree_node@VStringRef@Catch@@PEAX@std@@_N@std@@QEAA@AEAPEAU?$_Tree_node@VStringRef@Catch@@PEAX@1@$$QEA_N@Z
	??$?0AEAPEAU?$pair@_KVTestCaseHandle@Catch@@@std@@AEAPEAU01@$0A@@?$pair@PEAU?$pair@_KVTestCaseHandle@Catch@@@std@@PEAU12@@std@@QEAA@AEAPEAU?$pair@_KVTestCaseHandle@Catch@@@1@0@Z
	??$?0AEAPEAUTag@Catch@@AEAPEAU01@$0A@@?$pair@PEAUTag@Catch@@PEAU12@@std@@QEAA@AEAPEAUTag@Catch@@0@Z
	??$?0AEAPEAU_TaskProcHandle@details@Concurrency@@@?$_Compressed_pair@U?$default_delete@U_TaskProcHandle@details@Concurrency@@@std@@PEAU_TaskProcHandle@details@Concurrency@@$00@std@@QEAA@U_Zero_then_variadic_args_t@1@AEAPEAU_TaskProcHandle@details@Concurrency@@@Z
	??$?0AEAPEAVTestCaseHandle@Catch@@AEAPEAV01@$0A@@?$pair@PEAVTestCaseHandle@Catch@@PEAV12@@std@@QEAA@AEAPEAVTestCaseHandle@Catch@@0@Z
	??$?0AEAPEAV_CancellationTokenState@details@Concurrency@@AEAUscheduler_ptr@2@@?$_Ref_count_obj2@U?$_Task_impl@E@details@Concurrency@@@std@@QEAA@AEAPEAV_CancellationTokenState@details@Concurrency@@AEAUscheduler_ptr@4@@Z
	??$?0AEAPEAV_Facet_base@std@@@?$_Compressed_pair@U?$default_delete@V_Facet_base@std@@@std@@PEAV_Facet_base@2@$00@std@@QEAA@U_Zero_then_variadic_args_t@1@AEAPEAV_Facet_base@1@@Z
	??$?0AEAPEAV_Node_assert@std@@@?$_Compressed_pair@U?$default_delete@V_Node_assert@std@@@std@@PEAV_Node_assert@2@$00@std@@QEAA@U_Zero_then_variadic_args_t@1@AEAPEAV_Node_assert@1@@Z
	??$?0AEAPEAV_PPLTaskChore@_DefaultPPLTaskScheduler@details@Concurrency@@@?$_Compressed_pair@U?$default_delete@V_PPLTaskChore@_DefaultPPLTaskScheduler@details@Concurrency@@@std@@PEAV_PPLTaskChore@_DefaultPPLTaskScheduler@details@Concurrency@@$00@std@@QEAA@U_Zero_then_variadic_args_t@1@AEAPEAV_PPLTaskChore@_DefaultPPLTaskScheduler@details@Concurrency@@@Z
	??$?0AEAV?$allocator@D@std@@$$V@?$_Compressed_pair@V?$allocator@D@std@@V?$_String_val@U?$_Simple_types@D@std@@@2@$00@std@@QEAA@U_One_then_variadic_args_t@1@AEAV?$allocator@D@1@@Z
	??$?0AEAV?$basic_string@DU?$char_traits@D@std@@V?$allocator@D@2@@std@@@?$_Ref_count_obj2@U?$BoundValueRef@V?$basic_string@DU?$char_traits@D@std@@V?$allocator@D@2@@std@@@Detail@Clara@Catch@@@std@@QEAA@AEAV?$basic_string@DU?$char_traits@D@std@@V?$allocator@D@2@@1@@Z
	??$?0AEAV?$vector@V?$basic_string@DU?$char_traits@D@std@@V?$allocator@D@2@@std@@V?$allocator@V?$basic_string@DU?$char_traits@D@std@@V?$allocator@D@2@@std@@@2@@std@@@?$_Ref_count_obj2@U?$BoundValueRef@V?$vector@V?$basic_string@DU?$char_traits@D@std@@V?$allocator@D@2@@std@@V?$allocator@V?$basic_string@DU?$char_traits@D@std@@V?$allocator@D@2@@std@@@2@@std@@@Detail@Clara@Catch@@@std@@QEAA@AEAV?$vector@V?$basic_string@DU?$char_traits@D@std@@V?$allocator@D@2@@std@@V?$allocator@V?$basic_string@DU?$char_traits@D@std@@V?$allocator@D@2@@std@@@2@@1@@Z
	??$?0AEAY0N@$$CBD@?$_Ref_count_obj2@V?$basic_string@DU?$char_traits@D@std@@V?$allocator@D@2@@std@@@std@@QEAA@AEAY0N@$$CBD@Z
	??$?0AEA_J@?$_Ref_count_obj2@U?$BoundValueRef@_J@Detail@Clara@Catch@@@std@@QEAA@AEA_J@Z
	??$?0AEA_N@?$_Ref_count_obj2@UBoundFlagRef@Detail@Clara@Catch@@@std@@QEAA@AEA_N@Z
	??$?0AEBQEAU?$_Tree_node@U?$pair@$$CBV?$basic_string@DU?$char_traits@D@std@@V?$allocator@D@2@@std@@V?$unique_ptr@VIReporterFactory@Catch@@@Detail@Catch@@@std@@PEAX@std@@_N$0A@@?$pair@PEAU?$_Tree_node@U?$pair@$$CBV?$basic_string@DU?$char_traits@D@std@@V?$allocator@D@2@@std@@V?$unique_ptr@VIReporterFactory@Catch@@@Detail@Catch@@@std@@PEAX@std@@_N@std@@QEAA@AEBQEAU?$_Tree_node@U?$pair@$$CBV?$basic_string@DU?$char_traits@D@std@@V?$allocator@D@2@@std@@V?$unique_ptr@VIReporterFactory@Catch@@@Detail@Catch@@@std@@PEAX@1@$$QEA_N@Z
	??$?0AEBQEAU?$_Tree_node@U?$pair@$$CBVStringRef@Catch@@V?$vector@PEBU?$Node@UTestCaseStats@Catch@@USectionNode@CumulativeReporterBase@2@@CumulativeReporterBase@Catch@@V?$allocator@PEBU?$Node@UTestCaseStats@Catch@@USectionNode@CumulativeReporterBase@2@@CumulativeReporterBase@Catch@@@std@@@std@@@std@@PEAX@std@@_N$0A@@?$pair@PEAU?$_Tree_node@U?$pair@$$CBVStringRef@Catch@@V?$vector@PEBU?$Node@UTestCaseStats@Catch@@USectionNode@CumulativeReporterBase@2@@CumulativeReporterBase@Catch@@V?$allocator@PEBU?$Node@UTestCaseStats@Catch@@USectionNode@CumulativeReporterBase@2@@CumulativeReporterBase@Catch@@@std@@@std@@@std@@PEAX@std@@_N@std@@QEAA@AEBQEAU?$_Tree_node@U?$pair@$$CBVStringRef@Catch@@V?$vector@PEBU?$Node@UTestCaseStats@Catch@@USectionNode@CumulativeReporterBase@2@@CumulativeReporterBase@Catch@@V?$allocator@PEBU?$Node@UTestCaseStats@Catch@@USectionNode@CumulativeReporterBase@2@@CumulativeReporterBase@Catch@@@std@@@std@@@std@@PEAX@1@$$QEA_N@Z
	??$?0AEBQEBUTestCaseInfo@Catch@@@?$_Tree_temp_node@V?$allocator@U?$_Tree_node@PEBUTestCaseInfo@Catch@@PEAX@std@@@std@@@std@@QEAA@AEAV?$allocator@U?$_Tree_node@PEBUTestCaseInfo@Catch@@PEAX@std@@@1@PEAU?$_Tree_node@PEBUTestCaseInfo@Catch@@PEAX@1@AEBQEBUTestCaseInfo@Catch@@@Z
	??$?0AEBQEBVTestCaseHandle@Catch@@@?$_Tree_temp_node@V?$allocator@U?$_Tree_node@PEBVTestCaseHandle@Catch@@PEAX@std@@@std@@@std@@QEAA@AEAV?$allocator@U?$_Tree_node@PEBVTestCaseHandle@Catch@@PEAX@std@@@1@PEAU?$_Tree_node@PEBVTestCaseHandle@Catch@@PEAX@1@AEBQEBVTestCaseHandle@Catch@@@Z
	??$?0AEBU?$less@PEBVTestCaseHandle@Catch@@@std@@U_Zero_then_variadic_args_t@1@@?$_Compressed_pair@U?$less@PEBVTestCaseHandle@Catch@@@std@@V?$_Compressed_pair@V?$allocator@U?$_Tree_node@PEBVTestCaseHandle@Catch@@PEAX@std@@@std@@V?$_Tree_val@U?$_Tree_simple_types@PEBVTestCaseHandle@Catch@@@std@@@2@$00@2@$00@std@@QEAA@U_One_then_variadic_args_t@1@AEBU?$less@PEBVTestCaseHandle@Catch@@@1@$$QEAU_Zero_then_variadic_args_t@1@@Z
	??$?0AEBU?$less@V?$basic_string@DU?$char_traits@D@std@@V?$allocator@D@2@@std@@@std@@U_Zero_then_variadic_args_t@1@@?$_Compressed_pair@U?$less@V?$basic_string@DU?$char_traits@D@std@@V?$allocator@D@2@@std@@@std@@V?$_Compressed_pair@V?$allocator@U?$_Tree_node@U?$pair@$$CBV?$basic_string@DU?$char_traits@D@std@@V?$allocator@D@2@@std@@UTagAlias@Catch@@@std@@PEAX@std@@@std@@V?$_Tree_val@U?$_Tree_simple_types@U?$pair@$$CBV?$basic_string@DU?$char_traits@D@std@@V?$allocator@D@2@@std@@UTagAlias@Catch@@@std@@@std@@@2@$00@2@$00@std@@QEAA@U_One_then_variadic_args_t@1@AEBU?$less@V?$basic_string@DU?$char_traits@D@std@@V?$allocator@D@2@@std@@@1@$$QEAU_Zero_then_variadic_args_t@1@@Z
	??$?0AEBU?$less@V?$basic_string@DU?$char_traits@D@std@@V?$allocator@D@2@@std@@@std@@U_Zero_then_variadic_args_t@1@@?$_Compressed_pair@U?$less@V?$basic_string@DU?$char_traits@D@std@@V?$allocator@D@2@@std@@@std@@V?$_Compressed_pair@V?$allocator@U?$_Tree_node@U?$pair@$$CBV?$basic_string@DU?$char_traits@D@std@@V?$allocator@D@2@@std@@V12@@std@@PEAX@std@@@std@@V?$_Tree_val@U?$_Tree_simple_types@U?$pair@$$CBV?$basic_string@DU?$char_traits@D@std@@V?$allocator@D@2@@std@@V12@@std@@@std@@@2@$00@2@$00@std@@QEAA@U_One_then_variadic_args_t@1@AEBU?$less@V?$basic_string@DU?$char_traits@D@std@@V?$allocator@D@2@@std@@@1@$$QEAU_Zero_then_variadic_args_t@1@@Z
	??$?0AEBU?$less@VStringRef@Catch@@@std@@U_Zero_then_variadic_args_t@1@@?$_Compressed_pair@U?$less@VStringRef@Catch@@@std@@V?$_Compressed_pair@V?$allocator@U?$_Tree_node@U?$pair@$$CBVStringRef@Catch@@V?$vector@PEBU?$Node@UTestCaseStats@Catch@@USectionNode@CumulativeReporterBase@2@@CumulativeReporterBase@Catch@@V?$allocator@PEBU?$Node@UTestCaseStats@Catch@@USectionNode@CumulativeReporterBase@2@@CumulativeReporterBase@Catch@@@std@@@std@@@std@@PEAX@std@@@std@@V?$_Tree_val@U?$_Tree_simple_types@U?$pair@$$CBVStringRef@Catch@@V?$vector@PEBU?$Node@UTestCaseStats@Catch@@USectionNode@CumulativeReporterBase@2@@CumulativeReporterBase@Catch@@V?$allocator@PEBU?$Node@UTestCaseStats@Catch@@USectionNode@CumulativeReporterBase@2@@CumulativeReporterBase@Catch@@@std@@@std@@@std@@@std@@@2@$00@2@$00@std@@QEAA@U_One_then_variadic_args_t@1@AEBU?$less@VStringRef@Catch@@@1@$$QEAU_Zero_then_variadic_args_t@1@@Z
	??$?0AEBU?$less@VStringRef@Catch@@@std@@U_Zero_then_variadic_args_t@1@@?$_Compressed_pair@U?$less@VStringRef@Catch@@@std@@V?$_Compressed_pair@V?$allocator@U?$_Tree_node@VStringRef@Catch@@PEAX@std@@@std@@V?$_Tree_val@U?$_Tree_simple_types@VStringRef@Catch@@@std@@@2@$00@2@$00@std@@QEAA@U_One_then_variadic_args_t@1@AEBU?$less@VStringRef@Catch@@@1@$$QEAU_Zero_then_variadic_args_t@1@@Z
	??$?0AEBUCaseInsensitiveLess@Detail@Catch@@U_Zero_then_variadic_args_t@std@@@?$_Compressed_pair@UCaseInsensitiveLess@Detail@Catch@@V?$_Compressed_pair@V?$allocator@U?$_Tree_node@U?$pair@$$CBV?$basic_string@DU?$char_traits@D@std@@V?$allocator@D@2@@std@@V?$unique_ptr@VIReporterFactory@Catch@@@Detail@Catch@@@std@@PEAX@std@@@std@@V?$_Tree_val@U?$_Tree_simple_types@U?$pair@$$CBV?$basic_string@DU?$char_traits@D@std@@V?$allocator@D@2@@std@@V?$unique_ptr@VIReporterFactory@Catch@@@Detail@Catch@@@std@@@std@@@2@$00@std@@$00@std@@QEAA@U_One_then_variadic_args_t@1@AEBUCaseInsensitiveLess@Detail@Catch@@$$QEAU_Zero_then_variadic_args_t@1@@Z
	??$?0AEBUCaseInsensitiveLess@Detail@Catch@@U_Zero_then_variadic_args_t@std@@@?$_Compressed_pair@UCaseInsensitiveLess@Detail@Catch@@V?$_Compressed_pair@V?$allocator@U?$_Tree_node@U?$pair@$$CBVStringRef@Catch@@UTagInfo@2@@std@@PEAX@std@@@std@@V?$_Tree_val@U?$_Tree_simple_types@U?$pair@$$CBVStringRef@Catch@@UTagInfo@2@@std@@@std@@@2@$00@std@@$00@std@@QEAA@U_One_then_variadic_args_t@1@AEBUCaseInsensitiveLess@Detail@Catch@@$$QEAU_Zero_then_variadic_args_t@1@@Z
	??$?0AEBUpiecewise_construct_t@std@@V?$tuple@$$QEAV?$basic_string@DU?$char_traits@D@std@@V?$allocator@D@2@@std@@@1@V?$tuple@$$V@1@@?$_Tree_temp_node@V?$allocator@U?$_Tree_node@U?$pair@$$CBV?$basic_string@DU?$char_traits@D@std@@V?$allocator@D@2@@std@@V?$unique_ptr@VIReporterFactory@Catch@@@Detail@Catch@@@std@@PEAX@std@@@std@@@std@@QEAA@AEAV?$allocator@U?$_Tree_node@U?$pair@$$CBV?$basic_string@DU?$char_traits@D@std@@V?$allocator@D@2@@std@@V?$unique_ptr@VIReporterFactory@Catch@@@Detail@Catch@@@std@@PEAX@std@@@1@PEAU?$_Tree_node@U?$pair@$$CBV?$basic_string@DU?$char_traits@D@std@@V?$allocator@D@2@@std@@V?$unique_ptr@VIReporterFactory@Catch@@@Detail@Catch@@@std@@PEAX@1@AEBUpiecewise_construct_t@1@$$QEAV?$tuple@$$QEAV?$basic_string@DU?$char_traits@D@std@@V?$allocator@D@2@@std@@@1@$$QEAV?$tuple@$$V@1@@Z
	??$?0AEBUpiecewise_construct_t@std@@V?$tuple@$$QEAVStringRef@Catch@@@1@V?$tuple@$$V@1@@?$_Tree_temp_node@V?$allocator@U?$_Tree_node@U?$pair@$$CBVStringRef@Catch@@V?$vector@PEBU?$Node@UTestCaseStats@Catch@@USectionNode@CumulativeReporterBase@2@@CumulativeReporterBase@Catch@@V?$allocator@PEBU?$Node@UTestCaseStats@Catch@@USectionNode@CumulativeReporterBase@2@@CumulativeReporterBase@Catch@@@std@@@std@@@std@@PEAX@std@@@std@@@std@@QEAA@AEAV?$allocator@U?$_Tree_node@U?$pair@$$CBVStringRef@Catch@@V?$vector@PEBU?$Node@UTestCaseStats@Catch@@USectionNode@CumulativeReporterBase@2@@CumulativeReporterBase@Catch@@V?$allocator@PEBU?$Node@UTestCaseStats@Catch@@USectionNode@CumulativeReporterBase@2@@CumulativeReporterBase@Catch@@@std@@@std@@@std@@PEAX@std@@@1@PEAU?$_Tree_node@U?$pair@$$CBVStringRef@Catch@@V?$vector@PEBU?$Node@UTestCaseStats@Catch@@USectionNode@CumulativeReporterBase@2@@CumulativeReporterBase@Catch@@V?$allocator@PEBU?$Node@UTestCaseStats@Catch@@USectionNode@CumulativeReporterBase@2@@CumulativeReporterBase@Catch@@@std@@@std@@@std@@PEAX@1@AEBUpiecewise_construct_t@1@$$QEAV?$tuple@$$QEAVStringRef@Catch@@@1@$$QEAV?$tuple@$$V@1@@Z
	??$?0AEBV<lambda_1>@?1??_MakeVoidToUnitFunc@details@Concurrency@@YA?AV?$function@$$A6AEXZ@std@@AEBV?$function@$$A6AXXZ@5@@Z@$0A@@?$_Func_impl_no_alloc@V<lambda_1>@?1??_MakeVoidToUnitFunc@details@Concurrency@@YA?AV?$function@$$A6AEXZ@std@@AEBV?$function@$$A6AXXZ@6@@Z@E$$V@std@@QEAA@AEBV<lambda_1>@?1??_MakeVoidToUnitFunc@details@Concurrency@@YA?AV?$function@$$A6AEXZ@1@AEBV?$function@$$A6AXXZ@1@@Z@@Z
	??$?0AEBV<lambda_1>@?4??_ScheduleContinuationTask@_Task_impl_base@details@Concurrency@@QEAAXPEAU_ContinuationTaskHandleBase@34@@Z@$0A@@?$_Func_impl_no_alloc@V<lambda_1>@?4??_ScheduleContinuationTask@_Task_impl_base@details@Concurrency@@QEAAXPEAU_ContinuationTaskHandleBase@45@@Z@X$$V@std@@QEAA@AEBV<lambda_1>@?4??_ScheduleContinuationTask@_Task_impl_base@details@Concurrency@@QEAAXPEAU_ContinuationTaskHandleBase@56@@Z@@Z
	??$?0AEBV<lambda_1>@?7???R0?4??_ScheduleContinuationTask@_Task_impl_base@details@Concurrency@@QEAAXPEAU_ContinuationTaskHandleBase@34@@Z@QEBA@XZ@$0A@@?$_Func_impl_no_alloc@V<lambda_1>@?7???R1?4??_ScheduleContinuationTask@_Task_impl_base@details@Concurrency@@QEAAXPEAU_ContinuationTaskHandleBase@45@@Z@QEBA@XZ@X$$V@std@@QEAA@AEBV<lambda_1>@?7???R2?4??_ScheduleContinuationTask@_Task_impl_base@details@Concurrency@@QEAAXPEAU_ContinuationTaskHandleBase@56@@Z@QEBA@XZ@@Z
	??$?0AEBV<lambda_1>@?CC@??_CancelAndRunContinuations@?$_Task_impl@E@details@Concurrency@@UEAA_N_N00AEBV?$shared_ptr@U_ExceptionHolder@details@Concurrency@@@std@@@Z@$0A@@?$_Func_impl_no_alloc@V<lambda_1>@?CC@??_CancelAndRunContinuations@?$_Task_impl@E@details@Concurrency@@UEAA_N_N00AEBV?$shared_ptr@U_ExceptionHolder@details@Concurrency@@@std@@@Z@X$$V@std@@QEAA@AEBV<lambda_1>@?CC@??_CancelAndRunContinuations@?$_Task_impl@E@details@Concurrency@@UEAA_N_N00AEBV?$shared_ptr@U_ExceptionHolder@details@Concurrency@@@1@@Z@@Z
	??$?0AEBV?$allocator@D@std@@$$V@?$_Compressed_pair@V?$allocator@D@std@@V?$_String_val@U?$_Simple_types@D@std@@@2@$00@std@@QEAA@U_One_then_variadic_args_t@1@AEBV?$allocator@D@1@@Z
	??$?0AEBV?$allocator@D@std@@$$V@?$_Compressed_pair@V?$allocator@D@std@@V?$_Vector_val@U?$_Simple_types@D@std@@@2@$00@std@@QEAA@U_One_then_variadic_args_t@1@AEBV?$allocator@D@1@@Z
	??$?0AEBV?$allocator@I@std@@$$V@?$_Compressed_pair@V?$allocator@I@std@@V?$_Vector_val@U?$_Simple_types@I@std@@@2@$00@std@@QEAA@U_One_then_variadic_args_t@1@AEBV?$allocator@I@1@@Z
	??$?0AEBV?$allocator@N@std@@$$V@?$_Compressed_pair@V?$allocator@N@std@@V?$_Vector_val@U?$_Simple_types@N@std@@@2@$00@std@@QEAA@U_One_then_variadic_args_t@1@AEBV?$allocator@N@1@@Z
	??$?0AEBV?$allocator@UHelpColumns@Detail@Clara@Catch@@@std@@$$V@?$_Compressed_pair@V?$allocator@UHelpColumns@Detail@Clara@Catch@@@std@@V?$_Vector_val@U?$_Simple_types@UHelpColumns@Detail@Clara@Catch@@@std@@@2@$00@std@@QEAA@U_One_then_variadic_args_t@1@AEBV?$allocator@UHelpColumns@Detail@Clara@Catch@@@1@@Z
	??$?0AEBV?$allocator@V?$basic_string@DU?$char_traits@D@std@@V?$allocator@D@2@@std@@@std@@$$V@?$_Compressed_pair@V?$allocator@V?$basic_string@DU?$char_traits@D@std@@V?$allocator@D@2@@std@@@std@@V?$_Vector_val@U?$_Simple_types@V?$basic_string@DU?$char_traits@D@std@@V?$allocator@D@2@@std@@@std@@@2@$00@std@@QEAA@U_One_then_variadic_args_t@1@AEBV?$allocator@V?$basic_string@DU?$char_traits@D@std@@V?$allocator@D@2@@std@@@1@@Z
	??$?0AEBV?$allocator@VTestCaseHandle@Catch@@@std@@$$V@?$_Compressed_pair@V?$allocator@VTestCaseHandle@Catch@@@std@@V?$_Vector_val@U?$_Simple_types@VTestCaseHandle@Catch@@@std@@@2@$00@std@@QEAA@U_One_then_variadic_args_t@1@AEBV?$allocator@VTestCaseHandle@Catch@@@1@@Z
	??$?0AEBV?$allocator@_W@std@@$$V@?$_Compressed_pair@V?$allocator@_W@std@@V?$_String_val@U?$_Simple_types@_W@std@@@2@$00@std@@QEAA@U_One_then_variadic_args_t@1@AEBV?$allocator@_W@1@@Z
	??$?0AEBV?$basic_string@DU?$char_traits@D@std@@V?$allocator@D@2@@std@@UTagAlias@Catch@@$0A@@?$pair@V?$basic_string@DU?$char_traits@D@std@@V?$allocator@D@2@@std@@UTagAlias@Catch@@@std@@QEAA@AEBV?$basic_string@DU?$char_traits@D@std@@V?$allocator@D@2@@1@$$QEAUTagAlias@Catch@@@Z
	??$?0AEBV?$basic_string@DU?$char_traits@D@std@@V?$allocator@D@2@@std@@V?$unique_ptr@VIReporterFactory@Catch@@@Detail@Catch@@$0A@@?$pair@$$CBV?$basic_string@DU?$char_traits@D@std@@V?$allocator@D@2@@std@@V?$unique_ptr@VIReporterFactory@Catch@@@Detail@Catch@@@std@@QEAA@AEBV?$basic_string@DU?$char_traits@D@std@@V?$allocator@D@2@@1@$$QEAV?$unique_ptr@VIReporterFactory@Catch@@@Detail@Catch@@@Z
	??$?0AEBV?$basic_string@DU?$char_traits@D@std@@V?$allocator@D@2@@std@@V?$unique_ptr@VIReporterFactory@Catch@@@Detail@Catch@@@?$_Tree_temp_node@V?$allocator@U?$_Tree_node@U?$pair@$$CBV?$basic_string@DU?$char_traits@D@std@@V?$allocator@D@2@@std@@V?$unique_ptr@VIReporterFactory@Catch@@@Detail@Catch@@@std@@PEAX@std@@@std@@@std@@QEAA@AEAV?$allocator@U?$_Tree_node@U?$pair@$$CBV?$basic_string@DU?$char_traits@D@std@@V?$allocator@D@2@@std@@V?$unique_ptr@VIReporterFactory@Catch@@@Detail@Catch@@@std@@PEAX@std@@@1@PEAU?$_Tree_node@U?$pair@$$CBV?$basic_string@DU?$char_traits@D@std@@V?$allocator@D@2@@std@@V?$unique_ptr@VIReporterFactory@Catch@@@Detail@Catch@@@std@@PEAX@1@AEBV?$basic_string@DU?$char_traits@D@std@@V?$allocator@D@2@@1@$$QEAV?$unique_ptr@VIReporterFactory@Catch@@@Detail@Catch@@@Z
	??$?0AEBVStringRef@Catch@@@?$_Tree_temp_node@V?$allocator@U?$_Tree_node@VStringRef@Catch@@PEAX@std@@@std@@@std@@QEAA@AEAV?$allocator@U?$_Tree_node@VStringRef@Catch@@PEAX@std@@@1@PEAU?$_Tree_node@VStringRef@Catch@@PEAX@1@AEBVStringRef@Catch@@@Z
	??$?0AEBVStringRef@Catch@@UTagInfo@1@$0A@@?$pair@VStringRef@Catch@@UTagInfo@2@@std@@QEAA@AEBVStringRef@Catch@@$$QEAUTagInfo@3@@Z
	??$?0AEBVexception_ptr@std@@V_TaskCreationCallstack@details@Concurrency@@@?$_Ref_count_obj2@U_ExceptionHolder@details@Concurrency@@@std@@QEAA@AEBVexception_ptr@1@$$QEAV_TaskCreationCallstack@details@Concurrency@@@Z
	??$?0D@?$allocator@PEAD@std@@QEAA@AEBV?$allocator@D@1@@Z
	??$?0D@?$allocator@U_Container_proxy@std@@@std@@QEAA@AEBV?$allocator@D@1@@Z
	??$?0HX@Approx@Catch@@QEAA@AEBH@Z
	??$?0I$0A@@_Base128@std@@QEAA@I@Z
	??$?0I@?$allocator@U_Container_proxy@std@@@std@@QEAA@AEBV?$allocator@I@1@@Z
	??$?0IAEBVTestCaseHandle@Catch@@$0A@@?$pair@_KVTestCaseHandle@Catch@@@std@@QEAA@$$QEAIAEBVTestCaseHandle@Catch@@@Z
	??$?0IX@?$ParserRefImpl@VOpt@Clara@Catch@@@Detail@Clara@Catch@@QEAA@AEAIAEBV?$basic_string@DU?$char_traits@D@std@@V?$allocator@D@2@@std@@@Z
	??$?0IX@Opt@Clara@Catch@@QEAA@AEAIAEBV?$basic_string@DU?$char_traits@D@std@@V?$allocator@D@2@@std@@@Z
	??$?0N@?$allocator@U_Container_proxy@std@@@std@@QEAA@AEBV?$allocator@N@1@@Z
	??$?0NX@?$ParserRefImpl@VOpt@Clara@Catch@@@Detail@Clara@Catch@@QEAA@AEANAEBV?$basic_string@DU?$char_traits@D@std@@V?$allocator@D@2@@std@@@Z
	??$?0NX@Opt@Clara@Catch@@QEAA@AEANAEBV?$basic_string@DU?$char_traits@D@std@@V?$allocator@D@2@@std@@@Z
	??$?0OX@Approx@Catch@@QEAA@AEBO@Z
	??$?0PEAD$0A@@?$basic_string@DU?$char_traits@D@std@@V?$allocator@D@2@@std@@QEAA@PEAD0AEBV?$allocator@D@1@@Z
	??$?0PEAD$0A@@?$vector@DV?$allocator@D@std@@@std@@QEAA@PEAD0AEBV?$allocator@D@1@@Z
	??$?0PEAU?$_Tree_node@PEBUTestCaseInfo@Catch@@PEAX@std@@_N$0A@@?$pair@PEAU?$_Tree_node@PEBUTestCaseInfo@Catch@@PEAX@std@@_N@std@@QEAA@$$QEAPEAU?$_Tree_node@PEBUTestCaseInfo@Catch@@PEAX@1@$$QEA_N@Z
	??$?0PEAU?$_Tree_node@PEBVTestCaseHandle@Catch@@PEAX@std@@_N$0A@@?$pair@PEAU?$_Tree_node@PEBVTestCaseHandle@Catch@@PEAX@std@@_N@std@@QEAA@$$QEAPEAU?$_Tree_node@PEBVTestCaseHandle@Catch@@PEAX@1@$$QEA_N@Z
	??$?0PEAU?$_Tree_node@U?$pair@$$CBV?$basic_string@DU?$char_traits@D@std@@V?$allocator@D@2@@std@@UTagAlias@Catch@@@std@@PEAX@std@@_N$0A@@?$pair@PEAU?$_Tree_node@U?$pair@$$CBV?$basic_string@DU?$char_traits@D@std@@V?$allocator@D@2@@std@@UTagAlias@Catch@@@std@@PEAX@std@@_N@std@@QEAA@$$QEAPEAU?$_Tree_node@U?$pair@$$CBV?$basic_string@DU?$char_traits@D@std@@V?$allocator@D@2@@std@@UTagAlias@Catch@@@std@@PEAX@1@$$QEA_N@Z
	??$?0PEAU?$_Tree_node@U?$pair@$$CBV?$basic_string@DU?$char_traits@D@std@@V?$allocator@D@2@@std@@V12@@std@@PEAX@std@@_N$0A@@?$pair@PEAU?$_Tree_node@U?$pair@$$CBV?$basic_string@DU?$char_traits@D@std@@V?$allocator@D@2@@std@@V12@@std@@PEAX@std@@_N@std@@QEAA@$$QEAPEAU?$_Tree_node@U?$pair@$$CBV?$basic_string@DU?$char_traits@D@std@@V?$allocator@D@2@@std@@V12@@std@@PEAX@1@$$QEA_N@Z
	??$?0PEAU?$_Tree_node@U?$pair@$$CBV?$basic_string@DU?$char_traits@D@std@@V?$allocator@D@2@@std@@V?$unique_ptr@VIReporterFactory@Catch@@@Detail@Catch@@@std@@PEAX@std@@_N$0A@@?$pair@PEAU?$_Tree_node@U?$pair@$$CBV?$basic_string@DU?$char_traits@D@std@@V?$allocator@D@2@@std@@V?$unique_ptr@VIReporterFactory@Catch@@@Detail@Catch@@@std@@PEAX@std@@_N@std@@QEAA@$$QEAPEAU?$_Tree_node@U?$pair@$$CBV?$basic_string@DU?$char_traits@D@std@@V?$allocator@D@2@@std@@V?$unique_ptr@VIReporterFactory@Catch@@@Detail@Catch@@@std@@PEAX@1@$$QEA_N@Z
	??$?0PEAU?$_Tree_node@U?$pair@$$CBVStringRef@Catch@@UTagInfo@2@@std@@PEAX@std@@_N$0A@@?$pair@PEAU?$_Tree_node@U?$pair@$$CBVStringRef@Catch@@UTagInfo@2@@std@@PEAX@std@@_N@std@@QEAA@$$QEAPEAU?$_Tree_node@U?$pair@$$CBVStringRef@Catch@@UTagInfo@2@@std@@PEAX@1@$$QEA_N@Z
	??$?0PEAU?$_Tree_node@U?$pair@$$CBVStringRef@Catch@@V?$vector@PEBU?$Node@UTestCaseStats@Catch@@USectionNode@CumulativeReporterBase@2@@CumulativeReporterBase@Catch@@V?$allocator@PEBU?$Node@UTestCaseStats@Catch@@USectionNode@CumulativeReporterBase@2@@CumulativeReporterBase@Catch@@@std@@@std@@@std@@PEAX@std@@_N$0A@@?$pair@PEAU?$_Tree_node@U?$pair@$$CBVStringRef@Catch@@V?$vector@PEBU?$Node@UTestCaseStats@Catch@@USectionNode@CumulativeReporterBase@2@@CumulativeReporterBase@Catch@@V?$allocator@PEBU?$Node@UTestCaseStats@Catch@@USectionNode@CumulativeReporterBase@2@@CumulativeReporterBase@Catch@@@std@@@std@@@std@@PEAX@std@@_N@std@@QEAA@$$QEAPEAU?$_Tree_node@U?$pair@$$CBVStringRef@Catch@@V?$vector@PEBU?$Node@UTestCaseStats@Catch@@USectionNode@CumulativeReporterBase@2@@CumulativeReporterBase@Catch@@V?$allocator@PEBU?$Node@UTestCaseStats@Catch@@USectionNode@CumulativeReporterBase@2@@CumulativeReporterBase@Catch@@@std@@@std@@@std@@PEAX@1@$$QEA_N@Z
	??$?0PEAU?$_Tree_node@VStringRef@Catch@@PEAX@std@@_N$0A@@?$pair@PEAU?$_Tree_node@VStringRef@Catch@@PEAX@std@@_N@std@@QEAA@$$QEAPEAU?$_Tree_node@VStringRef@Catch@@PEAX@1@$$QEA_N@Z
	??$?0PEAUISingleton@Catch@@@?$allocator@U_Container_proxy@std@@@std@@QEAA@AEBV?$allocator@PEAUISingleton@Catch@@@1@@Z
	??$?0PEAUSectionNode@CumulativeReporterBase@Catch@@@?$allocator@U_Container_proxy@std@@@std@@QEAA@AEBV?$allocator@PEAUSectionNode@CumulativeReporterBase@Catch@@@1@@Z
	??$?0PEAUTestCaseInfo@Catch@@@?$allocator@U_Container_proxy@std@@@std@@QEAA@AEBV?$allocator@PEAUTestCaseInfo@Catch@@@1@@Z
	??$?0PEAVITracker@TestCaseTracking@Catch@@@?$allocator@U_Container_proxy@std@@@std@@QEAA@AEBV?$allocator@PEAVITracker@TestCaseTracking@Catch@@@1@@Z
	??$?0PEAX@?$allocator@U_Container_proxy@std@@@std@@QEAA@AEBV?$allocator@PEAX@1@@Z
	??$?0PEBD$0A@@?$vector@DV?$allocator@D@std@@@std@@QEAA@PEBD0AEBV?$allocator@D@1@@Z
	??$?0PEBDPEBD$0A@@?$pair@PEBDPEBD@std@@QEAA@XZ
	??$?0PEBQEBD$0A@@?$vector@V?$basic_string@DU?$char_traits@D@std@@V?$allocator@D@2@@std@@V?$allocator@V?$basic_string@DU?$char_traits@D@std@@V?$allocator@D@2@@std@@@2@@std@@QEAA@PEBQEBD0AEBV?$allocator@V?$basic_string@DU?$char_traits@D@std@@V?$allocator@D@2@@std@@@1@@Z
	??$?0PEBU?$Node@UTestCaseStats@Catch@@USectionNode@CumulativeReporterBase@2@@CumulativeReporterBase@Catch@@@?$allocator@U_Container_proxy@std@@@std@@QEAA@AEBV?$allocator@PEBU?$Node@UTestCaseStats@Catch@@USectionNode@CumulativeReporterBase@2@@CumulativeReporterBase@Catch@@@1@@Z
	??$?0PEBV?$basic_string@DU?$char_traits@D@std@@V?$allocator@D@2@@std@@$0A@@?$vector@V?$basic_string@DU?$char_traits@D@std@@V?$allocator@D@2@@std@@V?$allocator@V?$basic_string@DU?$char_traits@D@std@@V?$allocator@D@2@@std@@@2@@std@@QEAA@PEBV?$basic_string@DU?$char_traits@D@std@@V?$allocator@D@2@@1@0AEBV?$allocator@V?$basic_string@DU?$char_traits@D@std@@V?$allocator@D@2@@std@@@1@@Z
	??$?0PEBVTestCaseHandle@Catch@@@?$_Tree_temp_node@V?$allocator@U?$_Tree_node@PEBVTestCaseHandle@Catch@@PEAX@std@@@std@@@std@@QEAA@AEAV?$allocator@U?$_Tree_node@PEBVTestCaseHandle@Catch@@PEAX@std@@@1@PEAU?$_Tree_node@PEBVTestCaseHandle@Catch@@PEAX@1@$$QEAPEBVTestCaseHandle@Catch@@@Z
	??$?0PEBVTestCaseHandle@Catch@@@?$allocator@U_Container_proxy@std@@@std@@QEAA@AEBV?$allocator@PEBVTestCaseHandle@Catch@@@1@@Z
	??$?0U?$BoundValueRef@I@Detail@Clara@Catch@@$0A@@?$shared_ptr@UBoundRef@Detail@Clara@Catch@@@std@@QEAA@$$QEAV?$shared_ptr@U?$BoundValueRef@I@Detail@Clara@Catch@@@1@@Z
	??$?0U?$BoundValueRef@N@Detail@Clara@Catch@@$0A@@?$shared_ptr@UBoundRef@Detail@Clara@Catch@@@std@@QEAA@$$QEAV?$shared_ptr@U?$BoundValueRef@N@Detail@Clara@Catch@@@1@@Z
	??$?0U?$BoundValueRef@V?$basic_string@DU?$char_traits@D@std@@V?$allocator@D@2@@std@@@Detail@Clara@Catch@@$0A@@?$shared_ptr@UBoundRef@Detail@Clara@Catch@@@std@@QEAA@$$QEAV?$shared_ptr@U?$BoundValueRef@V?$basic_string@DU?$char_traits@D@std@@V?$allocator@D@2@@std@@@Detail@Clara@Catch@@@1@@Z
	??$?0U?$BoundValueRef@V?$basic_string@DU?$char_traits@D@std@@V?$allocator@D@2@@std@@@Detail@Clara@Catch@@$0A@@?$shared_ptr@UBoundValueRefBase@Detail@Clara@Catch@@@std@@QEAA@$$QEAV?$shared_ptr@U?$BoundValueRef@V?$basic_string@DU?$char_traits@D@std@@V?$allocator@D@2@@std@@@Detail@Clara@Catch@@@1@@Z
	??$?0U?$BoundValueRef@V?$vector@V?$basic_string@DU?$char_traits@D@std@@V?$allocator@D@2@@std@@V?$allocator@V?$basic_string@DU?$char_traits@D@std@@V?$allocator@D@2@@std@@@2@@std@@@Detail@Clara@Catch@@$0A@@?$shared_ptr@UBoundRef@Detail@Clara@Catch@@@std@@QEAA@$$QEAV?$shared_ptr@U?$BoundValueRef@V?$vector@V?$basic_string@DU?$char_traits@D@std@@V?$allocator@D@2@@std@@V?$allocator@V?$basic_string@DU?$char_traits@D@std@@V?$allocator@D@2@@std@@@2@@std@@@Detail@Clara@Catch@@@1@@Z
	??$?0U?$BoundValueRef@_J@Detail@Clara@Catch@@$0A@@?$shared_ptr@UBoundRef@Detail@Clara@Catch@@@std@@QEAA@$$QEAV?$shared_ptr@U?$BoundValueRef@_J@Detail@Clara@Catch@@@1@@Z
	??$?0U?$_Task_impl@E@details@Concurrency@@$0A@@?$weak_ptr@U_Task_impl_base@details@Concurrency@@@std@@QEAA@AEBV?$shared_ptr@U?$_Task_impl@E@details@Concurrency@@@1@@Z
	??$?0U?$_Tree_node@PEBUTestCaseInfo@Catch@@PEAX@std@@@?$allocator@U_Container_proxy@std@@@std@@QEAA@AEBV?$allocator@U?$_Tree_node@PEBUTestCaseInfo@Catch@@PEAX@std@@@1@@Z
	??$?0U?$_Tree_node@PEBVTestCaseHandle@Catch@@PEAX@std@@@?$allocator@U_Container_proxy@std@@@std@@QEAA@AEBV?$allocator@U?$_Tree_node@PEBVTestCaseHandle@Catch@@PEAX@std@@@1@@Z
	??$?0U?$_Tree_node@U?$pair@$$CBV?$basic_string@DU?$char_traits@D@std@@V?$allocator@D@2@@std@@UTagAlias@Catch@@@std@@PEAX@std@@@?$allocator@U_Container_proxy@std@@@std@@QEAA@AEBV?$allocator@U?$_Tree_node@U?$pair@$$CBV?$basic_string@DU?$char_traits@D@std@@V?$allocator@D@2@@std@@UTagAlias@Catch@@@std@@PEAX@std@@@1@@Z
	??$?0U?$_Tree_node@U?$pair@$$CBV?$basic_string@DU?$char_traits@D@std@@V?$allocator@D@2@@std@@V12@@std@@PEAX@std@@@?$allocator@U_Container_proxy@std@@@std@@QEAA@AEBV?$allocator@U?$_Tree_node@U?$pair@$$CBV?$basic_string@DU?$char_traits@D@std@@V?$allocator@D@2@@std@@V12@@std@@PEAX@std@@@1@@Z
	??$?0U?$_Tree_node@U?$pair@$$CBV?$basic_string@DU?$char_traits@D@std@@V?$allocator@D@2@@std@@V?$unique_ptr@VIReporterFactory@Catch@@@Detail@Catch@@@std@@PEAX@std@@@?$allocator@U_Container_proxy@std@@@std@@QEAA@AEBV?$allocator@U?$_Tree_node@U?$pair@$$CBV?$basic_string@DU?$char_traits@D@std@@V?$allocator@D@2@@std@@V?$unique_ptr@VIReporterFactory@Catch@@@Detail@Catch@@@std@@PEAX@std@@@1@@Z
	??$?0U?$_Tree_node@U?$pair@$$CBVStringRef@Catch@@UTagInfo@2@@std@@PEAX@std@@@?$allocator@U_Container_proxy@std@@@std@@QEAA@AEBV?$allocator@U?$_Tree_node@U?$pair@$$CBVStringRef@Catch@@UTagInfo@2@@std@@PEAX@std@@@1@@Z
	??$?0U?$_Tree_node@U?$pair@$$CBVStringRef@Catch@@V?$vector@PEBU?$Node@UTestCaseStats@Catch@@USectionNode@CumulativeReporterBase@2@@CumulativeReporterBase@Catch@@V?$allocator@PEBU?$Node@UTestCaseStats@Catch@@USectionNode@CumulativeReporterBase@2@@CumulativeReporterBase@Catch@@@std@@@std@@@std@@PEAX@std@@@?$allocator@U_Container_proxy@std@@@std@@QEAA@AEBV?$allocator@U?$_Tree_node@U?$pair@$$CBVStringRef@Catch@@V?$vector@PEBU?$Node@UTestCaseStats@Catch@@USectionNode@CumulativeReporterBase@2@@CumulativeReporterBase@Catch@@V?$allocator@PEBU?$Node@UTestCaseStats@Catch@@USectionNode@CumulativeReporterBase@2@@CumulativeReporterBase@Catch@@@std@@@std@@@std@@PEAX@std@@@1@@Z
	??$?0U?$_Tree_node@VStringRef@Catch@@PEAX@std@@@?$allocator@U_Container_proxy@std@@@std@@QEAA@AEBV?$allocator@U?$_Tree_node@VStringRef@Catch@@PEAX@std@@@1@@Z
	??$?0U?$char_traits@D@std@@V?$allocator@D@1@@?$basic_regex@DV?$regex_traits@D@std@@@std@@QEAA@AEBV?$basic_string@DU?$char_traits@D@std@@V?$allocator@D@2@@1@W4syntax_option_type@regex_constants@1@@Z
	??$?0U?$default_delete@U_TaskProcHandle@details@Concurrency@@@std@@$0A@@?$unique_ptr@U_TaskProcHandle@details@Concurrency@@U?$default_delete@U_TaskProcHandle@details@Concurrency@@@std@@@std@@QEAA@PEAU_TaskProcHandle@details@Concurrency@@@Z
	??$?0U?$default_delete@V_Facet_base@std@@@std@@$0A@@?$unique_ptr@V_Facet_base@std@@U?$default_delete@V_Facet_base@std@@@2@@std@@QEAA@PEAV_Facet_base@1@@Z
	??$?0U?$default_delete@V_Node_assert@std@@@std@@$0A@@?$unique_ptr@V_Node_assert@std@@U?$default_delete@V_Node_assert@std@@@2@@std@@QEAA@PEAV_Node_assert@1@@Z
	??$?0U?$default_delete@V_PPLTaskChore@_DefaultPPLTaskScheduler@details@Concurrency@@@std@@$0A@@?$unique_ptr@V_PPLTaskChore@_DefaultPPLTaskScheduler@details@Concurrency@@U?$default_delete@V_PPLTaskChore@_DefaultPPLTaskScheduler@details@Concurrency@@@std@@@std@@QEAA@PEAV_PPLTaskChore@_DefaultPPLTaskScheduler@details@Concurrency@@@Z
	??$?0U?$less@PEBVTestCaseHandle@Catch@@@std@@U_One_then_variadic_args_t@1@V?$allocator@U?$_Tree_node@PEBVTestCaseHandle@Catch@@PEAX@std@@@1@@?$_Compressed_pair@U?$less@PEBVTestCaseHandle@Catch@@@std@@V?$_Compressed_pair@V?$allocator@U?$_Tree_node@PEBVTestCaseHandle@Catch@@PEAX@std@@@std@@V?$_Tree_val@U?$_Tree_simple_types@PEBVTestCaseHandle@Catch@@@std@@@2@$00@2@$00@std@@QEAA@U_One_then_variadic_args_t@1@$$QEAU?$less@PEBVTestCaseHandle@Catch@@@1@$$QEAU21@$$QEAV?$allocator@U?$_Tree_node@PEBVTestCaseHandle@Catch@@PEAX@std@@@1@@Z
	??$?0U?$less@V?$basic_string@DU?$char_traits@D@std@@V?$allocator@D@2@@std@@@std@@U_One_then_variadic_args_t@1@V?$allocator@U?$_Tree_node@U?$pair@$$CBV?$basic_string@DU?$char_traits@D@std@@V?$allocator@D@2@@std@@V12@@std@@PEAX@std@@@1@@?$_Compressed_pair@U?$less@V?$basic_string@DU?$char_traits@D@std@@V?$allocator@D@2@@std@@@std@@V?$_Compressed_pair@V?$allocator@U?$_Tree_node@U?$pair@$$CBV?$basic_string@DU?$char_traits@D@std@@V?$allocator@D@2@@std@@V12@@std@@PEAX@std@@@std@@V?$_Tree_val@U?$_Tree_simple_types@U?$pair@$$CBV?$basic_string@DU?$char_traits@D@std@@V?$allocator@D@2@@std@@V12@@std@@@std@@@2@$00@2@$00@std@@QEAA@U_One_then_variadic_args_t@1@$$QEAU?$less@V?$basic_string@DU?$char_traits@D@std@@V?$allocator@D@2@@std@@@1@$$QEAU21@$$QEAV?$allocator@U?$_Tree_node@U?$pair@$$CBV?$basic_string@DU?$char_traits@D@std@@V?$allocator@D@2@@std@@V12@@std@@PEAX@std@@@1@@Z
	??$?0U?$less@VStringRef@Catch@@@std@@U_One_then_variadic_args_t@1@V?$allocator@U?$_Tree_node@VStringRef@Catch@@PEAX@std@@@1@@?$_Compressed_pair@U?$less@VStringRef@Catch@@@std@@V?$_Compressed_pair@V?$allocator@U?$_Tree_node@VStringRef@Catch@@PEAX@std@@@std@@V?$_Tree_val@U?$_Tree_simple_types@VStringRef@Catch@@@std@@@2@$00@2@$00@std@@QEAA@U_One_then_variadic_args_t@1@$$QEAU?$less@VStringRef@Catch@@@1@$$QEAU21@$$QEAV?$allocator@U?$_Tree_node@VStringRef@Catch@@PEAX@std@@@1@@Z
	??$?0U?$pair@HVStringRef@Catch@@@std@@@?$allocator@U_Container_proxy@std@@@std@@QEAA@AEBV?$allocator@U?$pair@HVStringRef@Catch@@@std@@@1@@Z
	??$?0U?$pair@V?$basic_string@DU?$char_traits@D@std@@V?$allocator@D@2@@std@@UTagAlias@Catch@@@std@@@?$_Tree_temp_node@V?$allocator@U?$_Tree_node@U?$pair@$$CBV?$basic_string@DU?$char_traits@D@std@@V?$allocator@D@2@@std@@UTagAlias@Catch@@@std@@PEAX@std@@@std@@@std@@QEAA@AEAV?$allocator@U?$_Tree_node@U?$pair@$$CBV?$basic_string@DU?$char_traits@D@std@@V?$allocator@D@2@@std@@UTagAlias@Catch@@@std@@PEAX@std@@@1@PEAU?$_Tree_node@U?$pair@$$CBV?$basic_string@DU?$char_traits@D@std@@V?$allocator@D@2@@std@@UTagAlias@Catch@@@std@@PEAX@1@$$QEAU?$pair@V?$basic_string@DU?$char_traits@D@std@@V?$allocator@D@2@@std@@UTagAlias@Catch@@@1@@Z
	??$?0U?$pair@VStringRef@Catch@@UTagInfo@2@@std@@@?$_Tree_temp_node@V?$allocator@U?$_Tree_node@U?$pair@$$CBVStringRef@Catch@@UTagInfo@2@@std@@PEAX@std@@@std@@@std@@QEAA@AEAV?$allocator@U?$_Tree_node@U?$pair@$$CBVStringRef@Catch@@UTagInfo@2@@std@@PEAX@std@@@1@PEAU?$_Tree_node@U?$pair@$$CBVStringRef@Catch@@UTagInfo@2@@std@@PEAX@1@$$QEAU?$pair@VStringRef@Catch@@UTagInfo@2@@1@@Z
	??$?0U?$pair@_KVTestCaseHandle@Catch@@@std@@@?$allocator@U_Container_proxy@std@@@std@@QEAA@AEBV?$allocator@U?$pair@_KVTestCaseHandle@Catch@@@std@@@1@@Z
	??$?0UBoundFlagRef@Detail@Clara@Catch@@$0A@@?$shared_ptr@UBoundRef@Detail@Clara@Catch@@@std@@QEAA@$$QEAV?$shared_ptr@UBoundFlagRef@Detail@Clara@Catch@@@1@@Z
	??$?0UFilter@TestSpec@Catch@@@?$allocator@U_Container_proxy@std@@@std@@QEAA@AEBV?$allocator@UFilter@TestSpec@Catch@@@1@@Z
	??$?0UFilterMatch@TestSpec@Catch@@@?$allocator@U_Container_proxy@std@@@std@@QEAA@AEBV?$allocator@UFilterMatch@TestSpec@Catch@@@1@@Z
	??$?0UHelpColumns@Detail@Clara@Catch@@@?$allocator@U_Container_proxy@std@@@std@@QEAA@AEBV?$allocator@UHelpColumns@Detail@Clara@Catch@@@1@@Z
	??$?0UListenerDescription@Catch@@@?$allocator@U_Container_proxy@std@@@std@@QEAA@AEBV?$allocator@UListenerDescription@Catch@@@1@@Z
	??$?0UMessageInfo@Catch@@@?$allocator@U_Container_proxy@std@@@std@@QEAA@AEBV?$allocator@UMessageInfo@Catch@@@1@@Z
	??$?0UProcessedReporterSpec@Catch@@@?$allocator@U_Container_proxy@std@@@std@@QEAA@AEBV?$allocator@UProcessedReporterSpec@Catch@@@1@@Z
	??$?0UReporterDescription@Catch@@@?$allocator@U_Container_proxy@std@@@std@@QEAA@AEBV?$allocator@UReporterDescription@Catch@@@1@@Z
	??$?0USectionEndInfo@Catch@@@?$allocator@U_Container_proxy@std@@@std@@QEAA@AEBV?$allocator@USectionEndInfo@Catch@@@1@@Z
	??$?0USectionInfo@Catch@@@?$allocator@U_Container_proxy@std@@@std@@QEAA@AEBV?$allocator@USectionInfo@Catch@@@1@@Z
	??$?0UTag@Catch@@@?$allocator@U_Container_proxy@std@@@std@@QEAA@AEBV?$allocator@UTag@Catch@@@1@@Z
	??$?0UTagInfo@Catch@@@?$allocator@U_Container_proxy@std@@@std@@QEAA@AEBV?$allocator@UTagInfo@Catch@@@1@@Z
	??$?0UToken@Detail@Clara@Catch@@@?$allocator@U_Container_proxy@std@@@std@@QEAA@AEBV?$allocator@UToken@Detail@Clara@Catch@@@1@@Z
	??$?0U_Exact_args_t@std@@$0A@@?$tuple@$$V@std@@QEAA@U_Exact_args_t@1@@Z
	??$?0U_Exact_args_t@std@@V?$basic_string@DU?$char_traits@D@std@@V?$allocator@D@2@@1@$$V$0A@@?$tuple@$$QEAV?$basic_string@DU?$char_traits@D@std@@V?$allocator@D@2@@std@@@std@@QEAA@U_Exact_args_t@1@$$QEAV?$basic_string@DU?$char_traits@D@std@@V?$allocator@D@2@@1@@Z
	??$?0U_Exact_args_t@std@@VStringRef@Catch@@$$V$0A@@?$tuple@$$QEAVStringRef@Catch@@@std@@QEAA@U_Exact_args_t@1@$$QEAVStringRef@Catch@@@Z
	??$?0U_Grp_t@?$_Tgt_state_t@PEBD@std@@@?$allocator@U_Container_proxy@std@@@std@@QEAA@AEBV?$allocator@U_Grp_t@?$_Tgt_state_t@PEBD@std@@@1@@Z
	??$?0U_Loop_vals_t@std@@@?$allocator@U_Container_proxy@std@@@std@@QEAA@AEBV?$allocator@U_Loop_vals_t@std@@@1@@Z
	??$?0V<lambda_1>@?1??_MakeVoidToUnitFunc@details@Concurrency@@YA?AV?$function@$$A6AEXZ@std@@AEBV?$function@$$A6AXXZ@5@@Z@$0A@@?$_Func_impl_no_alloc@V<lambda_1>@?1??_MakeVoidToUnitFunc@details@Concurrency@@YA?AV?$function@$$A6AEXZ@std@@AEBV?$function@$$A6AXXZ@6@@Z@E$$V@std@@QEAA@$$QEAV<lambda_1>@?1??_MakeVoidToUnitFunc@details@Concurrency@@YA?AV?$function@$$A6AEXZ@1@AEBV?$function@$$A6AXXZ@1@@Z@@Z
	??$?0V<lambda_1>@?1??_MakeVoidToUnitFunc@details@Concurrency@@YA?AV?$function@$$A6AEXZ@std@@AEBV?$function@$$A6AXXZ@5@@Z@$0A@@?$function@$$A6AEXZ@std@@QEAA@$$QEAV<lambda_1>@?1??_MakeVoidToUnitFunc@details@Concurrency@@YA?AV01@AEBV?$function@$$A6AXXZ@1@@Z@@Z
	??$?0V<lambda_1>@?4??_ScheduleContinuationTask@_Task_impl_base@details@Concurrency@@QEAAXPEAU_ContinuationTaskHandleBase@34@@Z@$0A@@?$_Func_impl_no_alloc@V<lambda_1>@?4??_ScheduleContinuationTask@_Task_impl_base@details@Concurrency@@QEAAXPEAU_ContinuationTaskHandleBase@45@@Z@X$$V@std@@QEAA@$$QEAV<lambda_1>@?4??_ScheduleContinuationTask@_Task_impl_base@details@Concurrency@@QEAAXPEAU_ContinuationTaskHandleBase@56@@Z@@Z
	??$?0V<lambda_1>@?4??_ScheduleContinuationTask@_Task_impl_base@details@Concurrency@@QEAAXPEAU_ContinuationTaskHandleBase@34@@Z@$0A@@?$function@$$A6AXXZ@std@@QEAA@$$QEAV<lambda_1>@?4??_ScheduleContinuationTask@_Task_impl_base@details@Concurrency@@QEAAXPEAU_ContinuationTaskHandleBase@56@@Z@@Z
	??$?0V<lambda_1>@?7???R0?4??_ScheduleContinuationTask@_Task_impl_base@details@Concurrency@@QEAAXPEAU_ContinuationTaskHandleBase@34@@Z@QEBA@XZ@$0A@@?$_Func_impl_no_alloc@V<lambda_1>@?7???R1?4??_ScheduleContinuationTask@_Task_impl_base@details@Concurrency@@QEAAXPEAU_ContinuationTaskHandleBase@45@@Z@QEBA@XZ@X$$V@std@@QEAA@$$QEAV<lambda_1>@?7???R2?4??_ScheduleContinuationTask@_Task_impl_base@details@Concurrency@@QEAAXPEAU_ContinuationTaskHandleBase@56@@Z@QEBA@XZ@@Z
	??$?0V<lambda_1>@?7???R0?4??_ScheduleContinuationTask@_Task_impl_base@details@Concurrency@@QEAAXPEAU_ContinuationTaskHandleBase@34@@Z@QEBA@XZ@$0A@@?$function@$$A6AXXZ@std@@QEAA@$$QEAV<lambda_1>@?7???R2?4??_ScheduleContinuationTask@_Task_impl_base@details@Concurrency@@QEAAXPEAU_ContinuationTaskHandleBase@56@@Z@QEBA@XZ@@Z
	??$?0V<lambda_1>@?CC@??_CancelAndRunContinuations@?$_Task_impl@E@details@Concurrency@@UEAA_N_N00AEBV?$shared_ptr@U_ExceptionHolder@details@Concurrency@@@std@@@Z@$0A@@?$_Func_impl_no_alloc@V<lambda_1>@?CC@??_CancelAndRunContinuations@?$_Task_impl@E@details@Concurrency@@UEAA_N_N00AEBV?$shared_ptr@U_ExceptionHolder@details@Concurrency@@@std@@@Z@X$$V@std@@QEAA@$$QEAV<lambda_1>@?CC@??_CancelAndRunContinuations@?$_Task_impl@E@details@Concurrency@@UEAA_N_N00AEBV?$shared_ptr@U_ExceptionHolder@details@Concurrency@@@1@@Z@@Z
	??$?0V<lambda_1>@?CC@??_CancelAndRunContinuations@?$_Task_impl@E@details@Concurrency@@UEAA_N_N00AEBV?$shared_ptr@U_ExceptionHolder@details@Concurrency@@@std@@@Z@$0A@@?$function@$$A6AXXZ@std@@QEAA@$$QEAV<lambda_1>@?CC@??_CancelAndRunContinuations@?$_Task_impl@E@details@Concurrency@@UEAA_N_N00AEBV?$shared_ptr@U_ExceptionHolder@details@Concurrency@@@1@@Z@@Z
	??$?0V?$_String_iterator@V?$_String_val@U?$_Simple_types@D@std@@@std@@@std@@$0A@@?$vector@DV?$allocator@D@std@@@std@@QEAA@V?$_String_iterator@V?$_String_val@U?$_Simple_types@D@std@@@std@@@1@0AEBV?$allocator@D@1@@Z
	??$?0V?$_Tree_const_iterator@V?$_Tree_val@U?$_Tree_simple_types@PEBUTestCaseInfo@Catch@@@std@@@std@@@std@@AEB_N$0A@@?$pair@V?$_Tree_const_iterator@V?$_Tree_val@U?$_Tree_simple_types@PEBUTestCaseInfo@Catch@@@std@@@std@@@std@@_N@std@@QEAA@$$QEAV?$_Tree_const_iterator@V?$_Tree_val@U?$_Tree_simple_types@PEBUTestCaseInfo@Catch@@@std@@@std@@@1@AEB_N@Z
	??$?0V?$_Tree_const_iterator@V?$_Tree_val@U?$_Tree_simple_types@PEBVTestCaseHandle@Catch@@@std@@@std@@@std@@@?$set@PEBVTestCaseHandle@Catch@@U?$less@PEBVTestCaseHandle@Catch@@@std@@V?$allocator@PEBVTestCaseHandle@Catch@@@4@@std@@QEAA@V?$_Tree_const_iterator@V?$_Tree_val@U?$_Tree_simple_types@PEBVTestCaseHandle@Catch@@@std@@@std@@@1@0@Z
	??$?0V?$_Tree_const_iterator@V?$_Tree_val@U?$_Tree_simple_types@PEBVTestCaseHandle@Catch@@@std@@@std@@@std@@AEB_N$0A@@?$pair@V?$_Tree_const_iterator@V?$_Tree_val@U?$_Tree_simple_types@PEBVTestCaseHandle@Catch@@@std@@@std@@@std@@_N@std@@QEAA@$$QEAV?$_Tree_const_iterator@V?$_Tree_val@U?$_Tree_simple_types@PEBVTestCaseHandle@Catch@@@std@@@std@@@1@AEB_N@Z
	??$?0V?$_Tree_const_iterator@V?$_Tree_val@U?$_Tree_simple_types@VStringRef@Catch@@@std@@@std@@@std@@AEB_N$0A@@?$pair@V?$_Tree_const_iterator@V?$_Tree_val@U?$_Tree_simple_types@VStringRef@Catch@@@std@@@std@@@std@@_N@std@@QEAA@$$QEAV?$_Tree_const_iterator@V?$_Tree_val@U?$_Tree_simple_types@VStringRef@Catch@@@std@@@std@@@1@AEB_N@Z
	??$?0V?$_Tree_iterator@V?$_Tree_val@U?$_Tree_simple_types@U?$pair@$$CBV?$basic_string@DU?$char_traits@D@std@@V?$allocator@D@2@@std@@UTagAlias@Catch@@@std@@@std@@@std@@@std@@AEB_N$0A@@?$pair@V?$_Tree_iterator@V?$_Tree_val@U?$_Tree_simple_types@U?$pair@$$CBV?$basic_string@DU?$char_traits@D@std@@V?$allocator@D@2@@std@@UTagAlias@Catch@@@std@@@std@@@std@@@std@@_N@std@@QEAA@$$QEAV?$_Tree_iterator@V?$_Tree_val@U?$_Tree_simple_types@U?$pair@$$CBV?$basic_string@DU?$char_traits@D@std@@V?$allocator@D@2@@std@@UTagAlias@Catch@@@std@@@std@@@std@@@1@AEB_N@Z
	??$?0V?$_Tree_iterator@V?$_Tree_val@U?$_Tree_simple_types@U?$pair@$$CBV?$basic_string@DU?$char_traits@D@std@@V?$allocator@D@2@@std@@V12@@std@@@std@@@std@@@std@@AEB_N$0A@@?$pair@V?$_Tree_iterator@V?$_Tree_val@U?$_Tree_simple_types@U?$pair@$$CBV?$basic_string@DU?$char_traits@D@std@@V?$allocator@D@2@@std@@V12@@std@@@std@@@std@@@std@@_N@std@@QEAA@$$QEAV?$_Tree_iterator@V?$_Tree_val@U?$_Tree_simple_types@U?$pair@$$CBV?$basic_string@DU?$char_traits@D@std@@V?$allocator@D@2@@std@@V12@@std@@@std@@@std@@@1@AEB_N@Z
	??$?0V?$_Tree_iterator@V?$_Tree_val@U?$_Tree_simple_types@U?$pair@$$CBV?$basic_string@DU?$char_traits@D@std@@V?$allocator@D@2@@std@@V?$unique_ptr@VIReporterFactory@Catch@@@Detail@Catch@@@std@@@std@@@std@@@std@@AEB_N$0A@@?$pair@V?$_Tree_iterator@V?$_Tree_val@U?$_Tree_simple_types@U?$pair@$$CBV?$basic_string@DU?$char_traits@D@std@@V?$allocator@D@2@@std@@V?$unique_ptr@VIReporterFactory@Catch@@@Detail@Catch@@@std@@@std@@@std@@@std@@_N@std@@QEAA@$$QEAV?$_Tree_iterator@V?$_Tree_val@U?$_Tree_simple_types@U?$pair@$$CBV?$basic_string@DU?$char_traits@D@std@@V?$allocator@D@2@@std@@V?$unique_ptr@VIReporterFactory@Catch@@@Detail@Catch@@@std@@@std@@@std@@@1@AEB_N@Z
	??$?0V?$_Tree_iterator@V?$_Tree_val@U?$_Tree_simple_types@U?$pair@$$CBVStringRef@Catch@@UTagInfo@2@@std@@@std@@@std@@@std@@AEB_N$0A@@?$pair@V?$_Tree_iterator@V?$_Tree_val@U?$_Tree_simple_types@U?$pair@$$CBVStringRef@Catch@@UTagInfo@2@@std@@@std@@@std@@@std@@_N@std@@QEAA@$$QEAV?$_Tree_iterator@V?$_Tree_val@U?$_Tree_simple_types@U?$pair@$$CBVStringRef@Catch@@UTagInfo@2@@std@@@std@@@std@@@1@AEB_N@Z
	??$?0V?$_Vector_const_iterator@V?$_Vector_val@U?$_Simple_types@N@std@@@std@@@std@@$0A@@?$vector@NV?$allocator@N@std@@@std@@QEAA@V?$_Vector_const_iterator@V?$_Vector_val@U?$_Simple_types@N@std@@@std@@@1@0AEBV?$allocator@N@1@@Z
	??$?0V?$_Vector_const_iterator@V?$_Vector_val@U?$_Simple_types@VTestCaseHandle@Catch@@@std@@@std@@@std@@$0A@@?$vector@VTestCaseHandle@Catch@@V?$allocator@VTestCaseHandle@Catch@@@std@@@std@@QEAA@V?$_Vector_const_iterator@V?$_Vector_val@U?$_Simple_types@VTestCaseHandle@Catch@@@std@@@std@@@1@0AEBV?$allocator@VTestCaseHandle@Catch@@@1@@Z
	??$?0V?$allocator@D@std@@$$V@?$_Compressed_pair@V?$allocator@D@std@@V?$_String_val@U?$_Simple_types@D@std@@@2@$00@std@@QEAA@U_One_then_variadic_args_t@1@$$QEAV?$allocator@D@1@@Z
	??$?0V?$allocator@I@std@@$$V@?$_Compressed_pair@V?$allocator@I@std@@V?$_Vector_val@U?$_Simple_types@I@std@@@2@$00@std@@QEAA@U_One_then_variadic_args_t@1@$$QEAV?$allocator@I@1@@Z
	??$?0V?$allocator@I@std@@$0A@@?$vector@IV?$allocator@I@std@@@std@@QEAA@_KAEBIAEBV?$allocator@I@1@@Z
	??$?0V?$allocator@PEAX@std@@$$V@?$_Compressed_pair@V?$allocator@PEAX@std@@V?$_Vector_val@U?$_Simple_types@PEAX@std@@@2@$00@std@@QEAA@U_One_then_variadic_args_t@1@$$QEAV?$allocator@PEAX@1@@Z
	??$?0V?$allocator@PEBVTestCaseHandle@Catch@@@std@@$$V@?$_Compressed_pair@V?$allocator@PEBVTestCaseHandle@Catch@@@std@@V?$_Vector_val@U?$_Simple_types@PEBVTestCaseHandle@Catch@@@std@@@2@$00@std@@QEAA@U_One_then_variadic_args_t@1@$$QEAV?$allocator@PEBVTestCaseHandle@Catch@@@1@@Z
	??$?0V?$allocator@PEBVTestCaseHandle@Catch@@@std@@PEAPEBVTestCaseHandle@Catch@@PEAPEBV23@PEAPEBV23@@?$_Compressed_pair@V?$allocator@PEBVTestCaseHandle@Catch@@@std@@V?$_Vector_val@U?$_Simple_types@PEBVTestCaseHandle@Catch@@@std@@@2@$00@std@@QEAA@U_One_then_variadic_args_t@1@$$QEAV?$allocator@PEBVTestCaseHandle@Catch@@@1@$$QEAPEAPEBVTestCaseHandle@Catch@@22@Z
	??$?0V?$allocator@U?$_Tree_node@PEBVTestCaseHandle@Catch@@PEAX@std@@@std@@$$V@?$_Compressed_pair@V?$allocator@U?$_Tree_node@PEBVTestCaseHandle@Catch@@PEAX@std@@@std@@V?$_Tree_val@U?$_Tree_simple_types@PEBVTestCaseHandle@Catch@@@std@@@2@$00@std@@QEAA@U_One_then_variadic_args_t@1@$$QEAV?$allocator@U?$_Tree_node@PEBVTestCaseHandle@Catch@@PEAX@std@@@1@@Z
	??$?0V?$allocator@U?$_Tree_node@PEBVTestCaseHandle@Catch@@PEAX@std@@@std@@@?$_Tree@V?$_Tset_traits@PEBVTestCaseHandle@Catch@@U?$less@PEBVTestCaseHandle@Catch@@@std@@V?$allocator@PEBVTestCaseHandle@Catch@@@4@$0A@@std@@@std@@QEAA@AEBV01@$$QEAV?$allocator@U?$_Tree_node@PEBVTestCaseHandle@Catch@@PEAX@std@@@1@@Z
	??$?0V?$allocator@U?$_Tree_node@U?$pair@$$CBV?$basic_string@DU?$char_traits@D@std@@V?$allocator@D@2@@std@@V12@@std@@PEAX@std@@@std@@$$V@?$_Compressed_pair@V?$allocator@U?$_Tree_node@U?$pair@$$CBV?$basic_string@DU?$char_traits@D@std@@V?$allocator@D@2@@std@@V12@@std@@PEAX@std@@@std@@V?$_Tree_val@U?$_Tree_simple_types@U?$pair@$$CBV?$basic_string@DU?$char_traits@D@std@@V?$allocator@D@2@@std@@V12@@std@@@std@@@2@$00@std@@QEAA@U_One_then_variadic_args_t@1@$$QEAV?$allocator@U?$_Tree_node@U?$pair@$$CBV?$basic_string@DU?$char_traits@D@std@@V?$allocator@D@2@@std@@V12@@std@@PEAX@std@@@1@@Z
	??$?0V?$allocator@U?$_Tree_node@U?$pair@$$CBV?$basic_string@DU?$char_traits@D@std@@V?$allocator@D@2@@std@@V12@@std@@PEAX@std@@@std@@@?$_Tree@V?$_Tmap_traits@V?$basic_string@DU?$char_traits@D@std@@V?$allocator@D@2@@std@@V12@U?$less@V?$basic_string@DU?$char_traits@D@std@@V?$allocator@D@2@@std@@@2@V?$allocator@U?$pair@$$CBV?$basic_string@DU?$char_traits@D@std@@V?$allocator@D@2@@std@@V12@@std@@@2@$0A@@std@@@std@@QEAA@AEBV01@$$QEAV?$allocator@U?$_Tree_node@U?$pair@$$CBV?$basic_string@DU?$char_traits@D@std@@V?$allocator@D@2@@std@@V12@@std@@PEAX@std@@@1@@Z
	??$?0V?$allocator@U?$_Tree_node@VStringRef@Catch@@PEAX@std@@@std@@$$V@?$_Compressed_pair@V?$allocator@U?$_Tree_node@VStringRef@Catch@@PEAX@std@@@std@@V?$_Tree_val@U?$_Tree_simple_types@VStringRef@Catch@@@std@@@2@$00@std@@QEAA@U_One_then_variadic_args_t@1@$$QEAV?$allocator@U?$_Tree_node@VStringRef@Catch@@PEAX@std@@@1@@Z
	??$?0V?$allocator@U?$_Tree_node@VStringRef@Catch@@PEAX@std@@@std@@@?$_Tree@V?$_Tset_traits@VStringRef@Catch@@U?$less@VStringRef@Catch@@@std@@V?$allocator@VStringRef@Catch@@@4@$0A@@std@@@std@@QEAA@AEBV01@$$QEAV?$allocator@U?$_Tree_node@VStringRef@Catch@@PEAX@std@@@1@@Z
	??$?0V?$allocator@UFilter@TestSpec@Catch@@@std@@PEAUFilter@TestSpec@Catch@@PEAU234@PEAU234@@?$_Compressed_pair@V?$allocator@UFilter@TestSpec@Catch@@@std@@V?$_Vector_val@U?$_Simple_types@UFilter@TestSpec@Catch@@@std@@@2@$00@std@@QEAA@U_One_then_variadic_args_t@1@$$QEAV?$allocator@UFilter@TestSpec@Catch@@@1@$$QEAPEAUFilter@TestSpec@Catch@@22@Z
	??$?0V?$allocator@UMessageInfo@Catch@@@std@@$$V@?$_Compressed_pair@V?$allocator@UMessageInfo@Catch@@@std@@V?$_Vector_val@U?$_Simple_types@UMessageInfo@Catch@@@std@@@2@$00@std@@QEAA@U_One_then_variadic_args_t@1@$$QEAV?$allocator@UMessageInfo@Catch@@@1@@Z
	??$?0V?$allocator@UMessageInfo@Catch@@@std@@PEAUMessageInfo@Catch@@PEAU23@PEAU23@@?$_Compressed_pair@V?$allocator@UMessageInfo@Catch@@@std@@V?$_Vector_val@U?$_Simple_types@UMessageInfo@Catch@@@std@@@2@$00@std@@QEAA@U_One_then_variadic_args_t@1@$$QEAV?$allocator@UMessageInfo@Catch@@@1@$$QEAPEAUMessageInfo@Catch@@22@Z
	??$?0V?$allocator@UToken@Detail@Clara@Catch@@@std@@$$V@?$_Compressed_pair@V?$allocator@UToken@Detail@Clara@Catch@@@std@@V?$_Vector_val@U?$_Simple_types@UToken@Detail@Clara@Catch@@@std@@@2@$00@std@@QEAA@U_One_then_variadic_args_t@1@$$QEAV?$allocator@UToken@Detail@Clara@Catch@@@1@@Z
	??$?0V?$allocator@U_Grp_t@?$_Tgt_state_t@PEBD@std@@@std@@$$V@?$_Compressed_pair@V?$allocator@U_Grp_t@?$_Tgt_state_t@PEBD@std@@@std@@V?$_Vector_val@U?$_Simple_types@U_Grp_t@?$_Tgt_state_t@PEBD@std@@@std@@@2@$00@std@@QEAA@U_One_then_variadic_args_t@1@$$QEAV?$allocator@U_Grp_t@?$_Tgt_state_t@PEBD@std@@@1@@Z
	??$?0V?$allocator@V?$basic_string@DU?$char_traits@D@std@@V?$allocator@D@2@@std@@@std@@$$V@?$_Compressed_pair@V?$allocator@V?$basic_string@DU?$char_traits@D@std@@V?$allocator@D@2@@std@@@std@@V?$_Vector_val@U?$_Simple_types@V?$basic_string@DU?$char_traits@D@std@@V?$allocator@D@2@@std@@@std@@@2@$00@std@@QEAA@U_One_then_variadic_args_t@1@$$QEAV?$allocator@V?$basic_string@DU?$char_traits@D@std@@V?$allocator@D@2@@std@@@1@@Z
	??$?0V?$allocator@V?$basic_string@DU?$char_traits@D@std@@V?$allocator@D@2@@std@@@std@@PEAV?$basic_string@DU?$char_traits@D@std@@V?$allocator@D@2@@1@PEAV21@PEAV21@@?$_Compressed_pair@V?$allocator@V?$basic_string@DU?$char_traits@D@std@@V?$allocator@D@2@@std@@@std@@V?$_Vector_val@U?$_Simple_types@V?$basic_string@DU?$char_traits@D@std@@V?$allocator@D@2@@std@@@std@@@2@$00@std@@QEAA@U_One_then_variadic_args_t@1@$$QEAV?$allocator@V?$basic_string@DU?$char_traits@D@std@@V?$allocator@D@2@@std@@@1@$$QEAPEAV?$basic_string@DU?$char_traits@D@std@@V?$allocator@D@2@@1@22@Z
	??$?0V?$allocator@V?$duration@NU?$ratio@$00$0DLJKMKAA@@std@@@chrono@std@@@std@@$$V@?$_Compressed_pair@V?$allocator@V?$duration@NU?$ratio@$00$0DLJKMKAA@@std@@@chrono@std@@@std@@V?$_Vector_val@U?$_Simple_types@V?$duration@NU?$ratio@$00$0DLJKMKAA@@std@@@chrono@std@@@std@@@2@$00@std@@QEAA@U_One_then_variadic_args_t@1@$$QEAV?$allocator@V?$duration@NU?$ratio@$00$0DLJKMKAA@@std@@@chrono@std@@@1@@Z
	??$?0V?$allocator@V?$duration@NU?$ratio@$00$0DLJKMKAA@@std@@@chrono@std@@@std@@PEAV?$duration@NU?$ratio@$00$0DLJKMKAA@@std@@@chrono@1@PEAV231@PEAV231@@?$_Compressed_pair@V?$allocator@V?$duration@NU?$ratio@$00$0DLJKMKAA@@std@@@chrono@std@@@std@@V?$_Vector_val@U?$_Simple_types@V?$duration@NU?$ratio@$00$0DLJKMKAA@@std@@@chrono@std@@@std@@@2@$00@std@@QEAA@U_One_then_variadic_args_t@1@$$QEAV?$allocator@V?$duration@NU?$ratio@$00$0DLJKMKAA@@std@@@chrono@std@@@1@$$QEAPEAV?$duration@NU?$ratio@$00$0DLJKMKAA@@std@@@chrono@1@22@Z
	??$?0V?$allocator@V?$unique_ptr@VPattern@TestSpec@Catch@@@Detail@Catch@@@std@@PEAV?$unique_ptr@VPattern@TestSpec@Catch@@@Detail@Catch@@PEAV234@PEAV234@@?$_Compressed_pair@V?$allocator@V?$unique_ptr@VPattern@TestSpec@Catch@@@Detail@Catch@@@std@@V?$_Vector_val@U?$_Simple_types@V?$unique_ptr@VPattern@TestSpec@Catch@@@Detail@Catch@@@std@@@2@$00@std@@QEAA@U_One_then_variadic_args_t@1@$$QEAV?$allocator@V?$unique_ptr@VPattern@TestSpec@Catch@@@Detail@Catch@@@1@$$QEAPEAV?$unique_ptr@VPattern@TestSpec@Catch@@@Detail@Catch@@22@Z
	??$?0V?$allocator@VArg@Clara@Catch@@@std@@$$V@?$_Compressed_pair@V?$allocator@VArg@Clara@Catch@@@std@@V?$_Vector_val@U?$_Simple_types@VArg@Clara@Catch@@@std@@@2@$00@std@@QEAA@U_One_then_variadic_args_t@1@$$QEAV?$allocator@VArg@Clara@Catch@@@1@@Z
	??$?0V?$allocator@VColumn@TextFlow@Catch@@@std@@$$V@?$_Compressed_pair@V?$allocator@VColumn@TextFlow@Catch@@@std@@V?$_Vector_val@U?$_Simple_types@VColumn@TextFlow@Catch@@@std@@@2@$00@std@@QEAA@U_One_then_variadic_args_t@1@$$QEAV?$allocator@VColumn@TextFlow@Catch@@@1@@Z
	??$?0V?$allocator@VOpt@Clara@Catch@@@std@@$$V@?$_Compressed_pair@V?$allocator@VOpt@Clara@Catch@@@std@@V?$_Vector_val@U?$_Simple_types@VOpt@Clara@Catch@@@std@@@2@$00@std@@QEAA@U_One_then_variadic_args_t@1@$$QEAV?$allocator@VOpt@Clara@Catch@@@1@@Z
	??$?0V?$allocator@VReporterSpec@Catch@@@std@@$$V@?$_Compressed_pair@V?$allocator@VReporterSpec@Catch@@@std@@V?$_Vector_val@U?$_Simple_types@VReporterSpec@Catch@@@std@@@2@$00@std@@QEAA@U_One_then_variadic_args_t@1@$$QEAV?$allocator@VReporterSpec@Catch@@@1@@Z
	??$?0V?$allocator@VTestCaseHandle@Catch@@@std@@$$V@?$_Compressed_pair@V?$allocator@VTestCaseHandle@Catch@@@std@@V?$_Vector_val@U?$_Simple_types@VTestCaseHandle@Catch@@@std@@@2@$00@std@@QEAA@U_One_then_variadic_args_t@1@$$QEAV?$allocator@VTestCaseHandle@Catch@@@1@@Z
	??$?0V?$allocator@VTestCaseHandle@Catch@@@std@@PEAVTestCaseHandle@Catch@@PEAV23@PEAV23@@?$_Compressed_pair@V?$allocator@VTestCaseHandle@Catch@@@std@@V?$_Vector_val@U?$_Simple_types@VTestCaseHandle@Catch@@@std@@@2@$00@std@@QEAA@U_One_then_variadic_args_t@1@$$QEAV?$allocator@VTestCaseHandle@Catch@@@1@$$QEAPEAVTestCaseHandle@Catch@@22@Z
	??$?0V?$allocator@Vconst_iterator@Column@TextFlow@Catch@@@std@@$$V@?$_Compressed_pair@V?$allocator@Vconst_iterator@Column@TextFlow@Catch@@@std@@V?$_Vector_val@U?$_Simple_types@Vconst_iterator@Column@TextFlow@Catch@@@std@@@2@$00@std@@QEAA@U_One_then_variadic_args_t@1@$$QEAV?$allocator@Vconst_iterator@Column@TextFlow@Catch@@@1@@Z
	??$?0V?$basic_string@DU?$char_traits@D@std@@V?$allocator@D@2@@std@@$$V$0A@@?$tuple@$$QEAV?$basic_string@DU?$char_traits@D@std@@V?$allocator@D@2@@std@@@std@@QEAA@$$QEAV?$basic_string@DU?$char_traits@D@std@@V?$allocator@D@2@@1@@Z
	??$?0V?$basic_string@DU?$char_traits@D@std@@V?$allocator@D@2@@std@@@?$_Tuple_val@$$QEAV?$basic_string@DU?$char_traits@D@std@@V?$allocator@D@2@@std@@@std@@QEAA@$$QEAV?$basic_string@DU?$char_traits@D@std@@V?$allocator@D@2@@1@@Z
	??$?0V?$basic_string@DU?$char_traits@D@std@@V?$allocator@D@2@@std@@@?$allocator@U_Container_proxy@std@@@std@@QEAA@AEBV?$allocator@V?$basic_string@DU?$char_traits@D@std@@V?$allocator@D@2@@std@@@1@@Z
	??$?0V?$basic_string@DU?$char_traits@D@std@@V?$allocator@D@2@@std@@UTagAlias@Catch@@$0A@@?$pair@$$CBV?$basic_string@DU?$char_traits@D@std@@V?$allocator@D@2@@std@@UTagAlias@Catch@@@std@@QEAA@$$QEAU?$pair@V?$basic_string@DU?$char_traits@D@std@@V?$allocator@D@2@@std@@UTagAlias@Catch@@@1@@Z
	??$?0V?$basic_string@DU?$char_traits@D@std@@V?$allocator@D@2@@std@@V01@$0A@@?$pair@$$CBV?$basic_string@DU?$char_traits@D@std@@V?$allocator@D@2@@std@@V12@@std@@QEAA@$$QEAV?$basic_string@DU?$char_traits@D@std@@V?$allocator@D@2@@1@0@Z
	??$?0V?$basic_string@DU?$char_traits@D@std@@V?$allocator@D@2@@std@@V01@@?$_Tree_temp_node@V?$allocator@U?$_Tree_node@U?$pair@$$CBV?$basic_string@DU?$char_traits@D@std@@V?$allocator@D@2@@std@@V12@@std@@PEAX@std@@@std@@@std@@QEAA@AEAV?$allocator@U?$_Tree_node@U?$pair@$$CBV?$basic_string@DU?$char_traits@D@std@@V?$allocator@D@2@@std@@V12@@std@@PEAX@std@@@1@PEAU?$_Tree_node@U?$pair@$$CBV?$basic_string@DU?$char_traits@D@std@@V?$allocator@D@2@@std@@V12@@std@@PEAX@1@$$QEAV?$basic_string@DU?$char_traits@D@std@@V?$allocator@D@2@@1@2@Z
	??$?0V?$basic_string@DU?$char_traits@D@std@@V?$allocator@D@2@@std@@X@?$ParserRefImpl@VOpt@Clara@Catch@@@Detail@Clara@Catch@@QEAA@AEAV?$basic_string@DU?$char_traits@D@std@@V?$allocator@D@2@@std@@AEBV45@@Z
	??$?0V?$basic_string@DU?$char_traits@D@std@@V?$allocator@D@2@@std@@X@Opt@Clara@Catch@@QEAA@AEAV?$basic_string@DU?$char_traits@D@std@@V?$allocator@D@2@@std@@AEBV34@@Z
	??$?0V?$basic_string_view@_WU?$char_traits@_W@std@@@std@@$0A@@?$basic_string@_WU?$char_traits@_W@std@@V?$allocator@_W@2@@std@@QEAA@AEBV?$basic_string_view@_WU?$char_traits@_W@std@@@1@AEBV?$allocator@_W@1@@Z
	??$?0V?$duration@NU?$ratio@$00$0DLJKMKAA@@std@@@chrono@std@@@?$allocator@U_Container_proxy@std@@@std@@QEAA@AEBV?$allocator@V?$duration@NU?$ratio@$00$0DLJKMKAA@@std@@@chrono@std@@@1@@Z
	??$?0V?$tuple@$$QEAV?$basic_string@DU?$char_traits@D@std@@V?$allocator@D@2@@std@@@std@@V?$tuple@$$V@1@$0A@$$Z$S@?$pair@$$CBV?$basic_string@DU?$char_traits@D@std@@V?$allocator@D@2@@std@@V?$unique_ptr@VIReporterFactory@Catch@@@Detail@Catch@@@std@@QEAA@AEAV?$tuple@$$QEAV?$basic_string@DU?$char_traits@D@std@@V?$allocator@D@2@@std@@@1@AEAV?$tuple@$$V@1@U?$integer_sequence@_K$0A@@1@U?$integer_sequence@_K$S@1@@Z
	??$?0V?$tuple@$$QEAVStringRef@Catch@@@std@@V?$tuple@$$V@1@$0A@$$Z$S@?$pair@$$CBVStringRef@Catch@@V?$vector@PEBU?$Node@UTestCaseStats@Catch@@USectionNode@CumulativeReporterBase@2@@CumulativeReporterBase@Catch@@V?$allocator@PEBU?$Node@UTestCaseStats@Catch@@USectionNode@CumulativeReporterBase@2@@CumulativeReporterBase@Catch@@@std@@@std@@@std@@QEAA@AEAV?$tuple@$$QEAVStringRef@Catch@@@1@AEAV?$tuple@$$V@1@U?$integer_sequence@_K$0A@@1@U?$integer_sequence@_K$S@1@@Z
	??$?0V?$unique_ptr@$$CBVIExceptionTranslator@Catch@@@Detail@Catch@@@?$allocator@U_Container_proxy@std@@@std@@QEAA@AEBV?$allocator@V?$unique_ptr@$$CBVIExceptionTranslator@Catch@@@Detail@Catch@@@1@@Z
	??$?0V?$unique_ptr@U?$Node@UTestCaseStats@Catch@@USectionNode@CumulativeReporterBase@2@@CumulativeReporterBase@Catch@@@Detail@Catch@@@?$allocator@U_Container_proxy@std@@@std@@QEAA@AEBV?$allocator@V?$unique_ptr@U?$Node@UTestCaseStats@Catch@@USectionNode@CumulativeReporterBase@2@@CumulativeReporterBase@Catch@@@Detail@Catch@@@1@@Z
	??$?0V?$unique_ptr@UEnumInfo@Detail@Catch@@@Detail@Catch@@@?$allocator@U_Container_proxy@std@@@std@@QEAA@AEBV?$allocator@V?$unique_ptr@UEnumInfo@Detail@Catch@@@Detail@Catch@@@1@@Z
	??$?0V?$unique_ptr@USectionNode@CumulativeReporterBase@Catch@@@Detail@Catch@@@?$allocator@U_Container_proxy@std@@@std@@QEAA@AEBV?$allocator@V?$unique_ptr@USectionNode@CumulativeReporterBase@Catch@@@Detail@Catch@@@1@@Z
	??$?0V?$unique_ptr@UTestCaseInfo@Catch@@@Detail@Catch@@@?$allocator@U_Container_proxy@std@@@std@@QEAA@AEBV?$allocator@V?$unique_ptr@UTestCaseInfo@Catch@@@Detail@Catch@@@1@@Z
	??$?0V?$unique_ptr@V?$basic_ostringstream@DU?$char_traits@D@std@@V?$allocator@D@2@@std@@@Detail@Catch@@@?$allocator@U_Container_proxy@std@@@std@@QEAA@AEBV?$allocator@V?$unique_ptr@V?$basic_ostringstream@DU?$char_traits@D@std@@V?$allocator@D@2@@std@@@Detail@Catch@@@1@@Z
	??$?0V?$unique_ptr@VEventListenerFactory@Catch@@@Detail@Catch@@@?$allocator@U_Container_proxy@std@@@std@@QEAA@AEBV?$allocator@V?$unique_ptr@VEventListenerFactory@Catch@@@Detail@Catch@@@1@@Z
	??$?0V?$unique_ptr@VIEventListener@Catch@@@Detail@Catch@@@?$_Alloc_temporary2@V?$allocator@V?$unique_ptr@VIEventListener@Catch@@@Detail@Catch@@@std@@@std@@QEAA@AEAV?$allocator@V?$unique_ptr@VIEventListener@Catch@@@Detail@Catch@@@1@$$QEAV?$unique_ptr@VIEventListener@Catch@@@Detail@Catch@@@Z
	??$?0V?$unique_ptr@VIEventListener@Catch@@@Detail@Catch@@@?$allocator@U_Container_proxy@std@@@std@@QEAA@AEBV?$allocator@V?$unique_ptr@VIEventListener@Catch@@@Detail@Catch@@@1@@Z
	??$?0V?$unique_ptr@VITestInvoker@Catch@@@Detail@Catch@@@?$allocator@U_Container_proxy@std@@@std@@QEAA@AEBV?$allocator@V?$unique_ptr@VITestInvoker@Catch@@@Detail@Catch@@@1@@Z
	??$?0V?$unique_ptr@VITracker@TestCaseTracking@Catch@@@Detail@Catch@@@?$allocator@U_Container_proxy@std@@@std@@QEAA@AEBV?$allocator@V?$unique_ptr@VITracker@TestCaseTracking@Catch@@@Detail@Catch@@@1@@Z
	??$?0V?$unique_ptr@VPattern@TestSpec@Catch@@@Detail@Catch@@@?$allocator@U_Container_proxy@std@@@std@@QEAA@AEBV?$allocator@V?$unique_ptr@VPattern@TestSpec@Catch@@@Detail@Catch@@@1@@Z
	??$?0V?$vector@V?$basic_string@DU?$char_traits@D@std@@V?$allocator@D@2@@std@@V?$allocator@V?$basic_string@DU?$char_traits@D@std@@V?$allocator@D@2@@std@@@2@@std@@X@?$ParserRefImpl@VArg@Clara@Catch@@@Detail@Clara@Catch@@QEAA@AEAV?$vector@V?$basic_string@DU?$char_traits@D@std@@V?$allocator@D@2@@std@@V?$allocator@V?$basic_string@DU?$char_traits@D@std@@V?$allocator@D@2@@std@@@2@@std@@AEBV?$basic_string@DU?$char_traits@D@std@@V?$allocator@D@2@@5@@Z
	??$?0V?$vector@V?$basic_string@DU?$char_traits@D@std@@V?$allocator@D@2@@std@@V?$allocator@V?$basic_string@DU?$char_traits@D@std@@V?$allocator@D@2@@std@@@2@@std@@X@?$ParserRefImpl@VOpt@Clara@Catch@@@Detail@Clara@Catch@@QEAA@AEAV?$vector@V?$basic_string@DU?$char_traits@D@std@@V?$allocator@D@2@@std@@V?$allocator@V?$basic_string@DU?$char_traits@D@std@@V?$allocator@D@2@@std@@@2@@std@@AEBV?$basic_string@DU?$char_traits@D@std@@V?$allocator@D@2@@5@@Z
	??$?0V?$vector@V?$basic_string@DU?$char_traits@D@std@@V?$allocator@D@2@@std@@V?$allocator@V?$basic_string@DU?$char_traits@D@std@@V?$allocator@D@2@@std@@@2@@std@@X@Arg@Clara@Catch@@QEAA@AEAV?$vector@V?$basic_string@DU?$char_traits@D@std@@V?$allocator@D@2@@std@@V?$allocator@V?$basic_string@DU?$char_traits@D@std@@V?$allocator@D@2@@std@@@2@@std@@AEBV?$basic_string@DU?$char_traits@D@std@@V?$allocator@D@2@@4@@Z
	??$?0V?$vector@V?$basic_string@DU?$char_traits@D@std@@V?$allocator@D@2@@std@@V?$allocator@V?$basic_string@DU?$char_traits@D@std@@V?$allocator@D@2@@std@@@2@@std@@X@Opt@Clara@Catch@@QEAA@AEAV?$vector@V?$basic_string@DU?$char_traits@D@std@@V?$allocator@D@2@@std@@V?$allocator@V?$basic_string@DU?$char_traits@D@std@@V?$allocator@D@2@@std@@@2@@std@@AEBV?$basic_string@DU?$char_traits@D@std@@V?$allocator@D@2@@4@@Z
	??$?0VArg@Clara@Catch@@@?$allocator@U_Container_proxy@std@@@std@@QEAA@AEBV?$allocator@VArg@Clara@Catch@@@1@@Z
	??$?0VAssertionOrBenchmarkResult@Detail@Catch@@@?$allocator@U_Container_proxy@std@@@std@@QEAA@AEBV?$allocator@VAssertionOrBenchmarkResult@Detail@Catch@@@1@@Z
	??$?0VAutomakeReporter@Catch@@X@?$unique_ptr@VIEventListener@Catch@@@Detail@Catch@@QEAA@$$QEAV?$unique_ptr@VAutomakeReporter@Catch@@@12@@Z
	??$?0VColumn@TextFlow@Catch@@@?$allocator@U_Container_proxy@std@@@std@@QEAA@AEBV?$allocator@VColumn@TextFlow@Catch@@@1@@Z
	??$?0VCompactReporter@Catch@@X@?$unique_ptr@VIEventListener@Catch@@@Detail@Catch@@QEAA@$$QEAV?$unique_ptr@VCompactReporter@Catch@@@12@@Z
	??$?0VConsoleReporter@Catch@@X@?$unique_ptr@VIEventListener@Catch@@@Detail@Catch@@QEAA@$$QEAV?$unique_ptr@VConsoleReporter@Catch@@@12@@Z
	??$?0VIExceptionTranslator@Catch@@X@?$unique_ptr@$$CBVIExceptionTranslator@Catch@@@Detail@Catch@@QEAA@$$QEAV?$unique_ptr@VIExceptionTranslator@Catch@@@12@@Z
	??$?0VJunitReporter@Catch@@X@?$unique_ptr@VIEventListener@Catch@@@Detail@Catch@@QEAA@$$QEAV?$unique_ptr@VJunitReporter@Catch@@@12@@Z
	??$?0VMultiReporter@Catch@@X@?$unique_ptr@VIEventListener@Catch@@@Detail@Catch@@QEAA@$$QEAV?$unique_ptr@VMultiReporter@Catch@@@12@@Z
	??$?0VNamePattern@TestSpec@Catch@@X@?$unique_ptr@VPattern@TestSpec@Catch@@@Detail@Catch@@QEAA@$$QEAV?$unique_ptr@VNamePattern@TestSpec@Catch@@@12@@Z
	??$?0VOpt@Clara@Catch@@@?$allocator@U_Container_proxy@std@@@std@@QEAA@AEBV?$allocator@VOpt@Clara@Catch@@@1@@Z
	??$?0VReporterSpec@Catch@@@?$allocator@U_Container_proxy@std@@@std@@QEAA@AEBV?$allocator@VReporterSpec@Catch@@@1@@Z
	??$?0VScopedMessage@Catch@@@?$allocator@U_Container_proxy@std@@@std@@QEAA@AEBV?$allocator@VScopedMessage@Catch@@@1@@Z
	??$?0VSectionTracker@TestCaseTracking@Catch@@X@?$unique_ptr@VITracker@TestCaseTracking@Catch@@@Detail@Catch@@QEAA@$$QEAV?$unique_ptr@VSectionTracker@TestCaseTracking@Catch@@@12@@Z
	??$?0VSonarQubeReporter@Catch@@X@?$unique_ptr@VIEventListener@Catch@@@Detail@Catch@@QEAA@$$QEAV?$unique_ptr@VSonarQubeReporter@Catch@@@12@@Z
	??$?0VStringRef@Catch@@$$V$0A@@?$tuple@$$QEAVStringRef@Catch@@@std@@QEAA@$$QEAVStringRef@Catch@@@Z
	??$?0VStringRef@Catch@@@?$_Tuple_val@$$QEAVStringRef@Catch@@@std@@QEAA@$$QEAVStringRef@Catch@@@Z
	??$?0VStringRef@Catch@@@?$allocator@U_Container_proxy@std@@@std@@QEAA@AEBV?$allocator@VStringRef@Catch@@@1@@Z
	??$?0VStringRef@Catch@@UTagInfo@1@$0A@@?$pair@$$CBVStringRef@Catch@@UTagInfo@2@@std@@QEAA@$$QEAU?$pair@VStringRef@Catch@@UTagInfo@2@@1@@Z
	??$?0VTAPReporter@Catch@@X@?$unique_ptr@VIEventListener@Catch@@@Detail@Catch@@QEAA@$$QEAV?$unique_ptr@VTAPReporter@Catch@@@12@@Z
	??$?0VTagPattern@TestSpec@Catch@@X@?$unique_ptr@VPattern@TestSpec@Catch@@@Detail@Catch@@QEAA@$$QEAV?$unique_ptr@VTagPattern@TestSpec@Catch@@@12@@Z
	??$?0VTeamCityReporter@Catch@@X@?$unique_ptr@VIEventListener@Catch@@@Detail@Catch@@QEAA@$$QEAV?$unique_ptr@VTeamCityReporter@Catch@@@12@@Z
	??$?0VTestCaseHandle@Catch@@@?$allocator@U_Container_proxy@std@@@std@@QEAA@AEBV?$allocator@VTestCaseHandle@Catch@@@1@@Z
	??$?0VXmlReporter@Catch@@X@?$unique_ptr@VIEventListener@Catch@@@Detail@Catch@@QEAA@$$QEAV?$unique_ptr@VXmlReporter@Catch@@@12@@Z
	??$?0Vconst_iterator@Column@TextFlow@Catch@@@?$allocator@U_Container_proxy@std@@@std@@QEAA@AEBV?$allocator@Vconst_iterator@Column@TextFlow@Catch@@@1@@Z
	??$?0Vexception_ptr@std@@@?$allocator@U_Container_proxy@std@@@std@@QEAA@AEBV?$allocator@Vexception_ptr@std@@@1@@Z
	??$?0W4ParseResultType@Clara@Catch@@@?$BasicResult@VParseState@Detail@Clara@Catch@@@Detail@Clara@Catch@@QEAA@AEBV?$BasicResult@W4ParseResultType@Clara@Catch@@@123@@Z
	??$?0X@?$BasicResult@VParseState@Detail@Clara@Catch@@@Detail@Clara@Catch@@QEAA@AEBV?$BasicResult@X@123@@Z
	??$?0_J$0A@@?$duration@_JU?$ratio@$00$0DLJKMKAA@@std@@@chrono@std@@QEAA@AEB_J@Z
	??$?0_J$0A@@?$duration@_JU?$ratio@$00$0DOI@@std@@@chrono@std@@QEAA@AEB_J@Z
	??$?0_JX@?$ParserRefImpl@VOpt@Clara@Catch@@@Detail@Clara@Catch@@QEAA@AEA_JAEBV?$basic_string@DU?$char_traits@D@std@@V?$allocator@D@2@@std@@@Z
	??$?0_JX@Opt@Clara@Catch@@QEAA@AEA_JAEBV?$basic_string@DU?$char_traits@D@std@@V?$allocator@D@2@@std@@@Z
	??$?0_K@?$allocator@U_Container_proxy@std@@@std@@QEAA@AEBV?$allocator@_K@1@@Z
	??$?0_KX@Approx@Catch@@QEAA@AEB_K@Z
	??$?0_N@?$allocator@I@std@@QEAA@AEBV?$allocator@_N@1@@Z
	??$?0_W@?$allocator@U_Container_proxy@std@@@std@@QEAA@AEBV?$allocator@_W@1@@Z
	??$?4U?$BoundValueRef@V?$basic_string@DU?$char_traits@D@std@@V?$allocator@D@2@@std@@@Detail@Clara@Catch@@$0A@@?$shared_ptr@UBoundValueRefBase@Detail@Clara@Catch@@@std@@QEAAAEAV01@$$QEAV?$shared_ptr@U?$BoundValueRef@V?$basic_string@DU?$char_traits@D@std@@V?$allocator@D@2@@std@@@Detail@Clara@Catch@@@1@@Z
	??$?4U?$pair@_KVTestCaseHandle@Catch@@@std@@$0A@@?$pair@_KVTestCaseHandle@Catch@@@std@@QEAAAEAU01@$$QEAU01@@Z
	??$?4V?$ReporterFactory@VAutomakeReporter@Catch@@@Catch@@X@?$unique_ptr@VIReporterFactory@Catch@@@Detail@Catch@@QEAAAEAV012@$$QEAV?$unique_ptr@V?$ReporterFactory@VAutomakeReporter@Catch@@@Catch@@@12@@Z
	??$?4V?$ReporterFactory@VCompactReporter@Catch@@@Catch@@X@?$unique_ptr@VIReporterFactory@Catch@@@Detail@Catch@@QEAAAEAV012@$$QEAV?$unique_ptr@V?$ReporterFactory@VCompactReporter@Catch@@@Catch@@@12@@Z
	??$?4V?$ReporterFactory@VConsoleReporter@Catch@@@Catch@@X@?$unique_ptr@VIReporterFactory@Catch@@@Detail@Catch@@QEAAAEAV012@$$QEAV?$unique_ptr@V?$ReporterFactory@VConsoleReporter@Catch@@@Catch@@@12@@Z
	??$?4V?$ReporterFactory@VJunitReporter@Catch@@@Catch@@X@?$unique_ptr@VIReporterFactory@Catch@@@Detail@Catch@@QEAAAEAV012@$$QEAV?$unique_ptr@V?$ReporterFactory@VJunitReporter@Catch@@@Catch@@@12@@Z
	??$?4V?$ReporterFactory@VSonarQubeReporter@Catch@@@Catch@@X@?$unique_ptr@VIReporterFactory@Catch@@@Detail@Catch@@QEAAAEAV012@$$QEAV?$unique_ptr@V?$ReporterFactory@VSonarQubeReporter@Catch@@@Catch@@@12@@Z
	??$?4V?$ReporterFactory@VTAPReporter@Catch@@@Catch@@X@?$unique_ptr@VIReporterFactory@Catch@@@Detail@Catch@@QEAAAEAV012@$$QEAV?$unique_ptr@V?$ReporterFactory@VTAPReporter@Catch@@@Catch@@@12@@Z
	??$?4V?$ReporterFactory@VTeamCityReporter@Catch@@@Catch@@X@?$unique_ptr@VIReporterFactory@Catch@@@Detail@Catch@@QEAAAEAV012@$$QEAV?$unique_ptr@V?$ReporterFactory@VTeamCityReporter@Catch@@@Catch@@@12@@Z
	??$?4V?$ReporterFactory@VXmlReporter@Catch@@@Catch@@X@?$unique_ptr@VIReporterFactory@Catch@@@Detail@Catch@@QEAAAEAV012@$$QEAV?$unique_ptr@V?$ReporterFactory@VXmlReporter@Catch@@@Catch@@@12@@Z
	??$?4VSectionTracker@TestCaseTracking@Catch@@X@?$unique_ptr@VITracker@TestCaseTracking@Catch@@@Detail@Catch@@QEAAAEAV012@$$QEAV?$unique_ptr@VSectionTracker@TestCaseTracking@Catch@@@12@@Z
	??$?6$$A6AAEAVios_base@std@@AEAV01@@Z@ReusableStringStream@Catch@@QEAAAEAV01@A6AAEAVios_base@std@@AEAV23@@Z@Z
	??$?6$$BY01D@ReusableStringStream@Catch@@QEAAAEAV01@AEAY01$$CBD@Z
	??$?6$$BY02D@ReusableStringStream@Catch@@QEAAAEAV01@AEAY02$$CBD@Z
	??$?6$$BY03D@ReusableStringStream@Catch@@QEAAAEAV01@AEAY03$$CBD@Z
	??$?6$$BY04D@ReusableStringStream@Catch@@QEAAAEAV01@AEAY04$$CBD@Z
	??$?6$$BY05D@ReusableStringStream@Catch@@QEAAAEAV01@AEAY05$$CBD@Z
	??$?6$$BY06D@ReusableStringStream@Catch@@QEAAAEAV01@AEAY06$$CBD@Z
	??$?6$$BY08D@ReusableStringStream@Catch@@QEAAAEAV01@AEAY08$$CBD@Z
	??$?6$$BY09D@ReusableStringStream@Catch@@QEAAAEAV01@AEAY09$$CBD@Z
	??$?6$$BY0BA@D@ReusableStringStream@Catch@@QEAAAEAV01@AEAY0BA@$$CBD@Z
	??$?6$$BY0BB@D@ReusableStringStream@Catch@@QEAAAEAV01@AEAY0BB@$$CBD@Z
	??$?6$$BY0BC@D@ReusableStringStream@Catch@@QEAAAEAV01@AEAY0BC@$$CBD@Z
	??$?6$$BY0BD@D@Catch@@YAAEAVTablePrinter@0@AEAV10@AEAY0BD@$$CBD@Z
	??$?6$$BY0BD@D@ReusableStringStream@Catch@@QEAAAEAV01@AEAY0BD@$$CBD@Z
	??$?6$$BY0BE@D@ReusableStringStream@Catch@@QEAAAEAV01@AEAY0BE@$$CBD@Z
	??$?6$$BY0BF@D@ReusableStringStream@Catch@@QEAAAEAV01@AEAY0BF@$$CBD@Z
	??$?6$$BY0BG@D@ReusableStringStream@Catch@@QEAAAEAV01@AEAY0BG@$$CBD@Z
	??$?6$$BY0BH@D@ReusableStringStream@Catch@@QEAAAEAV01@AEAY0BH@$$CBD@Z
	??$?6$$BY0BJ@D@ReusableStringStream@Catch@@QEAAAEAV01@AEAY0BJ@$$CBD@Z
	??$?6$$BY0BK@D@ReusableStringStream@Catch@@QEAAAEAV01@AEAY0BK@$$CBD@Z
	??$?6$$BY0BL@D@ReusableStringStream@Catch@@QEAAAEAV01@AEAY0BL@$$CBD@Z
	??$?6$$BY0CA@D@ReusableStringStream@Catch@@QEAAAEAV01@AEAY0CA@$$CBD@Z
	??$?6$$BY0CE@D@ReusableStringStream@Catch@@QEAAAEAV01@AEAY0CE@$$CBD@Z
	??$?6$$BY0CF@D@ReusableStringStream@Catch@@QEAAAEAV01@AEAY0CF@$$CBD@Z
	??$?6$$BY0CH@D@ReusableStringStream@Catch@@QEAAAEAV01@AEAY0CH@$$CBD@Z
	??$?6$$BY0CI@D@ReusableStringStream@Catch@@QEAAAEAV01@AEAY0CI@$$CBD@Z
	??$?6$$BY0CM@D@ReusableStringStream@Catch@@QEAAAEAV01@AEAY0CM@$$CBD@Z
	??$?6$$BY0CP@D@ReusableStringStream@Catch@@QEAAAEAV01@AEAY0CP@$$CBD@Z
	??$?6$$BY0DB@D@ReusableStringStream@Catch@@QEAAAEAV01@AEAY0DB@$$CBD@Z
	??$?6$$BY0DC@D@ReusableStringStream@Catch@@QEAAAEAV01@AEAY0DC@$$CBD@Z
	??$?6$$BY0DE@D@ReusableStringStream@Catch@@QEAAAEAV01@AEAY0DE@$$CBD@Z
	??$?6$$BY0DF@D@ReusableStringStream@Catch@@QEAAAEAV01@AEAY0DF@$$CBD@Z
	??$?6$$BY0DJ@D@ReusableStringStream@Catch@@QEAAAEAV01@AEAY0DJ@$$CBD@Z
	??$?6$$BY0DL@D@ReusableStringStream@Catch@@QEAAAEAV01@AEAY0DL@$$CBD@Z
	??$?6$$BY0EB@D@ReusableStringStream@Catch@@QEAAAEAV01@AEAY0EB@$$CBD@Z
	??$?6$$BY0EC@D@ReusableStringStream@Catch@@QEAAAEAV01@AEAY0EC@$$CBD@Z
	??$?6$$BY0GB@D@ReusableStringStream@Catch@@QEAAAEAV01@AEAY0GB@$$CBD@Z
	??$?6$$BY0M@D@ReusableStringStream@Catch@@QEAAAEAV01@AEAY0M@$$CBD@Z
	??$?6$$BY0N@D@ReusableStringStream@Catch@@QEAAAEAV01@AEAY0N@$$CBD@Z
	??$?6$$BY0O@D@ReusableStringStream@Catch@@QEAAAEAV01@AEAY0O@$$CBD@Z
	??$?6$$BY0P@D@ReusableStringStream@Catch@@QEAAAEAV01@AEAY0P@$$CBD@Z
	??$?6D@Catch@@YAAEAVTablePrinter@0@AEAV10@AEBD@Z
	??$?6D@ReusableStringStream@Catch@@QEAAAEAV01@AEBD@Z
	??$?6DU?$char_traits@D@std@@@std@@YAAEAV?$basic_ostream@DU?$char_traits@D@std@@@0@AEAV10@AEBU?$_Fillobj@D@0@@Z
	??$?6DU?$char_traits@D@std@@@std@@YAAEAV?$basic_ostream@DU?$char_traits@D@std@@@0@AEAV10@AEBU?$_Smanip@_J@0@@Z
	??$?6DU?$char_traits@D@std@@V?$allocator@D@1@@std@@YAAEAV?$basic_ostream@DU?$char_traits@D@std@@@0@AEAV10@AEBV?$basic_string@DU?$char_traits@D@std@@V?$allocator@D@2@@0@@Z
	??$?6H@Catch@@YAAEAVTablePrinter@0@AEAV10@AEBH@Z
	??$?6H@ReusableStringStream@Catch@@QEAAAEAV01@AEBH@Z
	??$?6I@Catch@@YAAEAVTablePrinter@0@AEAV10@AEBI@Z
	??$?6I@ReusableStringStream@Catch@@QEAAAEAV01@AEBI@Z
	??$?6J@ReusableStringStream@Catch@@QEAAAEAV01@AEBJ@Z
	??$?6M@ReusableStringStream@Catch@@QEAAAEAV01@AEBM@Z
	??$?6N@ReusableStringStream@Catch@@QEAAAEAV01@AEBN@Z
	??$?6U?$_Fillobj@D@std@@@ReusableStringStream@Catch@@QEAAAEAV01@AEBU?$_Fillobj@D@std@@@Z
	??$?6U?$_Smanip@_J@std@@@ReusableStringStream@Catch@@QEAAAEAV01@AEBU?$_Smanip@_J@std@@@Z
	??$?6U?$char_traits@D@std@@@std@@YAAEAV?$basic_ostream@DU?$char_traits@D@std@@@0@AEAV10@D@Z
	??$?6U?$char_traits@D@std@@@std@@YAAEAV?$basic_ostream@DU?$char_traits@D@std@@@0@AEAV10@E@Z
	??$?6U?$char_traits@D@std@@@std@@YAAEAV?$basic_ostream@DU?$char_traits@D@std@@@0@AEAV10@PEBD@Z
	??$?6UFilter@TestSpec@Catch@@@ReusableStringStream@Catch@@QEAAAEAV01@AEBUFilter@TestSpec@1@@Z
	??$?6USourceLineInfo@Catch@@@ReusableStringStream@Catch@@QEAAAEAV01@AEBUSourceLineInfo@1@@Z
	??$?6UVersion@Catch@@@ReusableStringStream@Catch@@QEAAAEAV01@AEBUVersion@1@@Z
	??$?6V?$basic_string@DU?$char_traits@D@std@@V?$allocator@D@2@@std@@@Catch@@YAAEAVTablePrinter@0@AEAV10@AEBV?$basic_string@DU?$char_traits@D@std@@V?$allocator@D@2@@std@@@Z
	??$?6V?$basic_string@DU?$char_traits@D@std@@V?$allocator@D@2@@std@@@ReusableStringStream@Catch@@QEAAAEAV01@AEBV?$basic_string@DU?$char_traits@D@std@@V?$allocator@D@2@@std@@@Z
	??$?6VColumn@TextFlow@Catch@@@ReusableStringStream@Catch@@QEAAAEAV01@AEBVColumn@TextFlow@1@@Z
	??$?6VLazyExpression@Catch@@@ReusableStringStream@Catch@@QEAAAEAV01@AEBVLazyExpression@1@@Z
	??$?6VStringRef@Catch@@@Catch@@YAAEAVTablePrinter@0@AEAV10@AEBVStringRef@0@@Z
	??$?6VStringRef@Catch@@@ReusableStringStream@Catch@@QEAAAEAV01@AEBVStringRef@1@@Z
	??$?6VTestSpec@Catch@@@ReusableStringStream@Catch@@QEAAAEAV01@AEBVTestSpec@1@@Z
	??$?6W4CycleState@ITracker@TestCaseTracking@Catch@@@ReusableStringStream@Catch@@QEAAAEAV01@AEBW4CycleState@ITracker@TestCaseTracking@1@@Z
	??$?6_J@ReusableStringStream@Catch@@QEAAAEAV01@AEB_J@Z
	??$?6_K@ReusableStringStream@Catch@@QEAAAEAV01@AEB_K@Z
	??$?8$$CBV?$basic_string@DU?$char_traits@D@std@@V?$allocator@D@2@@std@@V01@$$CBV01@V01@@std@@YA_NAEBU?$pair@$$CBV?$basic_string@DU?$char_traits@D@std@@V?$allocator@D@2@@std@@V12@@0@0@Z
	??$?8DU?$char_traits@D@std@@V?$allocator@D@1@@std@@YA_NAEBV?$basic_string@DU?$char_traits@D@std@@V?$allocator@D@2@@0@0@Z
	??$?8DU?$char_traits@D@std@@V?$allocator@D@1@@std@@YA_NAEBV?$basic_string@DU?$char_traits@D@std@@V?$allocator@D@2@@0@QEBD@Z
	??$?8DU?$char_traits@D@std@@V?$allocator@D@1@@std@@YA_NQEBDAEBV?$basic_string@DU?$char_traits@D@std@@V?$allocator@D@2@@0@@Z
	??$?8V?$basic_string@DU?$char_traits@D@std@@V?$allocator@D@2@@std@@V01@U?$less@V?$basic_string@DU?$char_traits@D@std@@V?$allocator@D@2@@std@@@1@V?$allocator@U?$pair@$$CBV?$basic_string@DU?$char_traits@D@std@@V?$allocator@D@2@@std@@V12@@std@@@1@@std@@YA_NAEBV?$map@V?$basic_string@DU?$char_traits@D@std@@V?$allocator@D@2@@std@@V12@U?$less@V?$basic_string@DU?$char_traits@D@std@@V?$allocator@D@2@@std@@@2@V?$allocator@U?$pair@$$CBV?$basic_string@DU?$char_traits@D@std@@V?$allocator@D@2@@std@@V12@@std@@@2@@0@0@Z
	??$?8V?$unique_ptr@U?$Node@UTestCaseStats@Catch@@USectionNode@CumulativeReporterBase@2@@CumulativeReporterBase@Catch@@@Detail@Catch@@V012@@std@@YA_NAEBV?$allocator@V?$unique_ptr@U?$Node@UTestCaseStats@Catch@@USectionNode@CumulativeReporterBase@2@@CumulativeReporterBase@Catch@@@Detail@Catch@@@0@0@Z
	??$?8Vconst_iterator@Column@TextFlow@Catch@@V?$allocator@Vconst_iterator@Column@TextFlow@Catch@@@std@@@std@@YA_NAEBV?$vector@Vconst_iterator@Column@TextFlow@Catch@@V?$allocator@Vconst_iterator@Column@TextFlow@Catch@@@std@@@0@0@Z
	??$?9DU?$char_traits@D@std@@V?$allocator@D@1@@std@@YA_NAEBV?$basic_string@DU?$char_traits@D@std@@V?$allocator@D@2@@0@0@Z
	??$?9DU?$char_traits@D@std@@V?$allocator@D@1@@std@@YA_NAEBV?$basic_string@DU?$char_traits@D@std@@V?$allocator@D@2@@0@QEBD@Z
	??$?9PEBDPEBD@std@@YA_NAEBV?$reverse_iterator@PEBD@0@0@Z
	??$?9U_Task_impl_base@details@Concurrency@@@std@@YA_NAEBV?$shared_ptr@U_Task_impl_base@details@Concurrency@@@0@$$T@Z
	??$?9V?$_Vector_iterator@V?$_Vector_val@U?$_Simple_types@USectionEndInfo@Catch@@@std@@@std@@@std@@V01@@std@@YA_NAEBV?$reverse_iterator@V?$_Vector_iterator@V?$_Vector_val@U?$_Simple_types@USectionEndInfo@Catch@@@std@@@std@@@std@@@0@0@Z
	??$?9Vconst_iterator@Column@TextFlow@Catch@@V?$allocator@Vconst_iterator@Column@TextFlow@Catch@@@std@@@std@@YA_NAEBV?$vector@Vconst_iterator@Column@TextFlow@Catch@@V?$allocator@Vconst_iterator@Column@TextFlow@Catch@@@std@@@0@0@Z
	??$?B_K$0A@@_Base128@std@@QEBA_KXZ
	??$?CU?$_Task_impl@E@details@Concurrency@@$0A@@?$shared_ptr@U?$_Task_impl@E@details@Concurrency@@@std@@QEBAPEAU?$_Task_impl@E@details@Concurrency@@XZ
	??$?CUBoundRef@Detail@Clara@Catch@@$0A@@?$shared_ptr@UBoundRef@Detail@Clara@Catch@@@std@@QEBAPEAUBoundRef@Detail@Clara@Catch@@XZ
	??$?CUBoundValueRefBase@Detail@Clara@Catch@@$0A@@?$shared_ptr@UBoundValueRefBase@Detail@Clara@Catch@@@std@@QEBAPEAUBoundValueRefBase@Detail@Clara@Catch@@XZ
	??$?CU_ExceptionHolder@details@Concurrency@@$0A@@?$shared_ptr@U_ExceptionHolder@details@Concurrency@@@std@@QEBAPEAU_ExceptionHolder@details@Concurrency@@XZ
	??$?CU_Task_impl_base@details@Concurrency@@$0A@@?$shared_ptr@U_Task_impl_base@details@Concurrency@@@std@@QEBAPEAU_Task_impl_base@details@Concurrency@@XZ
	??$?CUscheduler_interface@Concurrency@@$0A@@?$shared_ptr@Uscheduler_interface@Concurrency@@@std@@QEBAPEAUscheduler_interface@Concurrency@@XZ
	??$?DV?$basic_string@DU?$char_traits@D@std@@V?$allocator@D@2@@std@@$0A@@?$shared_ptr@V?$basic_string@DU?$char_traits@D@std@@V?$allocator@D@2@@std@@@std@@QEBAAEAV?$basic_string@DU?$char_traits@D@std@@V?$allocator@D@2@@1@XZ
	??$?GPEBDPEBD@std@@YA_JAEBV?$reverse_iterator@PEBD@0@0@Z
	??$?HDU?$char_traits@D@std@@V?$allocator@D@1@@std@@YA?AV?$basic_string@DU?$char_traits@D@std@@V?$allocator@D@2@@0@$$QEAV10@0@Z
	??$?HDU?$char_traits@D@std@@V?$allocator@D@1@@std@@YA?AV?$basic_string@DU?$char_traits@D@std@@V?$allocator@D@2@@0@$$QEAV10@AEBV10@@Z
	??$?HDU?$char_traits@D@std@@V?$allocator@D@1@@std@@YA?AV?$basic_string@DU?$char_traits@D@std@@V?$allocator@D@2@@0@$$QEAV10@D@Z
	??$?HDU?$char_traits@D@std@@V?$allocator@D@1@@std@@YA?AV?$basic_string@DU?$char_traits@D@std@@V?$allocator@D@2@@0@$$QEAV10@QEBD@Z
	??$?HDU?$char_traits@D@std@@V?$allocator@D@1@@std@@YA?AV?$basic_string@DU?$char_traits@D@std@@V?$allocator@D@2@@0@AEBV10@D@Z
	??$?HDU?$char_traits@D@std@@V?$allocator@D@1@@std@@YA?AV?$basic_string@DU?$char_traits@D@std@@V?$allocator@D@2@@0@DAEBV10@@Z
	??$?HDU?$char_traits@D@std@@V?$allocator@D@1@@std@@YA?AV?$basic_string@DU?$char_traits@D@std@@V?$allocator@D@2@@0@QEBD$$QEAV10@@Z
	??$?HDU?$char_traits@D@std@@V?$allocator@D@1@@std@@YA?AV?$basic_string@DU?$char_traits@D@std@@V?$allocator@D@2@@0@QEBDAEBV10@@Z
	??$?MDU?$char_traits@D@std@@V?$allocator@D@1@@std@@YA_NAEBV?$basic_string@DU?$char_traits@D@std@@V?$allocator@D@2@@0@0@Z
	??$?MUTag@Catch@@V?$allocator@UTag@Catch@@@std@@@std@@YA_NAEBV?$vector@UTag@Catch@@V?$allocator@UTag@Catch@@@std@@@0@0@Z
	??$?RAEANAEAN@?$less@X@std@@QEBA_NAEAN0@Z
	??$?RAEAUTag@Catch@@AEAU01@@?$equal_to@X@std@@QEBA_NAEAUTag@Catch@@0@Z
	??$?RAEAUTag@Catch@@AEAU01@@?$less@X@std@@QEBA_NAEAUTag@Catch@@0@Z
	??$?RAEBDAEBD@?$equal_to@X@std@@QEBA_NAEBD0@Z
	??$?RAEBU?$pair@$$CBV?$basic_string@DU?$char_traits@D@std@@V?$allocator@D@2@@std@@V12@@std@@AEBU01@@?$equal_to@X@std@@QEBA_NAEBU?$pair@$$CBV?$basic_string@DU?$char_traits@D@std@@V?$allocator@D@2@@std@@V12@@1@0@Z
	??$?RAEBUTag@Catch@@AEBU01@@?$less@X@std@@QEBA_NAEBUTag@Catch@@0@Z
	??$?RAEBVconst_iterator@Column@TextFlow@Catch@@AEBV0123@@?$equal_to@X@std@@QEBA_NAEBVconst_iterator@Column@TextFlow@Catch@@0@Z
	??$?RV?$mersenne_twister_engine@I$0CA@$0CHA@$0BIN@$0BP@$0JJAILANP@$0L@$0PPPPPPPP@$06$0JNCMFGIA@$0P@$0OPMGAAAA@$0BC@$0GMAHIJGF@@std@@@?$uniform_int@_K@std@@QEAA_KAEAV?$mersenne_twister_engine@I$0CA@$0CHA@$0BIN@$0BP@$0JJAILANP@$0L@$0PPPPPPPP@$06$0JNCMFGIA@$0P@$0OPMGAAAA@$0BC@$0GMAHIJGF@@1@@Z
	??$?RV?$mersenne_twister_engine@I$0CA@$0CHA@$0BIN@$0BP@$0JJAILANP@$0L@$0PPPPPPPP@$06$0JNCMFGIA@$0P@$0OPMGAAAA@$0BC@$0GMAHIJGF@@std@@@?$uniform_int_distribution@_K@std@@QEAA_KAEAV?$mersenne_twister_engine@I$0CA@$0CHA@$0BIN@$0BP@$0JJAILANP@$0L@$0PPPPPPPP@$06$0JNCMFGIA@$0P@$0OPMGAAAA@$0BC@$0GMAHIJGF@@1@@Z
	??$?UUHelp@Clara@Catch@@@?$ComposableParserImpl@VExeName@Clara@Catch@@@Detail@Clara@Catch@@QEBA?AVParser@23@AEBUHelp@23@@Z
	??$?UUHelp@Clara@Catch@@@Parser@Clara@Catch@@QEBA?AV012@AEBUHelp@12@@Z
	??$?UVArg@Clara@Catch@@@Parser@Clara@Catch@@QEBA?AV012@AEBVArg@12@@Z
	??$?UVExeName@Clara@Catch@@@Parser@Clara@Catch@@QEBA?AV012@AEBVExeName@12@@Z
	??$?UVOpt@Clara@Catch@@@Parser@Clara@Catch@@QEBA?AV012@AEBVOpt@12@@Z
	??$_Adl_verify_range@PEADPEAD@std@@YAXAEBQEAD0@Z
	??$_Adl_verify_range@PEAPEADPEAPEAD@std@@YAXAEBQEAPEAD0@Z
	??$_Adl_verify_range@PEBDPEBD@std@@YAXAEBQEBD0@Z
	??$_Adl_verify_range@PEBQEBDPEBQEBD@std@@YAXAEBQEBQEBD0@Z
	??$_Adl_verify_range@PEBUTag@Catch@@PEBU12@@std@@YAXAEBQEBUTag@Catch@@0@Z
	??$_Adl_verify_range@PEBV?$basic_string@DU?$char_traits@D@std@@V?$allocator@D@2@@std@@PEBV12@@std@@YAXAEBQEBV?$basic_string@DU?$char_traits@D@std@@V?$allocator@D@2@@0@0@Z
	??$_Adl_verify_range@PEBVconst_iterator@Column@TextFlow@Catch@@PEBV1234@@std@@YAXAEBQEBVconst_iterator@Column@TextFlow@Catch@@0@Z
	??$_Adl_verify_range@V?$_String_const_iterator@V?$_String_val@U?$_Simple_types@D@std@@@std@@@std@@V12@@std@@YAXAEBV?$_String_const_iterator@V?$_String_val@U?$_Simple_types@D@std@@@std@@@0@0@Z
	??$_Adl_verify_range@V?$_String_iterator@V?$_String_val@U?$_Simple_types@D@std@@@std@@@std@@V12@@std@@YAXAEBV?$_String_iterator@V?$_String_val@U?$_Simple_types@D@std@@@std@@@0@0@Z
	??$_Adl_verify_range@V?$_Tree_const_iterator@V?$_Tree_val@U?$_Tree_simple_types@PEBVTestCaseHandle@Catch@@@std@@@std@@@std@@V12@@std@@YAXAEBV?$_Tree_const_iterator@V?$_Tree_val@U?$_Tree_simple_types@PEBVTestCaseHandle@Catch@@@std@@@std@@@0@0@Z
	??$_Adl_verify_range@V?$_Tree_unchecked_const_iterator@V?$_Tree_val@U?$_Tree_simple_types@U?$pair@$$CBV?$basic_string@DU?$char_traits@D@std@@V?$allocator@D@2@@std@@V12@@std@@@std@@@std@@U_Iterator_base0@2@@std@@V12@@std@@YAXAEBV?$_Tree_unchecked_const_iterator@V?$_Tree_val@U?$_Tree_simple_types@U?$pair@$$CBV?$basic_string@DU?$char_traits@D@std@@V?$allocator@D@2@@std@@V12@@std@@@std@@@std@@U_Iterator_base0@2@@0@0@Z
	??$_Adl_verify_range@V?$_Vb_iterator@U?$_Wrap_alloc@V?$allocator@I@std@@@std@@@std@@V12@@std@@YAXAEBV?$_Vb_iterator@U?$_Wrap_alloc@V?$allocator@I@std@@@std@@@0@0@Z
	??$_Adl_verify_range@V?$_Vector_const_iterator@V?$_Vector_val@U?$_Simple_types@N@std@@@std@@@std@@V12@@std@@YAXAEBV?$_Vector_const_iterator@V?$_Vector_val@U?$_Simple_types@N@std@@@std@@@0@0@Z
	??$_Adl_verify_range@V?$_Vector_const_iterator@V?$_Vector_val@U?$_Simple_types@PEBVTestCaseHandle@Catch@@@std@@@std@@@std@@V12@@std@@YAXAEBV?$_Vector_const_iterator@V?$_Vector_val@U?$_Simple_types@PEBVTestCaseHandle@Catch@@@std@@@std@@@0@0@Z
	??$_Adl_verify_range@V?$_Vector_const_iterator@V?$_Vector_val@U?$_Simple_types@UFilter@TestSpec@Catch@@@std@@@std@@@std@@V12@@std@@YAXAEBV?$_Vector_const_iterator@V?$_Vector_val@U?$_Simple_types@UFilter@TestSpec@Catch@@@std@@@std@@@0@0@Z
	??$_Adl_verify_range@V?$_Vector_const_iterator@V?$_Vector_val@U?$_Simple_types@UListenerDescription@Catch@@@std@@@std@@@std@@V12@@std@@YAXAEBV?$_Vector_const_iterator@V?$_Vector_val@U?$_Simple_types@UListenerDescription@Catch@@@std@@@std@@@0@0@Z
	??$_Adl_verify_range@V?$_Vector_const_iterator@V?$_Vector_val@U?$_Simple_types@UReporterDescription@Catch@@@std@@@std@@@std@@V12@@std@@YAXAEBV?$_Vector_const_iterator@V?$_Vector_val@U?$_Simple_types@UReporterDescription@Catch@@@std@@@std@@@0@0@Z
	??$_Adl_verify_range@V?$_Vector_const_iterator@V?$_Vector_val@U?$_Simple_types@UTag@Catch@@@std@@@std@@@std@@V12@@std@@YAXAEBV?$_Vector_const_iterator@V?$_Vector_val@U?$_Simple_types@UTag@Catch@@@std@@@std@@@0@0@Z
	??$_Adl_verify_range@V?$_Vector_const_iterator@V?$_Vector_val@U?$_Simple_types@V?$basic_string@DU?$char_traits@D@std@@V?$allocator@D@2@@std@@@std@@@std@@@std@@V12@@std@@YAXAEBV?$_Vector_const_iterator@V?$_Vector_val@U?$_Simple_types@V?$basic_string@DU?$char_traits@D@std@@V?$allocator@D@2@@std@@@std@@@std@@@0@0@Z
	??$_Adl_verify_range@V?$_Vector_const_iterator@V?$_Vector_val@U?$_Simple_types@VArg@Clara@Catch@@@std@@@std@@@std@@V12@@std@@YAXAEBV?$_Vector_const_iterator@V?$_Vector_val@U?$_Simple_types@VArg@Clara@Catch@@@std@@@std@@@0@0@Z
	??$_Adl_verify_range@V?$_Vector_const_iterator@V?$_Vector_val@U?$_Simple_types@VAssertionOrBenchmarkResult@Detail@Catch@@@std@@@std@@@std@@V12@@std@@YAXAEBV?$_Vector_const_iterator@V?$_Vector_val@U?$_Simple_types@VAssertionOrBenchmarkResult@Detail@Catch@@@std@@@std@@@0@0@Z
	??$_Adl_verify_range@V?$_Vector_const_iterator@V?$_Vector_val@U?$_Simple_types@VOpt@Clara@Catch@@@std@@@std@@@std@@V12@@std@@YAXAEBV?$_Vector_const_iterator@V?$_Vector_val@U?$_Simple_types@VOpt@Clara@Catch@@@std@@@std@@@0@0@Z
	??$_Adl_verify_range@V?$_Vector_const_iterator@V?$_Vector_val@U?$_Simple_types@VStringRef@Catch@@@std@@@std@@@std@@V12@@std@@YAXAEBV?$_Vector_const_iterator@V?$_Vector_val@U?$_Simple_types@VStringRef@Catch@@@std@@@std@@@0@0@Z
	??$_Adl_verify_range@V?$_Vector_const_iterator@V?$_Vector_val@U?$_Simple_types@VTestCaseHandle@Catch@@@std@@@std@@@std@@V12@@std@@YAXAEBV?$_Vector_const_iterator@V?$_Vector_val@U?$_Simple_types@VTestCaseHandle@Catch@@@std@@@std@@@0@0@Z
	??$_Adl_verify_range@V?$_Vector_iterator@V?$_Vector_val@U?$_Simple_types@N@std@@@std@@@std@@V12@@std@@YAXAEBV?$_Vector_iterator@V?$_Vector_val@U?$_Simple_types@N@std@@@std@@@0@0@Z
	??$_Adl_verify_range@V?$_Vector_iterator@V?$_Vector_val@U?$_Simple_types@U?$pair@_KVTestCaseHandle@Catch@@@std@@@std@@@std@@@std@@V12@@std@@YAXAEBV?$_Vector_iterator@V?$_Vector_val@U?$_Simple_types@U?$pair@_KVTestCaseHandle@Catch@@@std@@@std@@@std@@@0@0@Z
	??$_Adl_verify_range@V?$_Vector_iterator@V?$_Vector_val@U?$_Simple_types@UHelpColumns@Detail@Clara@Catch@@@std@@@std@@@std@@V12@@std@@YAXAEBV?$_Vector_iterator@V?$_Vector_val@U?$_Simple_types@UHelpColumns@Detail@Clara@Catch@@@std@@@std@@@0@0@Z
	??$_Adl_verify_range@V?$_Vector_iterator@V?$_Vector_val@U?$_Simple_types@UMessageInfo@Catch@@@std@@@std@@@std@@V12@@std@@YAXAEBV?$_Vector_iterator@V?$_Vector_val@U?$_Simple_types@UMessageInfo@Catch@@@std@@@std@@@0@0@Z
	??$_Adl_verify_range@V?$_Vector_iterator@V?$_Vector_val@U?$_Simple_types@UTag@Catch@@@std@@@std@@@std@@V12@@std@@YAXAEBV?$_Vector_iterator@V?$_Vector_val@U?$_Simple_types@UTag@Catch@@@std@@@std@@@0@0@Z
	??$_Adl_verify_range@V?$_Vector_iterator@V?$_Vector_val@U?$_Simple_types@V?$unique_ptr@USectionNode@CumulativeReporterBase@Catch@@@Detail@Catch@@@std@@@std@@@std@@V12@@std@@YAXAEBV?$_Vector_iterator@V?$_Vector_val@U?$_Simple_types@V?$unique_ptr@USectionNode@CumulativeReporterBase@Catch@@@Detail@Catch@@@std@@@std@@@0@0@Z
	??$_Adl_verify_range@V?$_Vector_iterator@V?$_Vector_val@U?$_Simple_types@V?$unique_ptr@VITracker@TestCaseTracking@Catch@@@Detail@Catch@@@std@@@std@@@std@@V12@@std@@YAXAEBV?$_Vector_iterator@V?$_Vector_val@U?$_Simple_types@V?$unique_ptr@VITracker@TestCaseTracking@Catch@@@Detail@Catch@@@std@@@std@@@0@0@Z
	??$_Adl_verify_range@V?$_Vector_iterator@V?$_Vector_val@U?$_Simple_types@VTestCaseHandle@Catch@@@std@@@std@@@std@@V12@@std@@YAXAEBV?$_Vector_iterator@V?$_Vector_val@U?$_Simple_types@VTestCaseHandle@Catch@@@std@@@std@@@0@0@Z
	??$_Adl_verify_range@V?$reverse_iterator@PEBD@std@@V12@@std@@YAXAEBV?$reverse_iterator@PEBD@0@0@Z
	??$_Adl_verify_range@V?$reverse_iterator@V?$_String_const_iterator@V?$_String_val@U?$_Simple_types@D@std@@@std@@@std@@@std@@V12@@std@@YAXAEBV?$reverse_iterator@V?$_String_const_iterator@V?$_String_val@U?$_Simple_types@D@std@@@std@@@std@@@0@0@Z
	??$_Alloc_proxy@V?$allocator@U_Container_proxy@std@@@std@@@_Container_base12@std@@QEAAX$$QEAV?$allocator@U_Container_proxy@std@@@1@@Z
	??$_Allocate@$0BA@U_Default_allocate_traits@std@@@std@@YAPEAX_K@Z
	??$_Allocate_at_least_helper@V?$allocator@D@std@@@std@@YAPEADAEAV?$allocator@D@0@AEA_K@Z
	??$_Allocate_at_least_helper@V?$allocator@I@std@@@std@@YAPEAIAEAV?$allocator@I@0@AEA_K@Z
	??$_Allocate_at_least_helper@V?$allocator@N@std@@@std@@YAPEANAEAV?$allocator@N@0@AEA_K@Z
	??$_Allocate_at_least_helper@V?$allocator@PEAD@std@@@std@@YAPEAPEADAEAV?$allocator@PEAD@0@AEA_K@Z
	??$_Allocate_at_least_helper@V?$allocator@PEAUISingleton@Catch@@@std@@@std@@YAPEAPEAUISingleton@Catch@@AEAV?$allocator@PEAUISingleton@Catch@@@0@AEA_K@Z
	??$_Allocate_at_least_helper@V?$allocator@PEAUSectionNode@CumulativeReporterBase@Catch@@@std@@@std@@YAPEAPEAUSectionNode@CumulativeReporterBase@Catch@@AEAV?$allocator@PEAUSectionNode@CumulativeReporterBase@Catch@@@0@AEA_K@Z
	??$_Allocate_at_least_helper@V?$allocator@PEAUTestCaseInfo@Catch@@@std@@@std@@YAPEAPEAUTestCaseInfo@Catch@@AEAV?$allocator@PEAUTestCaseInfo@Catch@@@0@AEA_K@Z
	??$_Allocate_at_least_helper@V?$allocator@PEAVITracker@TestCaseTracking@Catch@@@std@@@std@@YAPEAPEAVITracker@TestCaseTracking@Catch@@AEAV?$allocator@PEAVITracker@TestCaseTracking@Catch@@@0@AEA_K@Z
	??$_Allocate_at_least_helper@V?$allocator@PEAX@std@@@std@@YAPEAPEAXAEAV?$allocator@PEAX@0@AEA_K@Z
	??$_Allocate_at_least_helper@V?$allocator@PEBU?$Node@UTestCaseStats@Catch@@USectionNode@CumulativeReporterBase@2@@CumulativeReporterBase@Catch@@@std@@@std@@YAPEAPEBU?$Node@UTestCaseStats@Catch@@USectionNode@CumulativeReporterBase@2@@CumulativeReporterBase@Catch@@AEAV?$allocator@PEBU?$Node@UTestCaseStats@Catch@@USectionNode@CumulativeReporterBase@2@@CumulativeReporterBase@Catch@@@0@AEA_K@Z
	??$_Allocate_at_least_helper@V?$allocator@PEBVTestCaseHandle@Catch@@@std@@@std@@YAPEAPEBVTestCaseHandle@Catch@@AEAV?$allocator@PEBVTestCaseHandle@Catch@@@0@AEA_K@Z
	??$_Allocate_at_least_helper@V?$allocator@U?$pair@HVStringRef@Catch@@@std@@@std@@@std@@YAPEAU?$pair@HVStringRef@Catch@@@0@AEAV?$allocator@U?$pair@HVStringRef@Catch@@@std@@@0@AEA_K@Z
	??$_Allocate_at_least_helper@V?$allocator@U?$pair@_KVTestCaseHandle@Catch@@@std@@@std@@@std@@YAPEAU?$pair@_KVTestCaseHandle@Catch@@@0@AEAV?$allocator@U?$pair@_KVTestCaseHandle@Catch@@@std@@@0@AEA_K@Z
	??$_Allocate_at_least_helper@V?$allocator@UFilter@TestSpec@Catch@@@std@@@std@@YAPEAUFilter@TestSpec@Catch@@AEAV?$allocator@UFilter@TestSpec@Catch@@@0@AEA_K@Z
	??$_Allocate_at_least_helper@V?$allocator@UFilterMatch@TestSpec@Catch@@@std@@@std@@YAPEAUFilterMatch@TestSpec@Catch@@AEAV?$allocator@UFilterMatch@TestSpec@Catch@@@0@AEA_K@Z
	??$_Allocate_at_least_helper@V?$allocator@UHelpColumns@Detail@Clara@Catch@@@std@@@std@@YAPEAUHelpColumns@Detail@Clara@Catch@@AEAV?$allocator@UHelpColumns@Detail@Clara@Catch@@@0@AEA_K@Z
	??$_Allocate_at_least_helper@V?$allocator@UListenerDescription@Catch@@@std@@@std@@YAPEAUListenerDescription@Catch@@AEAV?$allocator@UListenerDescription@Catch@@@0@AEA_K@Z
	??$_Allocate_at_least_helper@V?$allocator@UMessageInfo@Catch@@@std@@@std@@YAPEAUMessageInfo@Catch@@AEAV?$allocator@UMessageInfo@Catch@@@0@AEA_K@Z
	??$_Allocate_at_least_helper@V?$allocator@UProcessedReporterSpec@Catch@@@std@@@std@@YAPEAUProcessedReporterSpec@Catch@@AEAV?$allocator@UProcessedReporterSpec@Catch@@@0@AEA_K@Z
	??$_Allocate_at_least_helper@V?$allocator@UReporterDescription@Catch@@@std@@@std@@YAPEAUReporterDescription@Catch@@AEAV?$allocator@UReporterDescription@Catch@@@0@AEA_K@Z
	??$_Allocate_at_least_helper@V?$allocator@USectionEndInfo@Catch@@@std@@@std@@YAPEAUSectionEndInfo@Catch@@AEAV?$allocator@USectionEndInfo@Catch@@@0@AEA_K@Z
	??$_Allocate_at_least_helper@V?$allocator@USectionInfo@Catch@@@std@@@std@@YAPEAUSectionInfo@Catch@@AEAV?$allocator@USectionInfo@Catch@@@0@AEA_K@Z
	??$_Allocate_at_least_helper@V?$allocator@UTag@Catch@@@std@@@std@@YAPEAUTag@Catch@@AEAV?$allocator@UTag@Catch@@@0@AEA_K@Z
	??$_Allocate_at_least_helper@V?$allocator@UTagInfo@Catch@@@std@@@std@@YAPEAUTagInfo@Catch@@AEAV?$allocator@UTagInfo@Catch@@@0@AEA_K@Z
	??$_Allocate_at_least_helper@V?$allocator@UToken@Detail@Clara@Catch@@@std@@@std@@YAPEAUToken@Detail@Clara@Catch@@AEAV?$allocator@UToken@Detail@Clara@Catch@@@0@AEA_K@Z
	??$_Allocate_at_least_helper@V?$allocator@U_Grp_t@?$_Tgt_state_t@PEBD@std@@@std@@@std@@YAPEAU_Grp_t@?$_Tgt_state_t@PEBD@0@AEAV?$allocator@U_Grp_t@?$_Tgt_state_t@PEBD@std@@@0@AEA_K@Z
	??$_Allocate_at_least_helper@V?$allocator@U_Loop_vals_t@std@@@std@@@std@@YAPEAU_Loop_vals_t@0@AEAV?$allocator@U_Loop_vals_t@std@@@0@AEA_K@Z
	??$_Allocate_at_least_helper@V?$allocator@V?$basic_string@DU?$char_traits@D@std@@V?$allocator@D@2@@std@@@std@@@std@@YAPEAV?$basic_string@DU?$char_traits@D@std@@V?$allocator@D@2@@0@AEAV?$allocator@V?$basic_string@DU?$char_traits@D@std@@V?$allocator@D@2@@std@@@0@AEA_K@Z
	??$_Allocate_at_least_helper@V?$allocator@V?$duration@NU?$ratio@$00$0DLJKMKAA@@std@@@chrono@std@@@std@@@std@@YAPEAV?$duration@NU?$ratio@$00$0DLJKMKAA@@std@@@chrono@0@AEAV?$allocator@V?$duration@NU?$ratio@$00$0DLJKMKAA@@std@@@chrono@std@@@0@AEA_K@Z
	??$_Allocate_at_least_helper@V?$allocator@V?$sub_match@PEBD@std@@@std@@@std@@YAPEAV?$sub_match@PEBD@0@AEAV?$allocator@V?$sub_match@PEBD@std@@@0@AEA_K@Z
	??$_Allocate_at_least_helper@V?$allocator@V?$unique_ptr@$$CBVIExceptionTranslator@Catch@@@Detail@Catch@@@std@@@std@@YAPEAV?$unique_ptr@$$CBVIExceptionTranslator@Catch@@@Detail@Catch@@AEAV?$allocator@V?$unique_ptr@$$CBVIExceptionTranslator@Catch@@@Detail@Catch@@@0@AEA_K@Z
	??$_Allocate_at_least_helper@V?$allocator@V?$unique_ptr@U?$Node@UTestCaseStats@Catch@@USectionNode@CumulativeReporterBase@2@@CumulativeReporterBase@Catch@@@Detail@Catch@@@std@@@std@@YAPEAV?$unique_ptr@U?$Node@UTestCaseStats@Catch@@USectionNode@CumulativeReporterBase@2@@CumulativeReporterBase@Catch@@@Detail@Catch@@AEAV?$allocator@V?$unique_ptr@U?$Node@UTestCaseStats@Catch@@USectionNode@CumulativeReporterBase@2@@CumulativeReporterBase@Catch@@@Detail@Catch@@@0@AEA_K@Z
	??$_Allocate_at_least_helper@V?$allocator@V?$unique_ptr@UEnumInfo@Detail@Catch@@@Detail@Catch@@@std@@@std@@YAPEAV?$unique_ptr@UEnumInfo@Detail@Catch@@@Detail@Catch@@AEAV?$allocator@V?$unique_ptr@UEnumInfo@Detail@Catch@@@Detail@Catch@@@0@AEA_K@Z
	??$_Allocate_at_least_helper@V?$allocator@V?$unique_ptr@USectionNode@CumulativeReporterBase@Catch@@@Detail@Catch@@@std@@@std@@YAPEAV?$unique_ptr@USectionNode@CumulativeReporterBase@Catch@@@Detail@Catch@@AEAV?$allocator@V?$unique_ptr@USectionNode@CumulativeReporterBase@Catch@@@Detail@Catch@@@0@AEA_K@Z
	??$_Allocate_at_least_helper@V?$allocator@V?$unique_ptr@UTestCaseInfo@Catch@@@Detail@Catch@@@std@@@std@@YAPEAV?$unique_ptr@UTestCaseInfo@Catch@@@Detail@Catch@@AEAV?$allocator@V?$unique_ptr@UTestCaseInfo@Catch@@@Detail@Catch@@@0@AEA_K@Z
	??$_Allocate_at_least_helper@V?$allocator@V?$unique_ptr@V?$basic_ostringstream@DU?$char_traits@D@std@@V?$allocator@D@2@@std@@@Detail@Catch@@@std@@@std@@YAPEAV?$unique_ptr@V?$basic_ostringstream@DU?$char_traits@D@std@@V?$allocator@D@2@@std@@@Detail@Catch@@AEAV?$allocator@V?$unique_ptr@V?$basic_ostringstream@DU?$char_traits@D@std@@V?$allocator@D@2@@std@@@Detail@Catch@@@0@AEA_K@Z
	??$_Allocate_at_least_helper@V?$allocator@V?$unique_ptr@VEventListenerFactory@Catch@@@Detail@Catch@@@std@@@std@@YAPEAV?$unique_ptr@VEventListenerFactory@Catch@@@Detail@Catch@@AEAV?$allocator@V?$unique_ptr@VEventListenerFactory@Catch@@@Detail@Catch@@@0@AEA_K@Z
	??$_Allocate_at_least_helper@V?$allocator@V?$unique_ptr@VIEventListener@Catch@@@Detail@Catch@@@std@@@std@@YAPEAV?$unique_ptr@VIEventListener@Catch@@@Detail@Catch@@AEAV?$allocator@V?$unique_ptr@VIEventListener@Catch@@@Detail@Catch@@@0@AEA_K@Z
	??$_Allocate_at_least_helper@V?$allocator@V?$unique_ptr@VITestInvoker@Catch@@@Detail@Catch@@@std@@@std@@YAPEAV?$unique_ptr@VITestInvoker@Catch@@@Detail@Catch@@AEAV?$allocator@V?$unique_ptr@VITestInvoker@Catch@@@Detail@Catch@@@0@AEA_K@Z
	??$_Allocate_at_least_helper@V?$allocator@V?$unique_ptr@VITracker@TestCaseTracking@Catch@@@Detail@Catch@@@std@@@std@@YAPEAV?$unique_ptr@VITracker@TestCaseTracking@Catch@@@Detail@Catch@@AEAV?$allocator@V?$unique_ptr@VITracker@TestCaseTracking@Catch@@@Detail@Catch@@@0@AEA_K@Z
	??$_Allocate_at_least_helper@V?$allocator@V?$unique_ptr@VPattern@TestSpec@Catch@@@Detail@Catch@@@std@@@std@@YAPEAV?$unique_ptr@VPattern@TestSpec@Catch@@@Detail@Catch@@AEAV?$allocator@V?$unique_ptr@VPattern@TestSpec@Catch@@@Detail@Catch@@@0@AEA_K@Z
	??$_Allocate_at_least_helper@V?$allocator@VArg@Clara@Catch@@@std@@@std@@YAPEAVArg@Clara@Catch@@AEAV?$allocator@VArg@Clara@Catch@@@0@AEA_K@Z
	??$_Allocate_at_least_helper@V?$allocator@VAssertionOrBenchmarkResult@Detail@Catch@@@std@@@std@@YAPEAVAssertionOrBenchmarkResult@Detail@Catch@@AEAV?$allocator@VAssertionOrBenchmarkResult@Detail@Catch@@@0@AEA_K@Z
	??$_Allocate_at_least_helper@V?$allocator@VColumn@TextFlow@Catch@@@std@@@std@@YAPEAVColumn@TextFlow@Catch@@AEAV?$allocator@VColumn@TextFlow@Catch@@@0@AEA_K@Z
	??$_Allocate_at_least_helper@V?$allocator@VOpt@Clara@Catch@@@std@@@std@@YAPEAVOpt@Clara@Catch@@AEAV?$allocator@VOpt@Clara@Catch@@@0@AEA_K@Z
	??$_Allocate_at_least_helper@V?$allocator@VReporterSpec@Catch@@@std@@@std@@YAPEAVReporterSpec@Catch@@AEAV?$allocator@VReporterSpec@Catch@@@0@AEA_K@Z
	??$_Allocate_at_least_helper@V?$allocator@VScopedMessage@Catch@@@std@@@std@@YAPEAVScopedMessage@Catch@@AEAV?$allocator@VScopedMessage@Catch@@@0@AEA_K@Z
	??$_Allocate_at_least_helper@V?$allocator@VStringRef@Catch@@@std@@@std@@YAPEAVStringRef@Catch@@AEAV?$allocator@VStringRef@Catch@@@0@AEA_K@Z
	??$_Allocate_at_least_helper@V?$allocator@VTestCaseHandle@Catch@@@std@@@std@@YAPEAVTestCaseHandle@Catch@@AEAV?$allocator@VTestCaseHandle@Catch@@@0@AEA_K@Z
	??$_Allocate_at_least_helper@V?$allocator@Vconst_iterator@Column@TextFlow@Catch@@@std@@@std@@YAPEAVconst_iterator@Column@TextFlow@Catch@@AEAV?$allocator@Vconst_iterator@Column@TextFlow@Catch@@@0@AEA_K@Z
	??$_Allocate_at_least_helper@V?$allocator@Vexception_ptr@std@@@std@@@std@@YAPEAVexception_ptr@0@AEAV?$allocator@Vexception_ptr@std@@@0@AEA_K@Z
	??$_Allocate_at_least_helper@V?$allocator@_K@std@@@std@@YAPEA_KAEAV?$allocator@_K@0@AEA_K@Z
	??$_Allocate_at_least_helper@V?$allocator@_W@std@@@std@@YAPEA_WAEAV?$allocator@_W@0@AEA_K@Z
	??$_Allocate_for_capacity@$0A@@?$basic_string@DU?$char_traits@D@std@@V?$allocator@D@2@@std@@CAPEADAEAV?$allocator@D@1@AEA_K@Z
	??$_Allocate_for_capacity@$0A@@?$basic_string@_WU?$char_traits@_W@std@@V?$allocator@_W@2@@std@@CAPEA_WAEAV?$allocator@_W@1@AEA_K@Z
	??$_Allocate_manually_vector_aligned@U_Default_allocate_traits@std@@@std@@YAPEAX_K@Z
	??$_Allocators_equal@V?$allocator@D@std@@@std@@YA_NAEBV?$allocator@D@0@0@Z
	??$_Assign_counted_range@PEAI@?$vector@IV?$allocator@I@std@@@std@@AEAAXPEAI_K@Z
	??$_Assign_counted_range@PEAPEAX@?$vector@PEAXV?$allocator@PEAX@std@@@std@@AEAAXPEAPEAX_K@Z
	??$_Assign_counted_range@PEAU_Grp_t@?$_Tgt_state_t@PEBD@std@@@?$vector@U_Grp_t@?$_Tgt_state_t@PEBD@std@@V?$allocator@U_Grp_t@?$_Tgt_state_t@PEBD@std@@@3@@std@@AEAAXPEAU_Grp_t@?$_Tgt_state_t@PEBD@1@_K@Z
	??$_Assign_counted_range@PEAV?$basic_string@DU?$char_traits@D@std@@V?$allocator@D@2@@std@@@?$vector@V?$basic_string@DU?$char_traits@D@std@@V?$allocator@D@2@@std@@V?$allocator@V?$basic_string@DU?$char_traits@D@std@@V?$allocator@D@2@@std@@@2@@std@@AEAAXPEAV?$basic_string@DU?$char_traits@D@std@@V?$allocator@D@2@@1@_K@Z
	??$_Assign_counted_range@PEAVArg@Clara@Catch@@@?$vector@VArg@Clara@Catch@@V?$allocator@VArg@Clara@Catch@@@std@@@std@@AEAAXPEAVArg@Clara@Catch@@_K@Z
	??$_Assign_counted_range@PEAVOpt@Clara@Catch@@@?$vector@VOpt@Clara@Catch@@V?$allocator@VOpt@Clara@Catch@@@std@@@std@@AEAAXPEAVOpt@Clara@Catch@@_K@Z
	??$_Assign_counted_range@PEAVReporterSpec@Catch@@@?$vector@VReporterSpec@Catch@@V?$allocator@VReporterSpec@Catch@@@std@@@std@@AEAAXPEAVReporterSpec@Catch@@_K@Z
	??$_Atomic_address_as@HU?$_Atomic_padded@J@std@@@std@@YAPECHAEAU?$_Atomic_padded@J@0@@Z
	??$_Atomic_address_as@HU?$_Atomic_padded@J@std@@@std@@YAPEDHAEBU?$_Atomic_padded@J@0@@Z
	??$_Atomic_address_as@JU?$_Atomic_padded@J@std@@@std@@YAPECJAEAU?$_Atomic_padded@J@0@@Z
	??$_Atomic_reinterpret_as@HJ@std@@YAHAEBJ@Z
	??$_Atomic_reinterpret_as@JJ@std@@YAJAEBJ@Z
	??$_Bit_cast@_KT_Addr_storage@error_category@std@@$0A@@std@@YA_KAEBT_Addr_storage@error_category@0@@Z
	??$_Buyheadnode@V?$allocator@U?$_Tree_node@PEBUTestCaseInfo@Catch@@PEAX@std@@@std@@@?$_Tree_node@PEBUTestCaseInfo@Catch@@PEAX@std@@SAPEAU01@AEAV?$allocator@U?$_Tree_node@PEBUTestCaseInfo@Catch@@PEAX@std@@@1@@Z
	??$_Buyheadnode@V?$allocator@U?$_Tree_node@PEBVTestCaseHandle@Catch@@PEAX@std@@@std@@@?$_Tree_node@PEBVTestCaseHandle@Catch@@PEAX@std@@SAPEAU01@AEAV?$allocator@U?$_Tree_node@PEBVTestCaseHandle@Catch@@PEAX@std@@@1@@Z
	??$_Buyheadnode@V?$allocator@U?$_Tree_node@U?$pair@$$CBV?$basic_string@DU?$char_traits@D@std@@V?$allocator@D@2@@std@@UTagAlias@Catch@@@std@@PEAX@std@@@std@@@?$_Tree_node@U?$pair@$$CBV?$basic_string@DU?$char_traits@D@std@@V?$allocator@D@2@@std@@UTagAlias@Catch@@@std@@PEAX@std@@SAPEAU01@AEAV?$allocator@U?$_Tree_node@U?$pair@$$CBV?$basic_string@DU?$char_traits@D@std@@V?$allocator@D@2@@std@@UTagAlias@Catch@@@std@@PEAX@std@@@1@@Z
	??$_Buyheadnode@V?$allocator@U?$_Tree_node@U?$pair@$$CBV?$basic_string@DU?$char_traits@D@std@@V?$allocator@D@2@@std@@V12@@std@@PEAX@std@@@std@@@?$_Tree_node@U?$pair@$$CBV?$basic_string@DU?$char_traits@D@std@@V?$allocator@D@2@@std@@V12@@std@@PEAX@std@@SAPEAU01@AEAV?$allocator@U?$_Tree_node@U?$pair@$$CBV?$basic_string@DU?$char_traits@D@std@@V?$allocator@D@2@@std@@V12@@std@@PEAX@std@@@1@@Z
	??$_Buyheadnode@V?$allocator@U?$_Tree_node@U?$pair@$$CBV?$basic_string@DU?$char_traits@D@std@@V?$allocator@D@2@@std@@V?$unique_ptr@VIReporterFactory@Catch@@@Detail@Catch@@@std@@PEAX@std@@@std@@@?$_Tree_node@U?$pair@$$CBV?$basic_string@DU?$char_traits@D@std@@V?$allocator@D@2@@std@@V?$unique_ptr@VIReporterFactory@Catch@@@Detail@Catch@@@std@@PEAX@std@@SAPEAU01@AEAV?$allocator@U?$_Tree_node@U?$pair@$$CBV?$basic_string@DU?$char_traits@D@std@@V?$allocator@D@2@@std@@V?$unique_ptr@VIReporterFactory@Catch@@@Detail@Catch@@@std@@PEAX@std@@@1@@Z
	??$_Buyheadnode@V?$allocator@U?$_Tree_node@U?$pair@$$CBVStringRef@Catch@@UTagInfo@2@@std@@PEAX@std@@@std@@@?$_Tree_node@U?$pair@$$CBVStringRef@Catch@@UTagInfo@2@@std@@PEAX@std@@SAPEAU01@AEAV?$allocator@U?$_Tree_node@U?$pair@$$CBVStringRef@Catch@@UTagInfo@2@@std@@PEAX@std@@@1@@Z
	??$_Buyheadnode@V?$allocator@U?$_Tree_node@U?$pair@$$CBVStringRef@Catch@@V?$vector@PEBU?$Node@UTestCaseStats@Catch@@USectionNode@CumulativeReporterBase@2@@CumulativeReporterBase@Catch@@V?$allocator@PEBU?$Node@UTestCaseStats@Catch@@USectionNode@CumulativeReporterBase@2@@CumulativeReporterBase@Catch@@@std@@@std@@@std@@PEAX@std@@@std@@@?$_Tree_node@U?$pair@$$CBVStringRef@Catch@@V?$vector@PEBU?$Node@UTestCaseStats@Catch@@USectionNode@CumulativeReporterBase@2@@CumulativeReporterBase@Catch@@V?$allocator@PEBU?$Node@UTestCaseStats@Catch@@USectionNode@CumulativeReporterBase@2@@CumulativeReporterBase@Catch@@@std@@@std@@@std@@PEAX@std@@SAPEAU01@AEAV?$allocator@U?$_Tree_node@U?$pair@$$CBVStringRef@Catch@@V?$vector@PEBU?$Node@UTestCaseStats@Catch@@USectionNode@CumulativeReporterBase@2@@CumulativeReporterBase@Catch@@V?$allocator@PEBU?$Node@UTestCaseStats@Catch@@USectionNode@CumulativeReporterBase@2@@CumulativeReporterBase@Catch@@@std@@@std@@@std@@PEAX@std@@@1@@Z
	??$_Buyheadnode@V?$allocator@U?$_Tree_node@VStringRef@Catch@@PEAX@std@@@std@@@?$_Tree_node@VStringRef@Catch@@PEAX@std@@SAPEAU01@AEAV?$allocator@U?$_Tree_node@VStringRef@Catch@@PEAX@std@@@1@@Z
	??$_Buynode@AEAPEBVTestCaseHandle@Catch@@@?$_Tree@V?$_Tset_traits@PEBVTestCaseHandle@Catch@@U?$less@PEBVTestCaseHandle@Catch@@@std@@V?$allocator@PEBVTestCaseHandle@Catch@@@4@$0A@@std@@@std@@IEAAPEAU?$_Tree_node@PEBVTestCaseHandle@Catch@@PEAX@1@AEAPEBVTestCaseHandle@Catch@@@Z
	??$_Buynode@AEAU?$pair@$$CBV?$basic_string@DU?$char_traits@D@std@@V?$allocator@D@2@@std@@V12@@std@@@?$_Tree@V?$_Tmap_traits@V?$basic_string@DU?$char_traits@D@std@@V?$allocator@D@2@@std@@V12@U?$less@V?$basic_string@DU?$char_traits@D@std@@V?$allocator@D@2@@std@@@2@V?$allocator@U?$pair@$$CBV?$basic_string@DU?$char_traits@D@std@@V?$allocator@D@2@@std@@V12@@std@@@2@$0A@@std@@@std@@IEAAPEAU?$_Tree_node@U?$pair@$$CBV?$basic_string@DU?$char_traits@D@std@@V?$allocator@D@2@@std@@V12@@std@@PEAX@1@AEAU?$pair@$$CBV?$basic_string@DU?$char_traits@D@std@@V?$allocator@D@2@@std@@V12@@1@@Z
	??$_Buynode@AEAVStringRef@Catch@@@?$_Tree@V?$_Tset_traits@VStringRef@Catch@@U?$less@VStringRef@Catch@@@std@@V?$allocator@VStringRef@Catch@@@4@$0A@@std@@@std@@IEAAPEAU?$_Tree_node@VStringRef@Catch@@PEAX@1@AEAVStringRef@Catch@@@Z
	??$_Buynode@V?$allocator@U?$_Tree_node@PEBVTestCaseHandle@Catch@@PEAX@std@@@std@@AEAPEBVTestCaseHandle@Catch@@@?$_Tree_node@PEBVTestCaseHandle@Catch@@PEAX@std@@SAPEAU01@AEAV?$allocator@U?$_Tree_node@PEBVTestCaseHandle@Catch@@PEAX@std@@@1@PEAU01@AEAPEBVTestCaseHandle@Catch@@@Z
	??$_Buynode@V?$allocator@U?$_Tree_node@U?$pair@$$CBV?$basic_string@DU?$char_traits@D@std@@V?$allocator@D@2@@std@@V12@@std@@PEAX@std@@@std@@AEAU?$pair@$$CBV?$basic_string@DU?$char_traits@D@std@@V?$allocator@D@2@@std@@V12@@2@@?$_Tree_node@U?$pair@$$CBV?$basic_string@DU?$char_traits@D@std@@V?$allocator@D@2@@std@@V12@@std@@PEAX@std@@SAPEAU01@AEAV?$allocator@U?$_Tree_node@U?$pair@$$CBV?$basic_string@DU?$char_traits@D@std@@V?$allocator@D@2@@std@@V12@@std@@PEAX@std@@@1@PEAU01@AEAU?$pair@$$CBV?$basic_string@DU?$char_traits@D@std@@V?$allocator@D@2@@std@@V12@@1@@Z
	??$_Buynode@V?$allocator@U?$_Tree_node@VStringRef@Catch@@PEAX@std@@@std@@AEAVStringRef@Catch@@@?$_Tree_node@VStringRef@Catch@@PEAX@std@@SAPEAU01@AEAV?$allocator@U?$_Tree_node@VStringRef@Catch@@PEAX@std@@@1@PEAU01@AEAVStringRef@Catch@@@Z
	??$_Checked_popcount@_K@std@@YAH_K@Z
	??$_Cmp_chrange@PEBDPEBDU?$_Cmp_collate@V?$regex_traits@D@std@@@std@@@std@@YAPEBDPEBD000U?$_Cmp_collate@V?$regex_traits@D@std@@@0@@Z
	??$_Cmp_chrange@PEBDPEBDU?$_Cmp_cs@V?$regex_traits@D@std@@@std@@@std@@YAPEBDPEBD000U?$_Cmp_cs@V?$regex_traits@D@std@@@0@@Z
	??$_Cmp_chrange@PEBDPEBDU?$_Cmp_icase@V?$regex_traits@D@std@@@std@@@std@@YAPEBDPEBD000U?$_Cmp_icase@V?$regex_traits@D@std@@@0@@Z
	??$_Compare@PEBDPEBDV?$regex_traits@D@std@@@std@@YAPEBDPEBD000AEBV?$regex_traits@D@0@W4syntax_option_type@regex_constants@0@@Z
	??$_Construct@$00PEAD@?$basic_string@DU?$char_traits@D@std@@V?$allocator@D@2@@std@@AEAAXQEAD_K@Z
	??$_Construct@$00PEBD@?$basic_string@DU?$char_traits@D@std@@V?$allocator@D@2@@std@@AEAAXQEBD_K@Z
	??$_Construct@$00PEB_W@?$basic_string@_WU?$char_traits@_W@std@@V?$allocator@_W@2@@std@@AEAAXQEB_W_K@Z
	??$_Construct@$01PEBD@?$basic_string@DU?$char_traits@D@std@@V?$allocator@D@2@@std@@AEAAXQEBD_K@Z
	??$_Construct@$0A@D@?$basic_string@DU?$char_traits@D@std@@V?$allocator@D@2@@std@@AEAAXD_K@Z
	??$_Construct_from_weak@U_Task_impl_base@details@Concurrency@@@?$_Ptr_base@U_Task_impl_base@details@Concurrency@@@std@@IEAA_NAEBV?$weak_ptr@U_Task_impl_base@details@Concurrency@@@1@@Z
	??$_Construct_in_place@NAEBN@std@@YAXAEANAEBN@Z
	??$_Construct_in_place@NN@std@@YAXAEAN$$QEAN@Z
	??$_Construct_in_place@PEADAEAPEAD@std@@YAXAEAPEAD0@Z
	??$_Construct_in_place@PEADAEBQEAD@std@@YAXAEAPEADAEBQEAD@Z
	??$_Construct_in_place@PEAU?$_Tree_node@PEBUTestCaseInfo@Catch@@PEAX@std@@AEAPEAU12@@std@@YAXAEAPEAU?$_Tree_node@PEBUTestCaseInfo@Catch@@PEAX@0@0@Z
	??$_Construct_in_place@PEAU?$_Tree_node@PEBUTestCaseInfo@Catch@@PEAX@std@@AEBQEAU12@@std@@YAXAEAPEAU?$_Tree_node@PEBUTestCaseInfo@Catch@@PEAX@0@AEBQEAU10@@Z
	??$_Construct_in_place@PEAU?$_Tree_node@PEBVTestCaseHandle@Catch@@PEAX@std@@AEAPEAU12@@std@@YAXAEAPEAU?$_Tree_node@PEBVTestCaseHandle@Catch@@PEAX@0@0@Z
	??$_Construct_in_place@PEAU?$_Tree_node@PEBVTestCaseHandle@Catch@@PEAX@std@@AEBQEAU12@@std@@YAXAEAPEAU?$_Tree_node@PEBVTestCaseHandle@Catch@@PEAX@0@AEBQEAU10@@Z
	??$_Construct_in_place@PEAU?$_Tree_node@U?$pair@$$CBV?$basic_string@DU?$char_traits@D@std@@V?$allocator@D@2@@std@@UTagAlias@Catch@@@std@@PEAX@std@@AEAPEAU12@@std@@YAXAEAPEAU?$_Tree_node@U?$pair@$$CBV?$basic_string@DU?$char_traits@D@std@@V?$allocator@D@2@@std@@UTagAlias@Catch@@@std@@PEAX@0@0@Z
	??$_Construct_in_place@PEAU?$_Tree_node@U?$pair@$$CBV?$basic_string@DU?$char_traits@D@std@@V?$allocator@D@2@@std@@UTagAlias@Catch@@@std@@PEAX@std@@AEBQEAU12@@std@@YAXAEAPEAU?$_Tree_node@U?$pair@$$CBV?$basic_string@DU?$char_traits@D@std@@V?$allocator@D@2@@std@@UTagAlias@Catch@@@std@@PEAX@0@AEBQEAU10@@Z
	??$_Construct_in_place@PEAU?$_Tree_node@U?$pair@$$CBV?$basic_string@DU?$char_traits@D@std@@V?$allocator@D@2@@std@@V12@@std@@PEAX@std@@AEAPEAU12@@std@@YAXAEAPEAU?$_Tree_node@U?$pair@$$CBV?$basic_string@DU?$char_traits@D@std@@V?$allocator@D@2@@std@@V12@@std@@PEAX@0@0@Z
	??$_Construct_in_place@PEAU?$_Tree_node@U?$pair@$$CBV?$basic_string@DU?$char_traits@D@std@@V?$allocator@D@2@@std@@V12@@std@@PEAX@std@@AEBQEAU12@@std@@YAXAEAPEAU?$_Tree_node@U?$pair@$$CBV?$basic_string@DU?$char_traits@D@std@@V?$allocator@D@2@@std@@V12@@std@@PEAX@0@AEBQEAU10@@Z
	??$_Construct_in_place@PEAU?$_Tree_node@U?$pair@$$CBV?$basic_string@DU?$char_traits@D@std@@V?$allocator@D@2@@std@@V?$unique_ptr@VIReporterFactory@Catch@@@Detail@Catch@@@std@@PEAX@std@@AEAPEAU12@@std@@YAXAEAPEAU?$_Tree_node@U?$pair@$$CBV?$basic_string@DU?$char_traits@D@std@@V?$allocator@D@2@@std@@V?$unique_ptr@VIReporterFactory@Catch@@@Detail@Catch@@@std@@PEAX@0@0@Z
	??$_Construct_in_place@PEAU?$_Tree_node@U?$pair@$$CBV?$basic_string@DU?$char_traits@D@std@@V?$allocator@D@2@@std@@V?$unique_ptr@VIReporterFactory@Catch@@@Detail@Catch@@@std@@PEAX@std@@AEBQEAU12@@std@@YAXAEAPEAU?$_Tree_node@U?$pair@$$CBV?$basic_string@DU?$char_traits@D@std@@V?$allocator@D@2@@std@@V?$unique_ptr@VIReporterFactory@Catch@@@Detail@Catch@@@std@@PEAX@0@AEBQEAU10@@Z
	??$_Construct_in_place@PEAU?$_Tree_node@U?$pair@$$CBVStringRef@Catch@@UTagInfo@2@@std@@PEAX@std@@AEAPEAU12@@std@@YAXAEAPEAU?$_Tree_node@U?$pair@$$CBVStringRef@Catch@@UTagInfo@2@@std@@PEAX@0@0@Z
	??$_Construct_in_place@PEAU?$_Tree_node@U?$pair@$$CBVStringRef@Catch@@UTagInfo@2@@std@@PEAX@std@@AEBQEAU12@@std@@YAXAEAPEAU?$_Tree_node@U?$pair@$$CBVStringRef@Catch@@UTagInfo@2@@std@@PEAX@0@AEBQEAU10@@Z
	??$_Construct_in_place@PEAU?$_Tree_node@U?$pair@$$CBVStringRef@Catch@@V?$vector@PEBU?$Node@UTestCaseStats@Catch@@USectionNode@CumulativeReporterBase@2@@CumulativeReporterBase@Catch@@V?$allocator@PEBU?$Node@UTestCaseStats@Catch@@USectionNode@CumulativeReporterBase@2@@CumulativeReporterBase@Catch@@@std@@@std@@@std@@PEAX@std@@AEAPEAU12@@std@@YAXAEAPEAU?$_Tree_node@U?$pair@$$CBVStringRef@Catch@@V?$vector@PEBU?$Node@UTestCaseStats@Catch@@USectionNode@CumulativeReporterBase@2@@CumulativeReporterBase@Catch@@V?$allocator@PEBU?$Node@UTestCaseStats@Catch@@USectionNode@CumulativeReporterBase@2@@CumulativeReporterBase@Catch@@@std@@@std@@@std@@PEAX@0@0@Z
	??$_Construct_in_place@PEAU?$_Tree_node@U?$pair@$$CBVStringRef@Catch@@V?$vector@PEBU?$Node@UTestCaseStats@Catch@@USectionNode@CumulativeReporterBase@2@@CumulativeReporterBase@Catch@@V?$allocator@PEBU?$Node@UTestCaseStats@Catch@@USectionNode@CumulativeReporterBase@2@@CumulativeReporterBase@Catch@@@std@@@std@@@std@@PEAX@std@@AEBQEAU12@@std@@YAXAEAPEAU?$_Tree_node@U?$pair@$$CBVStringRef@Catch@@V?$vector@PEBU?$Node@UTestCaseStats@Catch@@USectionNode@CumulativeReporterBase@2@@CumulativeReporterBase@Catch@@V?$allocator@PEBU?$Node@UTestCaseStats@Catch@@USectionNode@CumulativeReporterBase@2@@CumulativeReporterBase@Catch@@@std@@@std@@@std@@PEAX@0@AEBQEAU10@@Z
	??$_Construct_in_place@PEAU?$_Tree_node@VStringRef@Catch@@PEAX@std@@AEAPEAU12@@std@@YAXAEAPEAU?$_Tree_node@VStringRef@Catch@@PEAX@0@0@Z
	??$_Construct_in_place@PEAU?$_Tree_node@VStringRef@Catch@@PEAX@std@@AEBQEAU12@@std@@YAXAEAPEAU?$_Tree_node@VStringRef@Catch@@PEAX@0@AEBQEAU10@@Z
	??$_Construct_in_place@PEAUISingleton@Catch@@AEBQEAU12@@std@@YAXAEAPEAUISingleton@Catch@@AEBQEAU12@@Z
	??$_Construct_in_place@PEAUSectionNode@CumulativeReporterBase@Catch@@AEBQEAU123@@std@@YAXAEAPEAUSectionNode@CumulativeReporterBase@Catch@@AEBQEAU123@@Z
	??$_Construct_in_place@PEAUTestCaseInfo@Catch@@PEAU12@@std@@YAXAEAPEAUTestCaseInfo@Catch@@$$QEAPEAU12@@Z
	??$_Construct_in_place@PEAVITracker@TestCaseTracking@Catch@@PEAV123@@std@@YAXAEAPEAVITracker@TestCaseTracking@Catch@@$$QEAPEAV123@@Z
	??$_Construct_in_place@PEA_WAEBQEA_W@std@@YAXAEAPEA_WAEBQEA_W@Z
	??$_Construct_in_place@PEBU?$Node@UTestCaseStats@Catch@@USectionNode@CumulativeReporterBase@2@@CumulativeReporterBase@Catch@@PEBU123@@std@@YAXAEAPEBU?$Node@UTestCaseStats@Catch@@USectionNode@CumulativeReporterBase@2@@CumulativeReporterBase@Catch@@$$QEAPEBU123@@Z
	??$_Construct_in_place@PEBVTestCaseHandle@Catch@@PEBV12@@std@@YAXAEAPEBVTestCaseHandle@Catch@@$$QEAPEBV12@@Z
	??$_Construct_in_place@U?$BoundValueRef@I@Detail@Clara@Catch@@AEAI@std@@YAXAEAU?$BoundValueRef@I@Detail@Clara@Catch@@AEAI@Z
	??$_Construct_in_place@U?$BoundValueRef@N@Detail@Clara@Catch@@AEAN@std@@YAXAEAU?$BoundValueRef@N@Detail@Clara@Catch@@AEAN@Z
	??$_Construct_in_place@U?$BoundValueRef@V?$basic_string@DU?$char_traits@D@std@@V?$allocator@D@2@@std@@@Detail@Clara@Catch@@AEAV?$basic_string@DU?$char_traits@D@std@@V?$allocator@D@2@@std@@@std@@YAXAEAU?$BoundValueRef@V?$basic_string@DU?$char_traits@D@std@@V?$allocator@D@2@@std@@@Detail@Clara@Catch@@AEAV?$basic_string@DU?$char_traits@D@std@@V?$allocator@D@2@@0@@Z
	??$_Construct_in_place@U?$BoundValueRef@V?$vector@V?$basic_string@DU?$char_traits@D@std@@V?$allocator@D@2@@std@@V?$allocator@V?$basic_string@DU?$char_traits@D@std@@V?$allocator@D@2@@std@@@2@@std@@@Detail@Clara@Catch@@AEAV?$vector@V?$basic_string@DU?$char_traits@D@std@@V?$allocator@D@2@@std@@V?$allocator@V?$basic_string@DU?$char_traits@D@std@@V?$allocator@D@2@@std@@@2@@std@@@std@@YAXAEAU?$BoundValueRef@V?$vector@V?$basic_string@DU?$char_traits@D@std@@V?$allocator@D@2@@std@@V?$allocator@V?$basic_string@DU?$char_traits@D@std@@V?$allocator@D@2@@std@@@2@@std@@@Detail@Clara@Catch@@AEAV?$vector@V?$basic_string@DU?$char_traits@D@std@@V?$allocator@D@2@@std@@V?$allocator@V?$basic_string@DU?$char_traits@D@std@@V?$allocator@D@2@@std@@@2@@0@@Z
	??$_Construct_in_place@U?$BoundValueRef@_J@Detail@Clara@Catch@@AEA_J@std@@YAXAEAU?$BoundValueRef@_J@Detail@Clara@Catch@@AEA_J@Z
	??$_Construct_in_place@U?$_Task_impl@E@details@Concurrency@@AEAPEAV_CancellationTokenState@23@AEAUscheduler_ptr@3@@std@@YAXAEAU?$_Task_impl@E@details@Concurrency@@AEAPEAV_CancellationTokenState@23@AEAUscheduler_ptr@3@@Z
	??$_Construct_in_place@U?$pair@HVStringRef@Catch@@@std@@AEAHAEBVStringRef@Catch@@@std@@YAXAEAU?$pair@HVStringRef@Catch@@@0@AEAHAEBVStringRef@Catch@@@Z
	??$_Construct_in_place@U?$pair@_KVTestCaseHandle@Catch@@@std@@IAEBVTestCaseHandle@Catch@@@std@@YAXAEAU?$pair@_KVTestCaseHandle@Catch@@@0@$$QEAIAEBVTestCaseHandle@Catch@@@Z
	??$_Construct_in_place@UBoundFlagRef@Detail@Clara@Catch@@AEA_N@std@@YAXAEAUBoundFlagRef@Detail@Clara@Catch@@AEA_N@Z
	??$_Construct_in_place@UFilter@TestSpec@Catch@@U123@@std@@YAXAEAUFilter@TestSpec@Catch@@$$QEAU123@@Z
	??$_Construct_in_place@UFilterMatch@TestSpec@Catch@@U123@@std@@YAXAEAUFilterMatch@TestSpec@Catch@@$$QEAU123@@Z
	??$_Construct_in_place@UListenerDescription@Catch@@U12@@std@@YAXAEAUListenerDescription@Catch@@$$QEAU12@@Z
	??$_Construct_in_place@UMessageInfo@Catch@@U12@@std@@YAXAEAUMessageInfo@Catch@@$$QEAU12@@Z
	??$_Construct_in_place@UReporterDescription@Catch@@U12@@std@@YAXAEAUReporterDescription@Catch@@$$QEAU12@@Z
	??$_Construct_in_place@USectionEndInfo@Catch@@U12@@std@@YAXAEAUSectionEndInfo@Catch@@$$QEAU12@@Z
	??$_Construct_in_place@UToken@Detail@Clara@Catch@@U1234@@std@@YAXAEAUToken@Detail@Clara@Catch@@$$QEAU1234@@Z
	??$_Construct_in_place@U_Container_proxy@std@@PEAU_Container_base12@2@@std@@YAXAEAU_Container_proxy@0@$$QEAPEAU_Container_base12@0@@Z
	??$_Construct_in_place@U_ExceptionHolder@details@Concurrency@@AEBVexception_ptr@std@@V_TaskCreationCallstack@23@@std@@YAXAEAU_ExceptionHolder@details@Concurrency@@AEBVexception_ptr@0@$$QEAV_TaskCreationCallstack@23@@Z
	??$_Construct_in_place@V?$basic_string@DU?$char_traits@D@std@@V?$allocator@D@2@@std@@$$V@std@@YAXAEAV?$basic_string@DU?$char_traits@D@std@@V?$allocator@D@2@@0@@Z
	??$_Construct_in_place@V?$basic_string@DU?$char_traits@D@std@@V?$allocator@D@2@@std@@AEAY0N@$$CBD@std@@YAXAEAV?$basic_string@DU?$char_traits@D@std@@V?$allocator@D@2@@0@AEAY0N@$$CBD@Z
	??$_Construct_in_place@V?$basic_string@DU?$char_traits@D@std@@V?$allocator@D@2@@std@@V12@@std@@YAXAEAV?$basic_string@DU?$char_traits@D@std@@V?$allocator@D@2@@0@$$QEAV10@@Z
	??$_Construct_in_place@V?$unique_ptr@$$CBVIExceptionTranslator@Catch@@@Detail@Catch@@V123@@std@@YAXAEAV?$unique_ptr@$$CBVIExceptionTranslator@Catch@@@Detail@Catch@@$$QEAV123@@Z
	??$_Construct_in_place@V?$unique_ptr@U?$Node@UTestCaseStats@Catch@@USectionNode@CumulativeReporterBase@2@@CumulativeReporterBase@Catch@@@Detail@Catch@@V123@@std@@YAXAEAV?$unique_ptr@U?$Node@UTestCaseStats@Catch@@USectionNode@CumulativeReporterBase@2@@CumulativeReporterBase@Catch@@@Detail@Catch@@$$QEAV123@@Z
	??$_Construct_in_place@V?$unique_ptr@UEnumInfo@Detail@Catch@@@Detail@Catch@@V123@@std@@YAXAEAV?$unique_ptr@UEnumInfo@Detail@Catch@@@Detail@Catch@@$$QEAV123@@Z
	??$_Construct_in_place@V?$unique_ptr@USectionNode@CumulativeReporterBase@Catch@@@Detail@Catch@@V123@@std@@YAXAEAV?$unique_ptr@USectionNode@CumulativeReporterBase@Catch@@@Detail@Catch@@$$QEAV123@@Z
	??$_Construct_in_place@V?$unique_ptr@UTestCaseInfo@Catch@@@Detail@Catch@@V123@@std@@YAXAEAV?$unique_ptr@UTestCaseInfo@Catch@@@Detail@Catch@@$$QEAV123@@Z
	??$_Construct_in_place@V?$unique_ptr@V?$basic_ostringstream@DU?$char_traits@D@std@@V?$allocator@D@2@@std@@@Detail@Catch@@V123@@std@@YAXAEAV?$unique_ptr@V?$basic_ostringstream@DU?$char_traits@D@std@@V?$allocator@D@2@@std@@@Detail@Catch@@$$QEAV123@@Z
	??$_Construct_in_place@V?$unique_ptr@VEventListenerFactory@Catch@@@Detail@Catch@@V123@@std@@YAXAEAV?$unique_ptr@VEventListenerFactory@Catch@@@Detail@Catch@@$$QEAV123@@Z
	??$_Construct_in_place@V?$unique_ptr@VIEventListener@Catch@@@Detail@Catch@@V123@@std@@YAXAEAV?$unique_ptr@VIEventListener@Catch@@@Detail@Catch@@$$QEAV123@@Z
	??$_Construct_in_place@V?$unique_ptr@VITestInvoker@Catch@@@Detail@Catch@@V123@@std@@YAXAEAV?$unique_ptr@VITestInvoker@Catch@@@Detail@Catch@@$$QEAV123@@Z
	??$_Construct_in_place@V?$unique_ptr@VITracker@TestCaseTracking@Catch@@@Detail@Catch@@V123@@std@@YAXAEAV?$unique_ptr@VITracker@TestCaseTracking@Catch@@@Detail@Catch@@$$QEAV123@@Z
	??$_Construct_in_place@VStringRef@Catch@@V12@@std@@YAXAEAVStringRef@Catch@@$$QEAV12@@Z
	??$_Construct_in_place@VTestCaseHandle@Catch@@AEBV12@@std@@YAXAEAVTestCaseHandle@Catch@@AEBV12@@Z
	??$_Construct_in_place@Vconst_iterator@Column@TextFlow@Catch@@V1234@@std@@YAXAEAVconst_iterator@Column@TextFlow@Catch@@$$QEAV1234@@Z
	??$_Construct_in_place@Vexception_ptr@std@@AEBV12@@std@@YAXAEAVexception_ptr@0@AEBV10@@Z
	??$_Construct_in_place@_KAEB_K@std@@YAXAEA_KAEB_K@Z
	??$_Construct_n@AEBI@?$vector@IV?$allocator@I@std@@@std@@AEAAX_KAEBI@Z
	??$_Construct_n@AEBQEAIAEBQEAI@?$vector@IV?$allocator@I@std@@@std@@AEAAX_KAEBQEAI1@Z
	??$_Construct_n@AEBQEAPEAXAEBQEAPEAX@?$vector@PEAXV?$allocator@PEAX@std@@@std@@AEAAX_KAEBQEAPEAX1@Z
	??$_Construct_n@AEBQEAPEBVTestCaseHandle@Catch@@AEBQEAPEBV12@@?$vector@PEBVTestCaseHandle@Catch@@V?$allocator@PEBVTestCaseHandle@Catch@@@std@@@std@@AEAAX_KAEBQEAPEBVTestCaseHandle@Catch@@1@Z
	??$_Construct_n@AEBQEAUMessageInfo@Catch@@AEBQEAU12@@?$vector@UMessageInfo@Catch@@V?$allocator@UMessageInfo@Catch@@@std@@@std@@AEAAX_KAEBQEAUMessageInfo@Catch@@1@Z
	??$_Construct_n@AEBQEAUToken@Detail@Clara@Catch@@AEBQEAU1234@@?$vector@UToken@Detail@Clara@Catch@@V?$allocator@UToken@Detail@Clara@Catch@@@std@@@std@@AEAAX_KAEBQEAUToken@Detail@Clara@Catch@@1@Z
	??$_Construct_n@AEBQEAU_Grp_t@?$_Tgt_state_t@PEBD@std@@AEBQEAU123@@?$vector@U_Grp_t@?$_Tgt_state_t@PEBD@std@@V?$allocator@U_Grp_t@?$_Tgt_state_t@PEBD@std@@@3@@std@@AEAAX_KAEBQEAU_Grp_t@?$_Tgt_state_t@PEBD@1@1@Z
	??$_Construct_n@AEBQEAV?$basic_string@DU?$char_traits@D@std@@V?$allocator@D@2@@std@@AEBQEAV12@@?$vector@V?$basic_string@DU?$char_traits@D@std@@V?$allocator@D@2@@std@@V?$allocator@V?$basic_string@DU?$char_traits@D@std@@V?$allocator@D@2@@std@@@2@@std@@AEAAX_KAEBQEAV?$basic_string@DU?$char_traits@D@std@@V?$allocator@D@2@@1@1@Z
	??$_Construct_n@AEBQEAV?$duration@NU?$ratio@$00$0DLJKMKAA@@std@@@chrono@std@@AEBQEAV123@@?$vector@V?$duration@NU?$ratio@$00$0DLJKMKAA@@std@@@chrono@std@@V?$allocator@V?$duration@NU?$ratio@$00$0DLJKMKAA@@std@@@chrono@std@@@3@@std@@AEAAX_KAEBQEAV?$duration@NU?$ratio@$00$0DLJKMKAA@@std@@@chrono@1@1@Z
	??$_Construct_n@AEBQEAVArg@Clara@Catch@@AEBQEAV123@@?$vector@VArg@Clara@Catch@@V?$allocator@VArg@Clara@Catch@@@std@@@std@@AEAAX_KAEBQEAVArg@Clara@Catch@@1@Z
	??$_Construct_n@AEBQEAVColumn@TextFlow@Catch@@AEBQEAV123@@?$vector@VColumn@TextFlow@Catch@@V?$allocator@VColumn@TextFlow@Catch@@@std@@@std@@AEAAX_KAEBQEAVColumn@TextFlow@Catch@@1@Z
	??$_Construct_n@AEBQEAVOpt@Clara@Catch@@AEBQEAV123@@?$vector@VOpt@Clara@Catch@@V?$allocator@VOpt@Clara@Catch@@@std@@@std@@AEAAX_KAEBQEAVOpt@Clara@Catch@@1@Z
	??$_Construct_n@AEBQEAVReporterSpec@Catch@@AEBQEAV12@@?$vector@VReporterSpec@Catch@@V?$allocator@VReporterSpec@Catch@@@std@@@std@@AEAAX_KAEBQEAVReporterSpec@Catch@@1@Z
	??$_Construct_n@AEBQEAVTestCaseHandle@Catch@@AEBQEAV12@@?$vector@VTestCaseHandle@Catch@@V?$allocator@VTestCaseHandle@Catch@@@std@@@std@@AEAAX_KAEBQEAVTestCaseHandle@Catch@@1@Z
	??$_Construct_n@AEBQEAVconst_iterator@Column@TextFlow@Catch@@AEBQEAV1234@@?$vector@Vconst_iterator@Column@TextFlow@Catch@@V?$allocator@Vconst_iterator@Column@TextFlow@Catch@@@std@@@std@@AEAAX_KAEBQEAVconst_iterator@Column@TextFlow@Catch@@1@Z
	??$_Construct_n@PEADPEAD@?$vector@DV?$allocator@D@std@@@std@@AEAAX_K$$QEAPEAD1@Z
	??$_Construct_n@PEBDPEBD@?$vector@DV?$allocator@D@std@@@std@@AEAAX_K$$QEAPEBD1@Z
	??$_Construct_n@PEBNPEBN@?$vector@NV?$allocator@N@std@@@std@@AEAAX_K$$QEAPEBN1@Z
	??$_Construct_n@PEBQEBDPEBQEBD@?$vector@V?$basic_string@DU?$char_traits@D@std@@V?$allocator@D@2@@std@@V?$allocator@V?$basic_string@DU?$char_traits@D@std@@V?$allocator@D@2@@std@@@2@@std@@AEAAX_K$$QEAPEBQEBD1@Z
	??$_Construct_n@PEBUHelpColumns@Detail@Clara@Catch@@PEBU1234@@?$vector@UHelpColumns@Detail@Clara@Catch@@V?$allocator@UHelpColumns@Detail@Clara@Catch@@@std@@@std@@AEAAX_K$$QEAPEBUHelpColumns@Detail@Clara@Catch@@1@Z
	??$_Construct_n@PEBV?$basic_string@DU?$char_traits@D@std@@V?$allocator@D@2@@std@@PEBV12@@?$vector@V?$basic_string@DU?$char_traits@D@std@@V?$allocator@D@2@@std@@V?$allocator@V?$basic_string@DU?$char_traits@D@std@@V?$allocator@D@2@@std@@@2@@std@@AEAAX_K$$QEAPEBV?$basic_string@DU?$char_traits@D@std@@V?$allocator@D@2@@1@1@Z
	??$_Construct_n@PEBVTestCaseHandle@Catch@@PEBV12@@?$vector@VTestCaseHandle@Catch@@V?$allocator@VTestCaseHandle@Catch@@@std@@@std@@AEAAX_K$$QEAPEBVTestCaseHandle@Catch@@1@Z
	??$_Convert_size@_K_K@std@@YA_K_K@Z
	??$_Copy@$0A@@?$_Tree@V?$_Tmap_traits@V?$basic_string@DU?$char_traits@D@std@@V?$allocator@D@2@@std@@V12@U?$less@V?$basic_string@DU?$char_traits@D@std@@V?$allocator@D@2@@std@@@2@V?$allocator@U?$pair@$$CBV?$basic_string@DU?$char_traits@D@std@@V?$allocator@D@2@@std@@V12@@std@@@2@$0A@@std@@@std@@IEAAXAEBV01@@Z
	??$_Copy@$0A@@?$_Tree@V?$_Tset_traits@PEBVTestCaseHandle@Catch@@U?$less@PEBVTestCaseHandle@Catch@@@std@@V?$allocator@PEBVTestCaseHandle@Catch@@@4@$0A@@std@@@std@@IEAAXAEBV01@@Z
	??$_Copy@$0A@@?$_Tree@V?$_Tset_traits@VStringRef@Catch@@U?$less@VStringRef@Catch@@@std@@V?$allocator@VStringRef@Catch@@@4@$0A@@std@@@std@@IEAAXAEBV01@@Z
	??$_Copy_backward_memmove@PEANPEAN@std@@YAPEANPEAN00@Z
	??$_Copy_backward_memmove@PEAUTag@Catch@@PEAU12@@std@@YAPEAUTag@Catch@@PEAU12@00@Z
	??$_Copy_backward_memmove@PEAVStringRef@Catch@@PEAV12@@std@@YAPEAVStringRef@Catch@@PEAV12@00@Z
	??$_Copy_backward_memmove@PEAVTestCaseHandle@Catch@@PEAV12@@std@@YAPEAVTestCaseHandle@Catch@@PEAV12@00@Z
	??$_Copy_backward_unchecked@V?$_Vb_iterator@U?$_Wrap_alloc@V?$allocator@I@std@@@std@@@std@@V12@@std@@YA?AV?$_Vb_iterator@U?$_Wrap_alloc@V?$allocator@I@std@@@std@@@0@V10@00@Z
	??$_Copy_construct_from@U?$_Task_impl@E@details@Concurrency@@@?$_Ptr_base@U?$_Task_impl@E@details@Concurrency@@@std@@IEAAXAEBV?$shared_ptr@U?$_Task_impl@E@details@Concurrency@@@1@@Z
	??$_Copy_construct_from@UBoundRef@Detail@Clara@Catch@@@?$_Ptr_base@UBoundRef@Detail@Clara@Catch@@@std@@IEAAXAEBV?$shared_ptr@UBoundRef@Detail@Clara@Catch@@@1@@Z
	??$_Copy_construct_from@UBoundValueRefBase@Detail@Clara@Catch@@@?$_Ptr_base@UBoundValueRefBase@Detail@Clara@Catch@@@std@@IEAAXAEBV?$shared_ptr@UBoundValueRefBase@Detail@Clara@Catch@@@1@@Z
	??$_Copy_construct_from@U_ExceptionHolder@details@Concurrency@@@?$_Ptr_base@U_ExceptionHolder@details@Concurrency@@@std@@IEAAXAEBV?$shared_ptr@U_ExceptionHolder@details@Concurrency@@@1@@Z
	??$_Copy_construct_from@U_Task_impl_base@details@Concurrency@@@?$_Ptr_base@U_Task_impl_base@details@Concurrency@@@std@@IEAAXAEBV?$shared_ptr@U_Task_impl_base@details@Concurrency@@@1@@Z
	??$_Copy_construct_from@Uscheduler_interface@Concurrency@@@?$_Ptr_base@Uscheduler_interface@Concurrency@@@std@@IEAAXAEBV?$shared_ptr@Uscheduler_interface@Concurrency@@@1@@Z
	??$_Copy_construct_from@V?$basic_string@DU?$char_traits@D@std@@V?$allocator@D@2@@std@@@?$_Ptr_base@V?$basic_string@DU?$char_traits@D@std@@V?$allocator@D@2@@std@@@std@@IEAAXAEBV?$shared_ptr@V?$basic_string@DU?$char_traits@D@std@@V?$allocator@D@2@@std@@@1@@Z
	??$_Copy_memmove@PEADPEAD@std@@YAPEADPEAD00@Z
	??$_Copy_memmove@PEAIPEAI@std@@YAPEAIPEAI00@Z
	??$_Copy_memmove@PEANPEAN@std@@YAPEANPEAN00@Z
	??$_Copy_memmove@PEAPEADPEAPEAD@std@@YAPEAPEADPEAPEAD00@Z
	??$_Copy_memmove@PEAPEAUISingleton@Catch@@PEAPEAU12@@std@@YAPEAPEAUISingleton@Catch@@PEAPEAU12@00@Z
	??$_Copy_memmove@PEAPEAUSectionNode@CumulativeReporterBase@Catch@@PEAPEAU123@@std@@YAPEAPEAUSectionNode@CumulativeReporterBase@Catch@@PEAPEAU123@00@Z
	??$_Copy_memmove@PEAPEAUTestCaseInfo@Catch@@PEAPEAU12@@std@@YAPEAPEAUTestCaseInfo@Catch@@PEAPEAU12@00@Z
	??$_Copy_memmove@PEAPEAVITracker@TestCaseTracking@Catch@@PEAPEAV123@@std@@YAPEAPEAVITracker@TestCaseTracking@Catch@@PEAPEAV123@00@Z
	??$_Copy_memmove@PEAPEAXPEAPEAX@std@@YAPEAPEAXPEAPEAX00@Z
	??$_Copy_memmove@PEAPEBU?$Node@UTestCaseStats@Catch@@USectionNode@CumulativeReporterBase@2@@CumulativeReporterBase@Catch@@PEAPEBU123@@std@@YAPEAPEBU?$Node@UTestCaseStats@Catch@@USectionNode@CumulativeReporterBase@2@@CumulativeReporterBase@Catch@@PEAPEBU123@00@Z
	??$_Copy_memmove@PEAPEBVTestCaseHandle@Catch@@PEAPEBV12@@std@@YAPEAPEBVTestCaseHandle@Catch@@PEAPEBV12@00@Z
	??$_Copy_memmove@PEAU?$pair@HVStringRef@Catch@@@std@@PEAU12@@std@@YAPEAU?$pair@HVStringRef@Catch@@@0@PEAU10@00@Z
	??$_Copy_memmove@PEAU?$pair@_KVTestCaseHandle@Catch@@@std@@PEAU12@@std@@YAPEAU?$pair@_KVTestCaseHandle@Catch@@@0@PEAU10@00@Z
	??$_Copy_memmove@PEAUTag@Catch@@PEAU12@@std@@YAPEAUTag@Catch@@PEAU12@00@Z
	??$_Copy_memmove@PEAU_Grp_t@?$_Tgt_state_t@PEBD@std@@PEAU123@@std@@YAPEAU_Grp_t@?$_Tgt_state_t@PEBD@0@PEAU120@00@Z
	??$_Copy_memmove@PEAU_Loop_vals_t@std@@PEAU12@@std@@YAPEAU_Loop_vals_t@0@PEAU10@00@Z
	??$_Copy_memmove@PEAV?$duration@NU?$ratio@$00$0DLJKMKAA@@std@@@chrono@std@@PEAV123@@std@@YAPEAV?$duration@NU?$ratio@$00$0DLJKMKAA@@std@@@chrono@0@PEAV120@00@Z
	??$_Copy_memmove@PEAV?$sub_match@PEBD@std@@PEAV12@@std@@YAPEAV?$sub_match@PEBD@0@PEAV10@00@Z
	??$_Copy_memmove@PEAVStringRef@Catch@@PEAV12@@std@@YAPEAVStringRef@Catch@@PEAV12@00@Z
	??$_Copy_memmove@PEAVTestCaseHandle@Catch@@PEAV12@@std@@YAPEAVTestCaseHandle@Catch@@PEAV12@00@Z
	??$_Copy_memmove@PEAVconst_iterator@Column@TextFlow@Catch@@PEAV1234@@std@@YAPEAVconst_iterator@Column@TextFlow@Catch@@PEAV1234@00@Z
	??$_Copy_memmove@PEA_KPEA_K@std@@YAPEA_KPEA_K00@Z
	??$_Copy_memmove@PEBDPEAD@std@@YAPEADPEBD0PEAD@Z
	??$_Copy_memmove@PEBNPEAN@std@@YAPEANPEBN0PEAN@Z
	??$_Copy_memmove@PEBVStringRef@Catch@@PEAV12@@std@@YAPEAVStringRef@Catch@@PEBV12@0PEAV12@@Z
	??$_Copy_memmove@PEBVTestCaseHandle@Catch@@PEAV12@@std@@YAPEAVTestCaseHandle@Catch@@PEBV12@0PEAV12@@Z
	??$_Copy_memmove_n@PEAIPEAI@std@@YAPEAIPEAI_K0@Z
	??$_Copy_memmove_n@PEAPEAXPEAPEAX@std@@YAPEAPEAXPEAPEAX_K0@Z
	??$_Copy_memmove_n@PEAU_Grp_t@?$_Tgt_state_t@PEBD@std@@PEAU123@@std@@YAPEAU_Grp_t@?$_Tgt_state_t@PEBD@0@PEAU120@_K0@Z
	??$_Copy_memmove_n@PEBVStringRef@Catch@@PEAV12@@std@@YAPEAVStringRef@Catch@@PEBV12@_KPEAV12@@Z
	??$_Copy_n_unchecked4@PEAI_KPEAI@std@@YAPEAIPEAI_K0@Z
	??$_Copy_n_unchecked4@PEAPEAX_KPEAPEAX@std@@YAPEAPEAXPEAPEAX_K0@Z
	??$_Copy_n_unchecked4@PEAU_Grp_t@?$_Tgt_state_t@PEBD@std@@_KPEAU123@@std@@YAPEAU_Grp_t@?$_Tgt_state_t@PEBD@0@PEAU120@_K0@Z
	??$_Copy_n_unchecked4@PEAV?$basic_string@DU?$char_traits@D@std@@V?$allocator@D@2@@std@@_KPEAV12@@std@@YAPEAV?$basic_string@DU?$char_traits@D@std@@V?$allocator@D@2@@0@PEAV10@_K0@Z
	??$_Copy_n_unchecked4@PEAVArg@Clara@Catch@@_KPEAV123@@std@@YAPEAVArg@Clara@Catch@@PEAV123@_K0@Z
	??$_Copy_n_unchecked4@PEAVOpt@Clara@Catch@@_KPEAV123@@std@@YAPEAVOpt@Clara@Catch@@PEAV123@_K0@Z
	??$_Copy_n_unchecked4@PEAVReporterSpec@Catch@@_KPEAV12@@std@@YAPEAVReporterSpec@Catch@@PEAV12@_K0@Z
	??$_Copy_nodes@$0A@@?$_Tree@V?$_Tmap_traits@V?$basic_string@DU?$char_traits@D@std@@V?$allocator@D@2@@std@@V12@U?$less@V?$basic_string@DU?$char_traits@D@std@@V?$allocator@D@2@@std@@@2@V?$allocator@U?$pair@$$CBV?$basic_string@DU?$char_traits@D@std@@V?$allocator@D@2@@std@@V12@@std@@@2@$0A@@std@@@std@@IEAAPEAU?$_Tree_node@U?$pair@$$CBV?$basic_string@DU?$char_traits@D@std@@V?$allocator@D@2@@std@@V12@@std@@PEAX@1@PEAU21@0@Z
	??$_Copy_nodes@$0A@@?$_Tree@V?$_Tset_traits@PEBVTestCaseHandle@Catch@@U?$less@PEBVTestCaseHandle@Catch@@@std@@V?$allocator@PEBVTestCaseHandle@Catch@@@4@$0A@@std@@@std@@IEAAPEAU?$_Tree_node@PEBVTestCaseHandle@Catch@@PEAX@1@PEAU21@0@Z
	??$_Copy_nodes@$0A@@?$_Tree@V?$_Tset_traits@VStringRef@Catch@@U?$less@VStringRef@Catch@@@std@@V?$allocator@VStringRef@Catch@@@4@$0A@@std@@@std@@IEAAPEAU?$_Tree_node@VStringRef@Catch@@PEAX@1@PEAU21@0@Z
	??$_Copy_or_move@$0A@PEBVTestCaseHandle@Catch@@@?$_Tree@V?$_Tset_traits@PEBVTestCaseHandle@Catch@@U?$less@PEBVTestCaseHandle@Catch@@@std@@V?$allocator@PEBVTestCaseHandle@Catch@@@4@$0A@@std@@@std@@IEAAPEAU?$_Tree_node@PEBVTestCaseHandle@Catch@@PEAX@1@AEAPEBVTestCaseHandle@Catch@@@Z
	??$_Copy_or_move@$0A@U?$pair@$$CBV?$basic_string@DU?$char_traits@D@std@@V?$allocator@D@2@@std@@V12@@std@@@?$_Tree@V?$_Tmap_traits@V?$basic_string@DU?$char_traits@D@std@@V?$allocator@D@2@@std@@V12@U?$less@V?$basic_string@DU?$char_traits@D@std@@V?$allocator@D@2@@std@@@2@V?$allocator@U?$pair@$$CBV?$basic_string@DU?$char_traits@D@std@@V?$allocator@D@2@@std@@V12@@std@@@2@$0A@@std@@@std@@IEAAPEAU?$_Tree_node@U?$pair@$$CBV?$basic_string@DU?$char_traits@D@std@@V?$allocator@D@2@@std@@V12@@std@@PEAX@1@AEAU?$pair@$$CBV?$basic_string@DU?$char_traits@D@std@@V?$allocator@D@2@@std@@V12@@1@@Z
	??$_Copy_or_move@$0A@VStringRef@Catch@@@?$_Tree@V?$_Tset_traits@VStringRef@Catch@@U?$less@VStringRef@Catch@@@std@@V?$allocator@VStringRef@Catch@@@4@$0A@@std@@@std@@IEAAPEAU?$_Tree_node@VStringRef@Catch@@PEAX@1@AEAVStringRef@Catch@@@Z
	??$_Copy_unchecked@PEBDPEBDPEAD@std@@YAPEADPEBD0PEAD@Z
	??$_Copy_unchecked@V?$_Vb_iterator@U?$_Wrap_alloc@V?$allocator@I@std@@@std@@@std@@V12@V12@@std@@YA?AV?$_Vb_iterator@U?$_Wrap_alloc@V?$allocator@I@std@@@std@@@0@V10@00@Z
	??$_Copy_vbool@V?$_Vb_iterator@U?$_Wrap_alloc@V?$allocator@I@std@@@std@@@std@@V12@@std@@YA?AV?$_Vb_iterator@U?$_Wrap_alloc@V?$allocator@I@std@@@std@@@0@V10@00@Z
	??$_Could_compare_equal_to_value_type@PEBDD@std@@YA_NAEBD@Z
	??$_Could_compare_equal_to_value_type@PEBDE@std@@YA_NAEBE@Z
	??$_Deallocate@$07@std@@YAXPEAX_K@Z
	??$_Deallocate@$0BA@@std@@YAXPEAX_K@Z
	??$_Deallocate_plain@V?$allocator@U_Container_proxy@std@@@std@@@std@@YAXAEAV?$allocator@U_Container_proxy@std@@@0@QEAU_Container_proxy@0@@Z
	??$_Debug_lt_pred@AEAU?$less@X@std@@AEANAEAN@std@@YA_NAEAU?$less@X@0@AEAN1@Z
	??$_Debug_lt_pred@AEAU?$less@X@std@@AEAUTag@Catch@@AEAU34@@std@@YA_NAEAU?$less@X@0@AEAUTag@Catch@@1@Z
	??$_Debug_lt_pred@AEAU?$less@X@std@@AEBUTag@Catch@@AEBU34@@std@@YA_NAEAU?$less@X@0@AEBUTag@Catch@@1@Z
	??$_Debug_lt_pred@AEBU?$less@PEBVTestCaseHandle@Catch@@@std@@AEBQEBVTestCaseHandle@Catch@@AEBQEBV34@@std@@YA_NAEBU?$less@PEBVTestCaseHandle@Catch@@@0@AEBQEBVTestCaseHandle@Catch@@1@Z
	??$_Debug_lt_pred@AEBU?$less@V?$basic_string@DU?$char_traits@D@std@@V?$allocator@D@2@@std@@@std@@AEBV?$basic_string@DU?$char_traits@D@std@@V?$allocator@D@2@@2@AEBV32@@std@@YA_NAEBU?$less@V?$basic_string@DU?$char_traits@D@std@@V?$allocator@D@2@@std@@@0@AEBV?$basic_string@DU?$char_traits@D@std@@V?$allocator@D@2@@0@1@Z
	??$_Debug_lt_pred@AEBU?$less@VStringRef@Catch@@@std@@AEBVStringRef@Catch@@AEBV34@@std@@YA_NAEBU?$less@VStringRef@Catch@@@0@AEBVStringRef@Catch@@1@Z
	??$_Debug_lt_pred@AEBUCaseInsensitiveLess@Detail@Catch@@AEBV?$basic_string@DU?$char_traits@D@std@@V?$allocator@D@2@@std@@AEBV45@@std@@YA_NAEBUCaseInsensitiveLess@Detail@Catch@@AEBV?$basic_string@DU?$char_traits@D@std@@V?$allocator@D@2@@0@1@Z
	??$_Debug_lt_pred@AEBUCaseInsensitiveLess@Detail@Catch@@AEBVStringRef@3@AEBV43@@std@@YA_NAEBUCaseInsensitiveLess@Detail@Catch@@AEBVStringRef@3@1@Z
	??$_Delete_plain_internal@V?$allocator@U_Container_proxy@std@@@std@@@std@@YAXAEAV?$allocator@U_Container_proxy@std@@@0@QEAU_Container_proxy@0@@Z
	??$_Destroy_in_place@PEAD@std@@YAXAEAPEAD@Z
	??$_Destroy_in_place@PEAU?$_Tree_node@PEBUTestCaseInfo@Catch@@PEAX@std@@@std@@YAXAEAPEAU?$_Tree_node@PEBUTestCaseInfo@Catch@@PEAX@0@@Z
	??$_Destroy_in_place@PEAU?$_Tree_node@PEBVTestCaseHandle@Catch@@PEAX@std@@@std@@YAXAEAPEAU?$_Tree_node@PEBVTestCaseHandle@Catch@@PEAX@0@@Z
	??$_Destroy_in_place@PEAU?$_Tree_node@U?$pair@$$CBV?$basic_string@DU?$char_traits@D@std@@V?$allocator@D@2@@std@@UTagAlias@Catch@@@std@@PEAX@std@@@std@@YAXAEAPEAU?$_Tree_node@U?$pair@$$CBV?$basic_string@DU?$char_traits@D@std@@V?$allocator@D@2@@std@@UTagAlias@Catch@@@std@@PEAX@0@@Z
	??$_Destroy_in_place@PEAU?$_Tree_node@U?$pair@$$CBV?$basic_string@DU?$char_traits@D@std@@V?$allocator@D@2@@std@@V12@@std@@PEAX@std@@@std@@YAXAEAPEAU?$_Tree_node@U?$pair@$$CBV?$basic_string@DU?$char_traits@D@std@@V?$allocator@D@2@@std@@V12@@std@@PEAX@0@@Z
	??$_Destroy_in_place@PEAU?$_Tree_node@U?$pair@$$CBV?$basic_string@DU?$char_traits@D@std@@V?$allocator@D@2@@std@@V?$unique_ptr@VIReporterFactory@Catch@@@Detail@Catch@@@std@@PEAX@std@@@std@@YAXAEAPEAU?$_Tree_node@U?$pair@$$CBV?$basic_string@DU?$char_traits@D@std@@V?$allocator@D@2@@std@@V?$unique_ptr@VIReporterFactory@Catch@@@Detail@Catch@@@std@@PEAX@0@@Z
	??$_Destroy_in_place@PEAU?$_Tree_node@U?$pair@$$CBVStringRef@Catch@@UTagInfo@2@@std@@PEAX@std@@@std@@YAXAEAPEAU?$_Tree_node@U?$pair@$$CBVStringRef@Catch@@UTagInfo@2@@std@@PEAX@0@@Z
	??$_Destroy_in_place@PEAU?$_Tree_node@U?$pair@$$CBVStringRef@Catch@@V?$vector@PEBU?$Node@UTestCaseStats@Catch@@USectionNode@CumulativeReporterBase@2@@CumulativeReporterBase@Catch@@V?$allocator@PEBU?$Node@UTestCaseStats@Catch@@USectionNode@CumulativeReporterBase@2@@CumulativeReporterBase@Catch@@@std@@@std@@@std@@PEAX@std@@@std@@YAXAEAPEAU?$_Tree_node@U?$pair@$$CBVStringRef@Catch@@V?$vector@PEBU?$Node@UTestCaseStats@Catch@@USectionNode@CumulativeReporterBase@2@@CumulativeReporterBase@Catch@@V?$allocator@PEBU?$Node@UTestCaseStats@Catch@@USectionNode@CumulativeReporterBase@2@@CumulativeReporterBase@Catch@@@std@@@std@@@std@@PEAX@0@@Z
	??$_Destroy_in_place@PEAU?$_Tree_node@VStringRef@Catch@@PEAX@std@@@std@@YAXAEAPEAU?$_Tree_node@VStringRef@Catch@@PEAX@0@@Z
	??$_Destroy_in_place@PEA_W@std@@YAXAEAPEA_W@Z
	??$_Destroy_in_place@U?$BoundValueRef@I@Detail@Clara@Catch@@@std@@YAXAEAU?$BoundValueRef@I@Detail@Clara@Catch@@@Z
	??$_Destroy_in_place@U?$BoundValueRef@N@Detail@Clara@Catch@@@std@@YAXAEAU?$BoundValueRef@N@Detail@Clara@Catch@@@Z
	??$_Destroy_in_place@U?$BoundValueRef@V?$basic_string@DU?$char_traits@D@std@@V?$allocator@D@2@@std@@@Detail@Clara@Catch@@@std@@YAXAEAU?$BoundValueRef@V?$basic_string@DU?$char_traits@D@std@@V?$allocator@D@2@@std@@@Detail@Clara@Catch@@@Z
	??$_Destroy_in_place@U?$BoundValueRef@V?$vector@V?$basic_string@DU?$char_traits@D@std@@V?$allocator@D@2@@std@@V?$allocator@V?$basic_string@DU?$char_traits@D@std@@V?$allocator@D@2@@std@@@2@@std@@@Detail@Clara@Catch@@@std@@YAXAEAU?$BoundValueRef@V?$vector@V?$basic_string@DU?$char_traits@D@std@@V?$allocator@D@2@@std@@V?$allocator@V?$basic_string@DU?$char_traits@D@std@@V?$allocator@D@2@@std@@@2@@std@@@Detail@Clara@Catch@@@Z
	??$_Destroy_in_place@U?$BoundValueRef@_J@Detail@Clara@Catch@@@std@@YAXAEAU?$BoundValueRef@_J@Detail@Clara@Catch@@@Z
	??$_Destroy_in_place@U?$_Task_impl@E@details@Concurrency@@@std@@YAXAEAU?$_Task_impl@E@details@Concurrency@@@Z
	??$_Destroy_in_place@UBoundFlagRef@Detail@Clara@Catch@@@std@@YAXAEAUBoundFlagRef@Detail@Clara@Catch@@@Z
	??$_Destroy_in_place@U_ExceptionHolder@details@Concurrency@@@std@@YAXAEAU_ExceptionHolder@details@Concurrency@@@Z
	??$_Destroy_in_place@V?$basic_string@DU?$char_traits@D@std@@V?$allocator@D@2@@std@@@std@@YAXAEAV?$basic_string@DU?$char_traits@D@std@@V?$allocator@D@2@@0@@Z
	??$_Destroy_range@PEAPEADPEAPEAD@std@@YAXPEAPEADQEAPEAD@Z
	??$_Destroy_range@V?$allocator@D@std@@@std@@YAXPEADQEADAEAV?$allocator@D@0@@Z
	??$_Destroy_range@V?$allocator@I@std@@@std@@YAXPEAIQEAIAEAV?$allocator@I@0@@Z
	??$_Destroy_range@V?$allocator@N@std@@@std@@YAXPEANQEANAEAV?$allocator@N@0@@Z
	??$_Destroy_range@V?$allocator@PEAUISingleton@Catch@@@std@@@std@@YAXPEAPEAUISingleton@Catch@@QEAPEAU12@AEAV?$allocator@PEAUISingleton@Catch@@@0@@Z
	??$_Destroy_range@V?$allocator@PEAUSectionNode@CumulativeReporterBase@Catch@@@std@@@std@@YAXPEAPEAUSectionNode@CumulativeReporterBase@Catch@@QEAPEAU123@AEAV?$allocator@PEAUSectionNode@CumulativeReporterBase@Catch@@@0@@Z
	??$_Destroy_range@V?$allocator@PEAUTestCaseInfo@Catch@@@std@@@std@@YAXPEAPEAUTestCaseInfo@Catch@@QEAPEAU12@AEAV?$allocator@PEAUTestCaseInfo@Catch@@@0@@Z
	??$_Destroy_range@V?$allocator@PEAVITracker@TestCaseTracking@Catch@@@std@@@std@@YAXPEAPEAVITracker@TestCaseTracking@Catch@@QEAPEAV123@AEAV?$allocator@PEAVITracker@TestCaseTracking@Catch@@@0@@Z
	??$_Destroy_range@V?$allocator@PEAX@std@@@std@@YAXPEAPEAXQEAPEAXAEAV?$allocator@PEAX@0@@Z
	??$_Destroy_range@V?$allocator@PEBU?$Node@UTestCaseStats@Catch@@USectionNode@CumulativeReporterBase@2@@CumulativeReporterBase@Catch@@@std@@@std@@YAXPEAPEBU?$Node@UTestCaseStats@Catch@@USectionNode@CumulativeReporterBase@2@@CumulativeReporterBase@Catch@@QEAPEBU123@AEAV?$allocator@PEBU?$Node@UTestCaseStats@Catch@@USectionNode@CumulativeReporterBase@2@@CumulativeReporterBase@Catch@@@0@@Z
	??$_Destroy_range@V?$allocator@PEBVTestCaseHandle@Catch@@@std@@@std@@YAXPEAPEBVTestCaseHandle@Catch@@QEAPEBV12@AEAV?$allocator@PEBVTestCaseHandle@Catch@@@0@@Z
	??$_Destroy_range@V?$allocator@U?$pair@HVStringRef@Catch@@@std@@@std@@@std@@YAXPEAU?$pair@HVStringRef@Catch@@@0@QEAU10@AEAV?$allocator@U?$pair@HVStringRef@Catch@@@std@@@0@@Z
	??$_Destroy_range@V?$allocator@U?$pair@_KVTestCaseHandle@Catch@@@std@@@std@@@std@@YAXPEAU?$pair@_KVTestCaseHandle@Catch@@@0@QEAU10@AEAV?$allocator@U?$pair@_KVTestCaseHandle@Catch@@@std@@@0@@Z
	??$_Destroy_range@V?$allocator@UFilter@TestSpec@Catch@@@std@@@std@@YAXPEAUFilter@TestSpec@Catch@@QEAU123@AEAV?$allocator@UFilter@TestSpec@Catch@@@0@@Z
	??$_Destroy_range@V?$allocator@UFilterMatch@TestSpec@Catch@@@std@@@std@@YAXPEAUFilterMatch@TestSpec@Catch@@QEAU123@AEAV?$allocator@UFilterMatch@TestSpec@Catch@@@0@@Z
	??$_Destroy_range@V?$allocator@UHelpColumns@Detail@Clara@Catch@@@std@@@std@@YAXPEAUHelpColumns@Detail@Clara@Catch@@QEAU1234@AEAV?$allocator@UHelpColumns@Detail@Clara@Catch@@@0@@Z
	??$_Destroy_range@V?$allocator@UListenerDescription@Catch@@@std@@@std@@YAXPEAUListenerDescription@Catch@@QEAU12@AEAV?$allocator@UListenerDescription@Catch@@@0@@Z
	??$_Destroy_range@V?$allocator@UMessageInfo@Catch@@@std@@@std@@YAXPEAUMessageInfo@Catch@@QEAU12@AEAV?$allocator@UMessageInfo@Catch@@@0@@Z
	??$_Destroy_range@V?$allocator@UProcessedReporterSpec@Catch@@@std@@@std@@YAXPEAUProcessedReporterSpec@Catch@@QEAU12@AEAV?$allocator@UProcessedReporterSpec@Catch@@@0@@Z
	??$_Destroy_range@V?$allocator@UReporterDescription@Catch@@@std@@@std@@YAXPEAUReporterDescription@Catch@@QEAU12@AEAV?$allocator@UReporterDescription@Catch@@@0@@Z
	??$_Destroy_range@V?$allocator@USectionEndInfo@Catch@@@std@@@std@@YAXPEAUSectionEndInfo@Catch@@QEAU12@AEAV?$allocator@USectionEndInfo@Catch@@@0@@Z
	??$_Destroy_range@V?$allocator@USectionInfo@Catch@@@std@@@std@@YAXPEAUSectionInfo@Catch@@QEAU12@AEAV?$allocator@USectionInfo@Catch@@@0@@Z
	??$_Destroy_range@V?$allocator@UTag@Catch@@@std@@@std@@YAXPEAUTag@Catch@@QEAU12@AEAV?$allocator@UTag@Catch@@@0@@Z
	??$_Destroy_range@V?$allocator@UTagInfo@Catch@@@std@@@std@@YAXPEAUTagInfo@Catch@@QEAU12@AEAV?$allocator@UTagInfo@Catch@@@0@@Z
	??$_Destroy_range@V?$allocator@UToken@Detail@Clara@Catch@@@std@@@std@@YAXPEAUToken@Detail@Clara@Catch@@QEAU1234@AEAV?$allocator@UToken@Detail@Clara@Catch@@@0@@Z
	??$_Destroy_range@V?$allocator@U_Grp_t@?$_Tgt_state_t@PEBD@std@@@std@@@std@@YAXPEAU_Grp_t@?$_Tgt_state_t@PEBD@0@QEAU120@AEAV?$allocator@U_Grp_t@?$_Tgt_state_t@PEBD@std@@@0@@Z
	??$_Destroy_range@V?$allocator@U_Loop_vals_t@std@@@std@@@std@@YAXPEAU_Loop_vals_t@0@QEAU10@AEAV?$allocator@U_Loop_vals_t@std@@@0@@Z
	??$_Destroy_range@V?$allocator@V?$basic_string@DU?$char_traits@D@std@@V?$allocator@D@2@@std@@@std@@@std@@YAXPEAV?$basic_string@DU?$char_traits@D@std@@V?$allocator@D@2@@0@QEAV10@AEAV?$allocator@V?$basic_string@DU?$char_traits@D@std@@V?$allocator@D@2@@std@@@0@@Z
	??$_Destroy_range@V?$allocator@V?$duration@NU?$ratio@$00$0DLJKMKAA@@std@@@chrono@std@@@std@@@std@@YAXPEAV?$duration@NU?$ratio@$00$0DLJKMKAA@@std@@@chrono@0@QEAV120@AEAV?$allocator@V?$duration@NU?$ratio@$00$0DLJKMKAA@@std@@@chrono@std@@@0@@Z
	??$_Destroy_range@V?$allocator@V?$sub_match@PEBD@std@@@std@@@std@@YAXPEAV?$sub_match@PEBD@0@QEAV10@AEAV?$allocator@V?$sub_match@PEBD@std@@@0@@Z
	??$_Destroy_range@V?$allocator@V?$unique_ptr@$$CBVIExceptionTranslator@Catch@@@Detail@Catch@@@std@@@std@@YAXPEAV?$unique_ptr@$$CBVIExceptionTranslator@Catch@@@Detail@Catch@@QEAV123@AEAV?$allocator@V?$unique_ptr@$$CBVIExceptionTranslator@Catch@@@Detail@Catch@@@0@@Z
	??$_Destroy_range@V?$allocator@V?$unique_ptr@U?$Node@UTestCaseStats@Catch@@USectionNode@CumulativeReporterBase@2@@CumulativeReporterBase@Catch@@@Detail@Catch@@@std@@@std@@YAXPEAV?$unique_ptr@U?$Node@UTestCaseStats@Catch@@USectionNode@CumulativeReporterBase@2@@CumulativeReporterBase@Catch@@@Detail@Catch@@QEAV123@AEAV?$allocator@V?$unique_ptr@U?$Node@UTestCaseStats@Catch@@USectionNode@CumulativeReporterBase@2@@CumulativeReporterBase@Catch@@@Detail@Catch@@@0@@Z
	??$_Destroy_range@V?$allocator@V?$unique_ptr@UEnumInfo@Detail@Catch@@@Detail@Catch@@@std@@@std@@YAXPEAV?$unique_ptr@UEnumInfo@Detail@Catch@@@Detail@Catch@@QEAV123@AEAV?$allocator@V?$unique_ptr@UEnumInfo@Detail@Catch@@@Detail@Catch@@@0@@Z
	??$_Destroy_range@V?$allocator@V?$unique_ptr@USectionNode@CumulativeReporterBase@Catch@@@Detail@Catch@@@std@@@std@@YAXPEAV?$unique_ptr@USectionNode@CumulativeReporterBase@Catch@@@Detail@Catch@@QEAV123@AEAV?$allocator@V?$unique_ptr@USectionNode@CumulativeReporterBase@Catch@@@Detail@Catch@@@0@@Z
	??$_Destroy_range@V?$allocator@V?$unique_ptr@UTestCaseInfo@Catch@@@Detail@Catch@@@std@@@std@@YAXPEAV?$unique_ptr@UTestCaseInfo@Catch@@@Detail@Catch@@QEAV123@AEAV?$allocator@V?$unique_ptr@UTestCaseInfo@Catch@@@Detail@Catch@@@0@@Z
	??$_Destroy_range@V?$allocator@V?$unique_ptr@V?$basic_ostringstream@DU?$char_traits@D@std@@V?$allocator@D@2@@std@@@Detail@Catch@@@std@@@std@@YAXPEAV?$unique_ptr@V?$basic_ostringstream@DU?$char_traits@D@std@@V?$allocator@D@2@@std@@@Detail@Catch@@QEAV123@AEAV?$allocator@V?$unique_ptr@V?$basic_ostringstream@DU?$char_traits@D@std@@V?$allocator@D@2@@std@@@Detail@Catch@@@0@@Z
	??$_Destroy_range@V?$allocator@V?$unique_ptr@VEventListenerFactory@Catch@@@Detail@Catch@@@std@@@std@@YAXPEAV?$unique_ptr@VEventListenerFactory@Catch@@@Detail@Catch@@QEAV123@AEAV?$allocator@V?$unique_ptr@VEventListenerFactory@Catch@@@Detail@Catch@@@0@@Z
	??$_Destroy_range@V?$allocator@V?$unique_ptr@VIEventListener@Catch@@@Detail@Catch@@@std@@@std@@YAXPEAV?$unique_ptr@VIEventListener@Catch@@@Detail@Catch@@QEAV123@AEAV?$allocator@V?$unique_ptr@VIEventListener@Catch@@@Detail@Catch@@@0@@Z
	??$_Destroy_range@V?$allocator@V?$unique_ptr@VITestInvoker@Catch@@@Detail@Catch@@@std@@@std@@YAXPEAV?$unique_ptr@VITestInvoker@Catch@@@Detail@Catch@@QEAV123@AEAV?$allocator@V?$unique_ptr@VITestInvoker@Catch@@@Detail@Catch@@@0@@Z
	??$_Destroy_range@V?$allocator@V?$unique_ptr@VITracker@TestCaseTracking@Catch@@@Detail@Catch@@@std@@@std@@YAXPEAV?$unique_ptr@VITracker@TestCaseTracking@Catch@@@Detail@Catch@@QEAV123@AEAV?$allocator@V?$unique_ptr@VITracker@TestCaseTracking@Catch@@@Detail@Catch@@@0@@Z
	??$_Destroy_range@V?$allocator@V?$unique_ptr@VPattern@TestSpec@Catch@@@Detail@Catch@@@std@@@std@@YAXPEAV?$unique_ptr@VPattern@TestSpec@Catch@@@Detail@Catch@@QEAV123@AEAV?$allocator@V?$unique_ptr@VPattern@TestSpec@Catch@@@Detail@Catch@@@0@@Z
	??$_Destroy_range@V?$allocator@VArg@Clara@Catch@@@std@@@std@@YAXPEAVArg@Clara@Catch@@QEAV123@AEAV?$allocator@VArg@Clara@Catch@@@0@@Z
	??$_Destroy_range@V?$allocator@VAssertionOrBenchmarkResult@Detail@Catch@@@std@@@std@@YAXPEAVAssertionOrBenchmarkResult@Detail@Catch@@QEAV123@AEAV?$allocator@VAssertionOrBenchmarkResult@Detail@Catch@@@0@@Z
	??$_Destroy_range@V?$allocator@VColumn@TextFlow@Catch@@@std@@@std@@YAXPEAVColumn@TextFlow@Catch@@QEAV123@AEAV?$allocator@VColumn@TextFlow@Catch@@@0@@Z
	??$_Destroy_range@V?$allocator@VOpt@Clara@Catch@@@std@@@std@@YAXPEAVOpt@Clara@Catch@@QEAV123@AEAV?$allocator@VOpt@Clara@Catch@@@0@@Z
	??$_Destroy_range@V?$allocator@VReporterSpec@Catch@@@std@@@std@@YAXPEAVReporterSpec@Catch@@QEAV12@AEAV?$allocator@VReporterSpec@Catch@@@0@@Z
	??$_Destroy_range@V?$allocator@VScopedMessage@Catch@@@std@@@std@@YAXPEAVScopedMessage@Catch@@QEAV12@AEAV?$allocator@VScopedMessage@Catch@@@0@@Z
	??$_Destroy_range@V?$allocator@VStringRef@Catch@@@std@@@std@@YAXPEAVStringRef@Catch@@QEAV12@AEAV?$allocator@VStringRef@Catch@@@0@@Z
	??$_Destroy_range@V?$allocator@VTestCaseHandle@Catch@@@std@@@std@@YAXPEAVTestCaseHandle@Catch@@QEAV12@AEAV?$allocator@VTestCaseHandle@Catch@@@0@@Z
	??$_Destroy_range@V?$allocator@Vconst_iterator@Column@TextFlow@Catch@@@std@@@std@@YAXPEAVconst_iterator@Column@TextFlow@Catch@@QEAV1234@AEAV?$allocator@Vconst_iterator@Column@TextFlow@Catch@@@0@@Z
	??$_Destroy_range@V?$allocator@Vexception_ptr@std@@@std@@@std@@YAXPEAVexception_ptr@0@QEAV10@AEAV?$allocator@Vexception_ptr@std@@@0@@Z
	??$_Destroy_range@V?$allocator@_K@std@@@std@@YAXPEA_KQEA_KAEAV?$allocator@_K@0@@Z
	??$_Emplace@AEBV?$basic_string@DU?$char_traits@D@std@@V?$allocator@D@2@@std@@V?$unique_ptr@VIReporterFactory@Catch@@@Detail@Catch@@@?$_Tree@V?$_Tmap_traits@V?$basic_string@DU?$char_traits@D@std@@V?$allocator@D@2@@std@@V?$unique_ptr@VIReporterFactory@Catch@@@Detail@Catch@@UCaseInsensitiveLess@45@V?$allocator@U?$pair@$$CBV?$basic_string@DU?$char_traits@D@std@@V?$allocator@D@2@@std@@V?$unique_ptr@VIReporterFactory@Catch@@@Detail@Catch@@@std@@@2@$0A@@std@@@std@@IEAA?AU?$pair@PEAU?$_Tree_node@U?$pair@$$CBV?$basic_string@DU?$char_traits@D@std@@V?$allocator@D@2@@std@@V?$unique_ptr@VIReporterFactory@Catch@@@Detail@Catch@@@std@@PEAX@std@@_N@1@AEBV?$basic_string@DU?$char_traits@D@std@@V?$allocator@D@2@@1@$$QEAV?$unique_ptr@VIReporterFactory@Catch@@@Detail@Catch@@@Z
	??$_Emplace@AEBVStringRef@Catch@@@?$_Tree@V?$_Tset_traits@VStringRef@Catch@@U?$less@VStringRef@Catch@@@std@@V?$allocator@VStringRef@Catch@@@4@$0A@@std@@@std@@IEAA?AU?$pair@PEAU?$_Tree_node@VStringRef@Catch@@PEAX@std@@_N@1@AEBVStringRef@Catch@@@Z
	??$_Emplace@PEBVTestCaseHandle@Catch@@@?$_Tree@V?$_Tset_traits@PEBVTestCaseHandle@Catch@@U?$less@PEBVTestCaseHandle@Catch@@@std@@V?$allocator@PEBVTestCaseHandle@Catch@@@4@$0A@@std@@@std@@IEAA?AU?$pair@PEAU?$_Tree_node@PEBVTestCaseHandle@Catch@@PEAX@std@@_N@1@$$QEAPEBVTestCaseHandle@Catch@@@Z
	??$_Emplace@U?$pair@V?$basic_string@DU?$char_traits@D@std@@V?$allocator@D@2@@std@@UTagAlias@Catch@@@std@@@?$_Tree@V?$_Tmap_traits@V?$basic_string@DU?$char_traits@D@std@@V?$allocator@D@2@@std@@UTagAlias@Catch@@U?$less@V?$basic_string@DU?$char_traits@D@std@@V?$allocator@D@2@@std@@@2@V?$allocator@U?$pair@$$CBV?$basic_string@DU?$char_traits@D@std@@V?$allocator@D@2@@std@@UTagAlias@Catch@@@std@@@2@$0A@@std@@@std@@IEAA?AU?$pair@PEAU?$_Tree_node@U?$pair@$$CBV?$basic_string@DU?$char_traits@D@std@@V?$allocator@D@2@@std@@UTagAlias@Catch@@@std@@PEAX@std@@_N@1@$$QEAU?$pair@V?$basic_string@DU?$char_traits@D@std@@V?$allocator@D@2@@std@@UTagAlias@Catch@@@1@@Z
	??$_Emplace@U?$pair@VStringRef@Catch@@UTagInfo@2@@std@@@?$_Tree@V?$_Tmap_traits@VStringRef@Catch@@UTagInfo@2@UCaseInsensitiveLess@Detail@2@V?$allocator@U?$pair@$$CBVStringRef@Catch@@UTagInfo@2@@std@@@std@@$0A@@std@@@std@@IEAA?AU?$pair@PEAU?$_Tree_node@U?$pair@$$CBVStringRef@Catch@@UTagInfo@2@@std@@PEAX@std@@_N@1@$$QEAU?$pair@VStringRef@Catch@@UTagInfo@2@@1@@Z
	??$_Emplace@V?$basic_string@DU?$char_traits@D@std@@V?$allocator@D@2@@std@@V12@@?$_Tree@V?$_Tmap_traits@V?$basic_string@DU?$char_traits@D@std@@V?$allocator@D@2@@std@@V12@U?$less@V?$basic_string@DU?$char_traits@D@std@@V?$allocator@D@2@@std@@@2@V?$allocator@U?$pair@$$CBV?$basic_string@DU?$char_traits@D@std@@V?$allocator@D@2@@std@@V12@@std@@@2@$0A@@std@@@std@@IEAA?AU?$pair@PEAU?$_Tree_node@U?$pair@$$CBV?$basic_string@DU?$char_traits@D@std@@V?$allocator@D@2@@std@@V12@@std@@PEAX@std@@_N@1@$$QEAV?$basic_string@DU?$char_traits@D@std@@V?$allocator@D@2@@1@0@Z
	??$_Emplace_back@$$V@?$_Uninitialized_backout_al@V?$allocator@PEAX@std@@@std@@QEAAXXZ
	??$_Emplace_back@$$V@?$_Uninitialized_backout_al@V?$allocator@U_Grp_t@?$_Tgt_state_t@PEBD@std@@@std@@@std@@QEAAXXZ
	??$_Emplace_back@$$V@?$_Uninitialized_backout_al@V?$allocator@U_Loop_vals_t@std@@@std@@@std@@QEAAXXZ
	??$_Emplace_back@$$V@?$_Uninitialized_backout_al@V?$allocator@V?$sub_match@PEBD@std@@@std@@@std@@QEAAXXZ
	??$_Emplace_back@AEAD@?$_Uninitialized_backout_al@V?$allocator@D@std@@@std@@QEAAXAEAD@Z
	??$_Emplace_back@AEAI@?$_Uninitialized_backout_al@V?$allocator@I@std@@@std@@QEAAXAEAI@Z
	??$_Emplace_back@AEAPEAD@?$_Uninitialized_backout@PEAPEAD@std@@QEAAXAEAPEAD@Z
	??$_Emplace_back@AEAPEAX@?$_Uninitialized_backout_al@V?$allocator@PEAX@std@@@std@@QEAAXAEAPEAX@Z
	??$_Emplace_back@AEAPEBVTestCaseHandle@Catch@@@?$_Uninitialized_backout_al@V?$allocator@PEBVTestCaseHandle@Catch@@@std@@@std@@QEAAXAEAPEBVTestCaseHandle@Catch@@@Z
	??$_Emplace_back@AEAUHelpColumns@Detail@Clara@Catch@@@?$_Uninitialized_backout_al@V?$allocator@UHelpColumns@Detail@Clara@Catch@@@std@@@std@@QEAAXAEAUHelpColumns@Detail@Clara@Catch@@@Z
	??$_Emplace_back@AEAUMessageInfo@Catch@@@?$_Uninitialized_backout_al@V?$allocator@UMessageInfo@Catch@@@std@@@std@@QEAAXAEAUMessageInfo@Catch@@@Z
	??$_Emplace_back@AEAUProcessedReporterSpec@Catch@@@?$_Uninitialized_backout_al@V?$allocator@UProcessedReporterSpec@Catch@@@std@@@std@@QEAAXAEAUProcessedReporterSpec@Catch@@@Z
	??$_Emplace_back@AEAUTagInfo@Catch@@@?$_Uninitialized_backout_al@V?$allocator@UTagInfo@Catch@@@std@@@std@@QEAAXAEAUTagInfo@Catch@@@Z
	??$_Emplace_back@AEAUToken@Detail@Clara@Catch@@@?$_Uninitialized_backout_al@V?$allocator@UToken@Detail@Clara@Catch@@@std@@@std@@QEAAXAEAUToken@Detail@Clara@Catch@@@Z
	??$_Emplace_back@AEAU_Grp_t@?$_Tgt_state_t@PEBD@std@@@?$_Uninitialized_backout_al@V?$allocator@U_Grp_t@?$_Tgt_state_t@PEBD@std@@@std@@@std@@QEAAXAEAU_Grp_t@?$_Tgt_state_t@PEBD@1@@Z
	??$_Emplace_back@AEAV?$basic_string@DU?$char_traits@D@std@@V?$allocator@D@2@@std@@@?$_Uninitialized_backout_al@V?$allocator@V?$basic_string@DU?$char_traits@D@std@@V?$allocator@D@2@@std@@@std@@@std@@QEAAXAEAV?$basic_string@DU?$char_traits@D@std@@V?$allocator@D@2@@1@@Z
	??$_Emplace_back@AEAV?$duration@NU?$ratio@$00$0DLJKMKAA@@std@@@chrono@std@@@?$_Uninitialized_backout_al@V?$allocator@V?$duration@NU?$ratio@$00$0DLJKMKAA@@std@@@chrono@std@@@std@@@std@@QEAAXAEAV?$duration@NU?$ratio@$00$0DLJKMKAA@@std@@@chrono@1@@Z
	??$_Emplace_back@AEAVArg@Clara@Catch@@@?$_Uninitialized_backout_al@V?$allocator@VArg@Clara@Catch@@@std@@@std@@QEAAXAEAVArg@Clara@Catch@@@Z
	??$_Emplace_back@AEAVAssertionOrBenchmarkResult@Detail@Catch@@@?$_Uninitialized_backout_al@V?$allocator@VAssertionOrBenchmarkResult@Detail@Catch@@@std@@@std@@QEAAXAEAVAssertionOrBenchmarkResult@Detail@Catch@@@Z
	??$_Emplace_back@AEAVColumn@TextFlow@Catch@@@?$_Uninitialized_backout_al@V?$allocator@VColumn@TextFlow@Catch@@@std@@@std@@QEAAXAEAVColumn@TextFlow@Catch@@@Z
	??$_Emplace_back@AEAVOpt@Clara@Catch@@@?$_Uninitialized_backout_al@V?$allocator@VOpt@Clara@Catch@@@std@@@std@@QEAAXAEAVOpt@Clara@Catch@@@Z
	??$_Emplace_back@AEAVReporterSpec@Catch@@@?$_Uninitialized_backout_al@V?$allocator@VReporterSpec@Catch@@@std@@@std@@QEAAXAEAVReporterSpec@Catch@@@Z
	??$_Emplace_back@AEAVTestCaseHandle@Catch@@@?$_Uninitialized_backout_al@V?$allocator@VTestCaseHandle@Catch@@@std@@@std@@QEAAXAEAVTestCaseHandle@Catch@@@Z
	??$_Emplace_back@AEAVconst_iterator@Column@TextFlow@Catch@@@?$_Uninitialized_backout_al@V?$allocator@Vconst_iterator@Column@TextFlow@Catch@@@std@@@std@@QEAAXAEAVconst_iterator@Column@TextFlow@Catch@@@Z
	??$_Emplace_back@AEBD@?$_Uninitialized_backout_al@V?$allocator@D@std@@@std@@QEAAXAEBD@Z
	??$_Emplace_back@AEBI@?$_Uninitialized_backout_al@V?$allocator@I@std@@@std@@QEAAXAEBI@Z
	??$_Emplace_back@AEBN@?$_Uninitialized_backout_al@V?$allocator@N@std@@@std@@QEAAXAEBN@Z
	??$_Emplace_back@AEBQEBD@?$_Uninitialized_backout_al@V?$allocator@V?$basic_string@DU?$char_traits@D@std@@V?$allocator@D@2@@std@@@std@@@std@@QEAAXAEBQEBD@Z
	??$_Emplace_back@AEBUHelpColumns@Detail@Clara@Catch@@@?$_Uninitialized_backout_al@V?$allocator@UHelpColumns@Detail@Clara@Catch@@@std@@@std@@QEAAXAEBUHelpColumns@Detail@Clara@Catch@@@Z
	??$_Emplace_back@AEBV?$basic_string@DU?$char_traits@D@std@@V?$allocator@D@2@@std@@@?$_Uninitialized_backout_al@V?$allocator@V?$basic_string@DU?$char_traits@D@std@@V?$allocator@D@2@@std@@@std@@@std@@QEAAXAEBV?$basic_string@DU?$char_traits@D@std@@V?$allocator@D@2@@1@@Z
	??$_Emplace_back@AEBV?$basic_string@DU?$char_traits@D@std@@V?$allocator@D@2@@std@@@?$_Uninitialized_backout_al@V?$allocator@VStringRef@Catch@@@std@@@std@@QEAAXAEBV?$basic_string@DU?$char_traits@D@std@@V?$allocator@D@2@@1@@Z
	??$_Emplace_back@AEBVArg@Clara@Catch@@@?$_Uninitialized_backout_al@V?$allocator@VArg@Clara@Catch@@@std@@@std@@QEAAXAEBVArg@Clara@Catch@@@Z
	??$_Emplace_back@AEBVOpt@Clara@Catch@@@?$_Uninitialized_backout_al@V?$allocator@VOpt@Clara@Catch@@@std@@@std@@QEAAXAEBVOpt@Clara@Catch@@@Z
	??$_Emplace_back@AEBVStringRef@Catch@@@?$_Uninitialized_backout_al@V?$allocator@VStringRef@Catch@@@std@@@std@@QEAAXAEBVStringRef@Catch@@@Z
	??$_Emplace_back@AEBVTestCaseHandle@Catch@@@?$_Uninitialized_backout_al@V?$allocator@VTestCaseHandle@Catch@@@std@@@std@@QEAAXAEBVTestCaseHandle@Catch@@@Z
	??$_Emplace_back@I@?$_Uninitialized_backout_al@V?$allocator@I@std@@@std@@QEAAX$$QEAI@Z
	??$_Emplace_back@N@?$_Uninitialized_backout_al@V?$allocator@N@std@@@std@@QEAAX$$QEAN@Z
	??$_Emplace_back@PEAUISingleton@Catch@@@?$_Uninitialized_backout_al@V?$allocator@PEAUISingleton@Catch@@@std@@@std@@QEAAX$$QEAPEAUISingleton@Catch@@@Z
	??$_Emplace_back@PEAUSectionNode@CumulativeReporterBase@Catch@@@?$_Uninitialized_backout_al@V?$allocator@PEAUSectionNode@CumulativeReporterBase@Catch@@@std@@@std@@QEAAX$$QEAPEAUSectionNode@CumulativeReporterBase@Catch@@@Z
	??$_Emplace_back@PEAUTestCaseInfo@Catch@@@?$_Uninitialized_backout_al@V?$allocator@PEAUTestCaseInfo@Catch@@@std@@@std@@QEAAX$$QEAPEAUTestCaseInfo@Catch@@@Z
	??$_Emplace_back@PEAVITracker@TestCaseTracking@Catch@@@?$_Uninitialized_backout_al@V?$allocator@PEAVITracker@TestCaseTracking@Catch@@@std@@@std@@QEAAX$$QEAPEAVITracker@TestCaseTracking@Catch@@@Z
	??$_Emplace_back@PEAX@?$_Uninitialized_backout_al@V?$allocator@PEAX@std@@@std@@QEAAX$$QEAPEAX@Z
	??$_Emplace_back@PEBU?$Node@UTestCaseStats@Catch@@USectionNode@CumulativeReporterBase@2@@CumulativeReporterBase@Catch@@@?$_Uninitialized_backout_al@V?$allocator@PEBU?$Node@UTestCaseStats@Catch@@USectionNode@CumulativeReporterBase@2@@CumulativeReporterBase@Catch@@@std@@@std@@QEAAX$$QEAPEBU?$Node@UTestCaseStats@Catch@@USectionNode@CumulativeReporterBase@2@@CumulativeReporterBase@Catch@@@Z
	??$_Emplace_back@PEBVTestCaseHandle@Catch@@@?$_Uninitialized_backout_al@V?$allocator@PEBVTestCaseHandle@Catch@@@std@@@std@@QEAAX$$QEAPEBVTestCaseHandle@Catch@@@Z
	??$_Emplace_back@U?$pair@HVStringRef@Catch@@@std@@@?$_Uninitialized_backout_al@V?$allocator@U?$pair@HVStringRef@Catch@@@std@@@std@@@std@@QEAAX$$QEAU?$pair@HVStringRef@Catch@@@1@@Z
	??$_Emplace_back@U?$pair@_KVTestCaseHandle@Catch@@@std@@@?$_Uninitialized_backout_al@V?$allocator@U?$pair@_KVTestCaseHandle@Catch@@@std@@@std@@@std@@QEAAX$$QEAU?$pair@_KVTestCaseHandle@Catch@@@1@@Z
	??$_Emplace_back@UFilter@TestSpec@Catch@@@?$_Uninitialized_backout_al@V?$allocator@UFilter@TestSpec@Catch@@@std@@@std@@QEAAX$$QEAUFilter@TestSpec@Catch@@@Z
	??$_Emplace_back@UFilterMatch@TestSpec@Catch@@@?$_Uninitialized_backout_al@V?$allocator@UFilterMatch@TestSpec@Catch@@@std@@@std@@QEAAX$$QEAUFilterMatch@TestSpec@Catch@@@Z
	??$_Emplace_back@UHelpColumns@Detail@Clara@Catch@@@?$_Uninitialized_backout_al@V?$allocator@UHelpColumns@Detail@Clara@Catch@@@std@@@std@@QEAAX$$QEAUHelpColumns@Detail@Clara@Catch@@@Z
	??$_Emplace_back@UListenerDescription@Catch@@@?$_Uninitialized_backout_al@V?$allocator@UListenerDescription@Catch@@@std@@@std@@QEAAX$$QEAUListenerDescription@Catch@@@Z
	??$_Emplace_back@UMessageInfo@Catch@@@?$_Uninitialized_backout_al@V?$allocator@UMessageInfo@Catch@@@std@@@std@@QEAAX$$QEAUMessageInfo@Catch@@@Z
	??$_Emplace_back@UProcessedReporterSpec@Catch@@@?$_Uninitialized_backout_al@V?$allocator@UProcessedReporterSpec@Catch@@@std@@@std@@QEAAX$$QEAUProcessedReporterSpec@Catch@@@Z
	??$_Emplace_back@UReporterDescription@Catch@@@?$_Uninitialized_backout_al@V?$allocator@UReporterDescription@Catch@@@std@@@std@@QEAAX$$QEAUReporterDescription@Catch@@@Z
	??$_Emplace_back@USectionEndInfo@Catch@@@?$_Uninitialized_backout_al@V?$allocator@USectionEndInfo@Catch@@@std@@@std@@QEAAX$$QEAUSectionEndInfo@Catch@@@Z
	??$_Emplace_back@USectionInfo@Catch@@@?$_Uninitialized_backout_al@V?$allocator@USectionInfo@Catch@@@std@@@std@@QEAAX$$QEAUSectionInfo@Catch@@@Z
	??$_Emplace_back@UTag@Catch@@@?$_Uninitialized_backout_al@V?$allocator@UTag@Catch@@@std@@@std@@QEAAX$$QEAUTag@Catch@@@Z
	??$_Emplace_back@UTagInfo@Catch@@@?$_Uninitialized_backout_al@V?$allocator@UTagInfo@Catch@@@std@@@std@@QEAAX$$QEAUTagInfo@Catch@@@Z
	??$_Emplace_back@UToken@Detail@Clara@Catch@@@?$_Uninitialized_backout_al@V?$allocator@UToken@Detail@Clara@Catch@@@std@@@std@@QEAAX$$QEAUToken@Detail@Clara@Catch@@@Z
	??$_Emplace_back@U_Grp_t@?$_Tgt_state_t@PEBD@std@@@?$_Uninitialized_backout_al@V?$allocator@U_Grp_t@?$_Tgt_state_t@PEBD@std@@@std@@@std@@QEAAX$$QEAU_Grp_t@?$_Tgt_state_t@PEBD@1@@Z
	??$_Emplace_back@U_Loop_vals_t@std@@@?$_Uninitialized_backout_al@V?$allocator@U_Loop_vals_t@std@@@std@@@std@@QEAAX$$QEAU_Loop_vals_t@1@@Z
	??$_Emplace_back@V?$basic_string@DU?$char_traits@D@std@@V?$allocator@D@2@@std@@@?$_Uninitialized_backout_al@V?$allocator@V?$basic_string@DU?$char_traits@D@std@@V?$allocator@D@2@@std@@@std@@@std@@QEAAX$$QEAV?$basic_string@DU?$char_traits@D@std@@V?$allocator@D@2@@1@@Z
	??$_Emplace_back@V?$sub_match@PEBD@std@@@?$_Uninitialized_backout_al@V?$allocator@V?$sub_match@PEBD@std@@@std@@@std@@QEAAX$$QEAV?$sub_match@PEBD@1@@Z
	??$_Emplace_back@V?$unique_ptr@$$CBVIExceptionTranslator@Catch@@@Detail@Catch@@@?$_Uninitialized_backout_al@V?$allocator@V?$unique_ptr@$$CBVIExceptionTranslator@Catch@@@Detail@Catch@@@std@@@std@@QEAAX$$QEAV?$unique_ptr@$$CBVIExceptionTranslator@Catch@@@Detail@Catch@@@Z
	??$_Emplace_back@V?$unique_ptr@U?$Node@UTestCaseStats@Catch@@USectionNode@CumulativeReporterBase@2@@CumulativeReporterBase@Catch@@@Detail@Catch@@@?$_Uninitialized_backout_al@V?$allocator@V?$unique_ptr@U?$Node@UTestCaseStats@Catch@@USectionNode@CumulativeReporterBase@2@@CumulativeReporterBase@Catch@@@Detail@Catch@@@std@@@std@@QEAAX$$QEAV?$unique_ptr@U?$Node@UTestCaseStats@Catch@@USectionNode@CumulativeReporterBase@2@@CumulativeReporterBase@Catch@@@Detail@Catch@@@Z
	??$_Emplace_back@V?$unique_ptr@UEnumInfo@Detail@Catch@@@Detail@Catch@@@?$_Uninitialized_backout_al@V?$allocator@V?$unique_ptr@UEnumInfo@Detail@Catch@@@Detail@Catch@@@std@@@std@@QEAAX$$QEAV?$unique_ptr@UEnumInfo@Detail@Catch@@@Detail@Catch@@@Z
	??$_Emplace_back@V?$unique_ptr@USectionNode@CumulativeReporterBase@Catch@@@Detail@Catch@@@?$_Uninitialized_backout_al@V?$allocator@V?$unique_ptr@USectionNode@CumulativeReporterBase@Catch@@@Detail@Catch@@@std@@@std@@QEAAX$$QEAV?$unique_ptr@USectionNode@CumulativeReporterBase@Catch@@@Detail@Catch@@@Z
	??$_Emplace_back@V?$unique_ptr@UTestCaseInfo@Catch@@@Detail@Catch@@@?$_Uninitialized_backout_al@V?$allocator@V?$unique_ptr@UTestCaseInfo@Catch@@@Detail@Catch@@@std@@@std@@QEAAX$$QEAV?$unique_ptr@UTestCaseInfo@Catch@@@Detail@Catch@@@Z
	??$_Emplace_back@V?$unique_ptr@V?$basic_ostringstream@DU?$char_traits@D@std@@V?$allocator@D@2@@std@@@Detail@Catch@@@?$_Uninitialized_backout_al@V?$allocator@V?$unique_ptr@V?$basic_ostringstream@DU?$char_traits@D@std@@V?$allocator@D@2@@std@@@Detail@Catch@@@std@@@std@@QEAAX$$QEAV?$unique_ptr@V?$basic_ostringstream@DU?$char_traits@D@std@@V?$allocator@D@2@@std@@@Detail@Catch@@@Z
	??$_Emplace_back@V?$unique_ptr@VEventListenerFactory@Catch@@@Detail@Catch@@@?$_Uninitialized_backout_al@V?$allocator@V?$unique_ptr@VEventListenerFactory@Catch@@@Detail@Catch@@@std@@@std@@QEAAX$$QEAV?$unique_ptr@VEventListenerFactory@Catch@@@Detail@Catch@@@Z
	??$_Emplace_back@V?$unique_ptr@VIEventListener@Catch@@@Detail@Catch@@@?$_Uninitialized_backout_al@V?$allocator@V?$unique_ptr@VIEventListener@Catch@@@Detail@Catch@@@std@@@std@@QEAAX$$QEAV?$unique_ptr@VIEventListener@Catch@@@Detail@Catch@@@Z
	??$_Emplace_back@V?$unique_ptr@VITestInvoker@Catch@@@Detail@Catch@@@?$_Uninitialized_backout_al@V?$allocator@V?$unique_ptr@VITestInvoker@Catch@@@Detail@Catch@@@std@@@std@@QEAAX$$QEAV?$unique_ptr@VITestInvoker@Catch@@@Detail@Catch@@@Z
	??$_Emplace_back@V?$unique_ptr@VITracker@TestCaseTracking@Catch@@@Detail@Catch@@@?$_Uninitialized_backout_al@V?$allocator@V?$unique_ptr@VITracker@TestCaseTracking@Catch@@@Detail@Catch@@@std@@@std@@QEAAX$$QEAV?$unique_ptr@VITracker@TestCaseTracking@Catch@@@Detail@Catch@@@Z
	??$_Emplace_back@V?$unique_ptr@VPattern@TestSpec@Catch@@@Detail@Catch@@@?$_Uninitialized_backout_al@V?$allocator@V?$unique_ptr@VPattern@TestSpec@Catch@@@Detail@Catch@@@std@@@std@@QEAAX$$QEAV?$unique_ptr@VPattern@TestSpec@Catch@@@Detail@Catch@@@Z
	??$_Emplace_back@VArg@Clara@Catch@@@?$_Uninitialized_backout_al@V?$allocator@VArg@Clara@Catch@@@std@@@std@@QEAAX$$QEAVArg@Clara@Catch@@@Z
	??$_Emplace_back@VAssertionOrBenchmarkResult@Detail@Catch@@@?$_Uninitialized_backout_al@V?$allocator@VAssertionOrBenchmarkResult@Detail@Catch@@@std@@@std@@QEAAX$$QEAVAssertionOrBenchmarkResult@Detail@Catch@@@Z
	??$_Emplace_back@VColumn@TextFlow@Catch@@@?$_Uninitialized_backout_al@V?$allocator@VColumn@TextFlow@Catch@@@std@@@std@@QEAAX$$QEAVColumn@TextFlow@Catch@@@Z
	??$_Emplace_back@VOpt@Clara@Catch@@@?$_Uninitialized_backout_al@V?$allocator@VOpt@Clara@Catch@@@std@@@std@@QEAAX$$QEAVOpt@Clara@Catch@@@Z
	??$_Emplace_back@VReporterSpec@Catch@@@?$_Uninitialized_backout_al@V?$allocator@VReporterSpec@Catch@@@std@@@std@@QEAAX$$QEAVReporterSpec@Catch@@@Z
	??$_Emplace_back@VScopedMessage@Catch@@@?$_Uninitialized_backout_al@V?$allocator@VScopedMessage@Catch@@@std@@@std@@QEAAX$$QEAVScopedMessage@Catch@@@Z
	??$_Emplace_back@VStringRef@Catch@@@?$_Uninitialized_backout_al@V?$allocator@VStringRef@Catch@@@std@@@std@@QEAAX$$QEAVStringRef@Catch@@@Z
	??$_Emplace_back@VTestCaseHandle@Catch@@@?$_Uninitialized_backout_al@V?$allocator@VTestCaseHandle@Catch@@@std@@@std@@QEAAX$$QEAVTestCaseHandle@Catch@@@Z
	??$_Emplace_back@Vconst_iterator@Column@TextFlow@Catch@@@?$_Uninitialized_backout_al@V?$allocator@Vconst_iterator@Column@TextFlow@Catch@@@std@@@std@@QEAAX$$QEAVconst_iterator@Column@TextFlow@Catch@@@Z
	??$_Emplace_back@Vexception_ptr@std@@@?$_Uninitialized_backout_al@V?$allocator@Vexception_ptr@std@@@std@@@std@@QEAAX$$QEAVexception_ptr@1@@Z
	??$_Emplace_back@_K@?$_Uninitialized_backout_al@V?$allocator@_K@std@@@std@@QEAAX$$QEA_K@Z
	??$_Emplace_back_internal@AEBD@?$deque@DV?$allocator@D@std@@@std@@AEAAXAEBD@Z
	??$_Emplace_back_with_unused_capacity@$$V@?$vector@V?$basic_string@DU?$char_traits@D@std@@V?$allocator@D@2@@std@@V?$allocator@V?$basic_string@DU?$char_traits@D@std@@V?$allocator@D@2@@std@@@2@@std@@AEAAAEAV?$basic_string@DU?$char_traits@D@std@@V?$allocator@D@2@@1@XZ
	??$_Emplace_back_with_unused_capacity@AEAHAEBVStringRef@Catch@@@?$vector@U?$pair@HVStringRef@Catch@@@std@@V?$allocator@U?$pair@HVStringRef@Catch@@@std@@@2@@std@@AEAAAEAU?$pair@HVStringRef@Catch@@@1@AEAHAEBVStringRef@Catch@@@Z
	??$_Emplace_back_with_unused_capacity@AEAVStringRef@Catch@@AEBUSourceLineInfo@2@AEAW4OfType@ResultWas@2@@?$vector@UMessageInfo@Catch@@V?$allocator@UMessageInfo@Catch@@@std@@@std@@AEAAAEAUMessageInfo@Catch@@AEAVStringRef@3@AEBUSourceLineInfo@3@AEAW4OfType@ResultWas@3@@Z
	??$_Emplace_back_with_unused_capacity@AEAY01$$CBD@?$vector@V?$basic_string@DU?$char_traits@D@std@@V?$allocator@D@2@@std@@V?$allocator@V?$basic_string@DU?$char_traits@D@std@@V?$allocator@D@2@@std@@@2@@std@@AEAAAEAV?$basic_string@DU?$char_traits@D@std@@V?$allocator@D@2@@1@AEAY01$$CBD@Z
	??$_Emplace_back_with_unused_capacity@AEBN@?$vector@NV?$allocator@N@std@@@std@@AEAAAEANAEBN@Z
	??$_Emplace_back_with_unused_capacity@AEBQEAUISingleton@Catch@@@?$vector@PEAUISingleton@Catch@@V?$allocator@PEAUISingleton@Catch@@@std@@@std@@AEAAAEAPEAUISingleton@Catch@@AEBQEAU23@@Z
	??$_Emplace_back_with_unused_capacity@AEBQEAUSectionNode@CumulativeReporterBase@Catch@@@?$vector@PEAUSectionNode@CumulativeReporterBase@Catch@@V?$allocator@PEAUSectionNode@CumulativeReporterBase@Catch@@@std@@@std@@AEAAAEAPEAUSectionNode@CumulativeReporterBase@Catch@@AEBQEAU234@@Z
	??$_Emplace_back_with_unused_capacity@AEBU?$BenchmarkStats@V?$duration@NU?$ratio@$00$0DLJKMKAA@@std@@@chrono@std@@@Catch@@@?$vector@VAssertionOrBenchmarkResult@Detail@Catch@@V?$allocator@VAssertionOrBenchmarkResult@Detail@Catch@@@std@@@std@@AEAAAEAVAssertionOrBenchmarkResult@Detail@Catch@@AEBU?$BenchmarkStats@V?$duration@NU?$ratio@$00$0DLJKMKAA@@std@@@chrono@std@@@4@@Z
	??$_Emplace_back_with_unused_capacity@AEBUAssertionStats@Catch@@@?$vector@VAssertionOrBenchmarkResult@Detail@Catch@@V?$allocator@VAssertionOrBenchmarkResult@Detail@Catch@@@std@@@std@@AEAAAEAVAssertionOrBenchmarkResult@Detail@Catch@@AEBUAssertionStats@4@@Z
	??$_Emplace_back_with_unused_capacity@AEBUMessageInfo@Catch@@@?$vector@UMessageInfo@Catch@@V?$allocator@UMessageInfo@Catch@@@std@@@std@@AEAAAEAUMessageInfo@Catch@@AEBU23@@Z
	??$_Emplace_back_with_unused_capacity@AEBUSectionInfo@Catch@@@?$vector@USectionInfo@Catch@@V?$allocator@USectionInfo@Catch@@@std@@@std@@AEAAAEAUSectionInfo@Catch@@AEBU23@@Z
	??$_Emplace_back_with_unused_capacity@AEBV?$basic_string@DU?$char_traits@D@std@@V?$allocator@D@2@@std@@@?$vector@V?$basic_string@DU?$char_traits@D@std@@V?$allocator@D@2@@std@@V?$allocator@V?$basic_string@DU?$char_traits@D@std@@V?$allocator@D@2@@std@@@2@@std@@AEAAAEAV?$basic_string@DU?$char_traits@D@std@@V?$allocator@D@2@@1@AEBV21@@Z
	??$_Emplace_back_with_unused_capacity@AEBVArg@Clara@Catch@@@?$vector@VArg@Clara@Catch@@V?$allocator@VArg@Clara@Catch@@@std@@@std@@AEAAAEAVArg@Clara@Catch@@AEBV234@@Z
	??$_Emplace_back_with_unused_capacity@AEBVColumn@TextFlow@Catch@@@?$vector@VColumn@TextFlow@Catch@@V?$allocator@VColumn@TextFlow@Catch@@@std@@@std@@AEAAAEAVColumn@TextFlow@Catch@@AEBV234@@Z
	??$_Emplace_back_with_unused_capacity@AEBVOpt@Clara@Catch@@@?$vector@VOpt@Clara@Catch@@V?$allocator@VOpt@Clara@Catch@@@std@@@std@@AEAAAEAVOpt@Clara@Catch@@AEBV234@@Z
	??$_Emplace_back_with_unused_capacity@AEBVTestCaseHandle@Catch@@@?$vector@VTestCaseHandle@Catch@@V?$allocator@VTestCaseHandle@Catch@@@std@@@std@@AEAAAEAVTestCaseHandle@Catch@@AEBV23@@Z
	??$_Emplace_back_with_unused_capacity@AEBVexception_ptr@std@@@?$vector@Vexception_ptr@std@@V?$allocator@Vexception_ptr@std@@@2@@std@@AEAAAEAVexception_ptr@1@AEBV21@@Z
	??$_Emplace_back_with_unused_capacity@AEB_K@?$vector@_KV?$allocator@_K@std@@@std@@AEAAAEA_KAEB_K@Z
	??$_Emplace_back_with_unused_capacity@IAEBVTestCaseHandle@Catch@@@?$vector@U?$pair@_KVTestCaseHandle@Catch@@@std@@V?$allocator@U?$pair@_KVTestCaseHandle@Catch@@@std@@@2@@std@@AEAAAEAU?$pair@_KVTestCaseHandle@Catch@@@1@$$QEAIAEBVTestCaseHandle@Catch@@@Z
	??$_Emplace_back_with_unused_capacity@N@?$vector@NV?$allocator@N@std@@@std@@AEAAAEAN$$QEAN@Z
	??$_Emplace_back_with_unused_capacity@PEAUTestCaseInfo@Catch@@@?$vector@PEAUTestCaseInfo@Catch@@V?$allocator@PEAUTestCaseInfo@Catch@@@std@@@std@@AEAAAEAPEAUTestCaseInfo@Catch@@$$QEAPEAU23@@Z
	??$_Emplace_back_with_unused_capacity@PEAUTestCaseInfo@Catch@@PEAVITestInvoker@2@@?$vector@VTestCaseHandle@Catch@@V?$allocator@VTestCaseHandle@Catch@@@std@@@std@@AEAAAEAVTestCaseHandle@Catch@@$$QEAPEAUTestCaseInfo@3@$$QEAPEAVITestInvoker@3@@Z
	??$_Emplace_back_with_unused_capacity@PEAVITracker@TestCaseTracking@Catch@@@?$vector@PEAVITracker@TestCaseTracking@Catch@@V?$allocator@PEAVITracker@TestCaseTracking@Catch@@@std@@@std@@AEAAAEAPEAVITracker@TestCaseTracking@Catch@@$$QEAPEAV234@@Z
	??$_Emplace_back_with_unused_capacity@PEBU?$Node@UTestCaseStats@Catch@@USectionNode@CumulativeReporterBase@2@@CumulativeReporterBase@Catch@@@?$vector@PEBU?$Node@UTestCaseStats@Catch@@USectionNode@CumulativeReporterBase@2@@CumulativeReporterBase@Catch@@V?$allocator@PEBU?$Node@UTestCaseStats@Catch@@USectionNode@CumulativeReporterBase@2@@CumulativeReporterBase@Catch@@@std@@@std@@AEAAAEAPEBU?$Node@UTestCaseStats@Catch@@USectionNode@CumulativeReporterBase@2@@CumulativeReporterBase@Catch@@$$QEAPEBU234@@Z
	??$_Emplace_back_with_unused_capacity@PEBVTestCaseHandle@Catch@@@?$vector@PEBVTestCaseHandle@Catch@@V?$allocator@PEBVTestCaseHandle@Catch@@@std@@@std@@AEAAAEAPEBVTestCaseHandle@Catch@@$$QEAPEBV23@@Z
	??$_Emplace_back_with_unused_capacity@UFilter@TestSpec@Catch@@@?$vector@UFilter@TestSpec@Catch@@V?$allocator@UFilter@TestSpec@Catch@@@std@@@std@@AEAAAEAUFilter@TestSpec@Catch@@$$QEAU234@@Z
	??$_Emplace_back_with_unused_capacity@UFilterMatch@TestSpec@Catch@@@?$vector@UFilterMatch@TestSpec@Catch@@V?$allocator@UFilterMatch@TestSpec@Catch@@@std@@@std@@AEAAAEAUFilterMatch@TestSpec@Catch@@$$QEAU234@@Z
	??$_Emplace_back_with_unused_capacity@UListenerDescription@Catch@@@?$vector@UListenerDescription@Catch@@V?$allocator@UListenerDescription@Catch@@@std@@@std@@AEAAAEAUListenerDescription@Catch@@$$QEAU23@@Z
	??$_Emplace_back_with_unused_capacity@UMessageBuilder@Catch@@@?$vector@VScopedMessage@Catch@@V?$allocator@VScopedMessage@Catch@@@std@@@std@@AEAAAEAVScopedMessage@Catch@@$$QEAUMessageBuilder@3@@Z
	??$_Emplace_back_with_unused_capacity@UMessageInfo@Catch@@@?$vector@UMessageInfo@Catch@@V?$allocator@UMessageInfo@Catch@@@std@@@std@@AEAAAEAUMessageInfo@Catch@@$$QEAU23@@Z
	??$_Emplace_back_with_unused_capacity@UProcessedReporterSpec@Catch@@@?$vector@UProcessedReporterSpec@Catch@@V?$allocator@UProcessedReporterSpec@Catch@@@std@@@std@@AEAAAEAUProcessedReporterSpec@Catch@@$$QEAU23@@Z
	??$_Emplace_back_with_unused_capacity@UReporterDescription@Catch@@@?$vector@UReporterDescription@Catch@@V?$allocator@UReporterDescription@Catch@@@std@@@std@@AEAAAEAUReporterDescription@Catch@@$$QEAU23@@Z
	??$_Emplace_back_with_unused_capacity@USectionEndInfo@Catch@@@?$vector@USectionEndInfo@Catch@@V?$allocator@USectionEndInfo@Catch@@@std@@@std@@AEAAAEAUSectionEndInfo@Catch@@$$QEAU23@@Z
	??$_Emplace_back_with_unused_capacity@UTagInfo@Catch@@@?$vector@UTagInfo@Catch@@V?$allocator@UTagInfo@Catch@@@std@@@std@@AEAAAEAUTagInfo@Catch@@$$QEAU23@@Z
	??$_Emplace_back_with_unused_capacity@UToken@Detail@Clara@Catch@@@?$vector@UToken@Detail@Clara@Catch@@V?$allocator@UToken@Detail@Clara@Catch@@@std@@@std@@AEAAAEAUToken@Detail@Clara@Catch@@$$QEAU2345@@Z
	??$_Emplace_back_with_unused_capacity@V?$basic_string@DU?$char_traits@D@std@@V?$allocator@D@2@@std@@@?$vector@V?$basic_string@DU?$char_traits@D@std@@V?$allocator@D@2@@std@@V?$allocator@V?$basic_string@DU?$char_traits@D@std@@V?$allocator@D@2@@std@@@2@@std@@AEAAAEAV?$basic_string@DU?$char_traits@D@std@@V?$allocator@D@2@@1@$$QEAV21@@Z
	??$_Emplace_back_with_unused_capacity@V?$unique_ptr@$$CBVIExceptionTranslator@Catch@@@Detail@Catch@@@?$vector@V?$unique_ptr@$$CBVIExceptionTranslator@Catch@@@Detail@Catch@@V?$allocator@V?$unique_ptr@$$CBVIExceptionTranslator@Catch@@@Detail@Catch@@@std@@@std@@AEAAAEAV?$unique_ptr@$$CBVIExceptionTranslator@Catch@@@Detail@Catch@@$$QEAV234@@Z
	??$_Emplace_back_with_unused_capacity@V?$unique_ptr@U?$Node@UTestCaseStats@Catch@@USectionNode@CumulativeReporterBase@2@@CumulativeReporterBase@Catch@@@Detail@Catch@@@?$vector@V?$unique_ptr@U?$Node@UTestCaseStats@Catch@@USectionNode@CumulativeReporterBase@2@@CumulativeReporterBase@Catch@@@Detail@Catch@@V?$allocator@V?$unique_ptr@U?$Node@UTestCaseStats@Catch@@USectionNode@CumulativeReporterBase@2@@CumulativeReporterBase@Catch@@@Detail@Catch@@@std@@@std@@AEAAAEAV?$unique_ptr@U?$Node@UTestCaseStats@Catch@@USectionNode@CumulativeReporterBase@2@@CumulativeReporterBase@Catch@@@Detail@Catch@@$$QEAV234@@Z
	??$_Emplace_back_with_unused_capacity@V?$unique_ptr@UEnumInfo@Detail@Catch@@@Detail@Catch@@@?$vector@V?$unique_ptr@UEnumInfo@Detail@Catch@@@Detail@Catch@@V?$allocator@V?$unique_ptr@UEnumInfo@Detail@Catch@@@Detail@Catch@@@std@@@std@@AEAAAEAV?$unique_ptr@UEnumInfo@Detail@Catch@@@Detail@Catch@@$$QEAV234@@Z
	??$_Emplace_back_with_unused_capacity@V?$unique_ptr@USectionNode@CumulativeReporterBase@Catch@@@Detail@Catch@@@?$vector@V?$unique_ptr@USectionNode@CumulativeReporterBase@Catch@@@Detail@Catch@@V?$allocator@V?$unique_ptr@USectionNode@CumulativeReporterBase@Catch@@@Detail@Catch@@@std@@@std@@AEAAAEAV?$unique_ptr@USectionNode@CumulativeReporterBase@Catch@@@Detail@Catch@@$$QEAV234@@Z
	??$_Emplace_back_with_unused_capacity@V?$unique_ptr@UTestCaseInfo@Catch@@@Detail@Catch@@@?$vector@V?$unique_ptr@UTestCaseInfo@Catch@@@Detail@Catch@@V?$allocator@V?$unique_ptr@UTestCaseInfo@Catch@@@Detail@Catch@@@std@@@std@@AEAAAEAV?$unique_ptr@UTestCaseInfo@Catch@@@Detail@Catch@@$$QEAV234@@Z
	??$_Emplace_back_with_unused_capacity@V?$unique_ptr@V?$basic_ostringstream@DU?$char_traits@D@std@@V?$allocator@D@2@@std@@@Detail@Catch@@@?$vector@V?$unique_ptr@V?$basic_ostringstream@DU?$char_traits@D@std@@V?$allocator@D@2@@std@@@Detail@Catch@@V?$allocator@V?$unique_ptr@V?$basic_ostringstream@DU?$char_traits@D@std@@V?$allocator@D@2@@std@@@Detail@Catch@@@std@@@std@@AEAAAEAV?$unique_ptr@V?$basic_ostringstream@DU?$char_traits@D@std@@V?$allocator@D@2@@std@@@Detail@Catch@@$$QEAV234@@Z
	??$_Emplace_back_with_unused_capacity@V?$unique_ptr@VEventListenerFactory@Catch@@@Detail@Catch@@@?$vector@V?$unique_ptr@VEventListenerFactory@Catch@@@Detail@Catch@@V?$allocator@V?$unique_ptr@VEventListenerFactory@Catch@@@Detail@Catch@@@std@@@std@@AEAAAEAV?$unique_ptr@VEventListenerFactory@Catch@@@Detail@Catch@@$$QEAV234@@Z
	??$_Emplace_back_with_unused_capacity@V?$unique_ptr@VIEventListener@Catch@@@Detail@Catch@@@?$vector@V?$unique_ptr@VIEventListener@Catch@@@Detail@Catch@@V?$allocator@V?$unique_ptr@VIEventListener@Catch@@@Detail@Catch@@@std@@@std@@AEAAAEAV?$unique_ptr@VIEventListener@Catch@@@Detail@Catch@@$$QEAV234@@Z
	??$_Emplace_back_with_unused_capacity@V?$unique_ptr@VITestInvoker@Catch@@@Detail@Catch@@@?$vector@V?$unique_ptr@VITestInvoker@Catch@@@Detail@Catch@@V?$allocator@V?$unique_ptr@VITestInvoker@Catch@@@Detail@Catch@@@std@@@std@@AEAAAEAV?$unique_ptr@VITestInvoker@Catch@@@Detail@Catch@@$$QEAV234@@Z
	??$_Emplace_back_with_unused_capacity@V?$unique_ptr@VITracker@TestCaseTracking@Catch@@@Detail@Catch@@@?$vector@V?$unique_ptr@VITracker@TestCaseTracking@Catch@@@Detail@Catch@@V?$allocator@V?$unique_ptr@VITracker@TestCaseTracking@Catch@@@Detail@Catch@@@std@@@std@@AEAAAEAV?$unique_ptr@VITracker@TestCaseTracking@Catch@@@Detail@Catch@@$$QEAV234@@Z
	??$_Emplace_back_with_unused_capacity@V?$unique_ptr@VNamePattern@TestSpec@Catch@@@Detail@Catch@@@?$vector@V?$unique_ptr@VPattern@TestSpec@Catch@@@Detail@Catch@@V?$allocator@V?$unique_ptr@VPattern@TestSpec@Catch@@@Detail@Catch@@@std@@@std@@AEAAAEAV?$unique_ptr@VPattern@TestSpec@Catch@@@Detail@Catch@@$$QEAV?$unique_ptr@VNamePattern@TestSpec@Catch@@@34@@Z
	??$_Emplace_back_with_unused_capacity@V?$unique_ptr@VTagPattern@TestSpec@Catch@@@Detail@Catch@@@?$vector@V?$unique_ptr@VPattern@TestSpec@Catch@@@Detail@Catch@@V?$allocator@V?$unique_ptr@VPattern@TestSpec@Catch@@@Detail@Catch@@@std@@@std@@AEAAAEAV?$unique_ptr@VPattern@TestSpec@Catch@@@Detail@Catch@@$$QEAV?$unique_ptr@VTagPattern@TestSpec@Catch@@@34@@Z
	??$_Emplace_back_with_unused_capacity@VReporterSpec@Catch@@@?$vector@VReporterSpec@Catch@@V?$allocator@VReporterSpec@Catch@@@std@@@std@@AEAAAEAVReporterSpec@Catch@@$$QEAV23@@Z
	??$_Emplace_back_with_unused_capacity@VStringRef@Catch@@@?$vector@UTag@Catch@@V?$allocator@UTag@Catch@@@std@@@std@@AEAAAEAUTag@Catch@@$$QEAVStringRef@3@@Z
	??$_Emplace_back_with_unused_capacity@VStringRef@Catch@@@?$vector@VStringRef@Catch@@V?$allocator@VStringRef@Catch@@@std@@@std@@AEAAAEAVStringRef@Catch@@$$QEAV23@@Z
	??$_Emplace_back_with_unused_capacity@Vconst_iterator@Column@TextFlow@Catch@@@?$vector@Vconst_iterator@Column@TextFlow@Catch@@V?$allocator@Vconst_iterator@Column@TextFlow@Catch@@@std@@@std@@AEAAAEAVconst_iterator@Column@TextFlow@Catch@@$$QEAV2345@@Z
	??$_Emplace_hint@AEBQEBVTestCaseHandle@Catch@@@?$_Tree@V?$_Tset_traits@PEBVTestCaseHandle@Catch@@U?$less@PEBVTestCaseHandle@Catch@@@std@@V?$allocator@PEBVTestCaseHandle@Catch@@@4@$0A@@std@@@std@@IEAAPEAU?$_Tree_node@PEBVTestCaseHandle@Catch@@PEAX@1@QEAU21@AEBQEBVTestCaseHandle@Catch@@@Z
	??$_Emplace_one_at_back@$$V@?$vector@V?$basic_string@DU?$char_traits@D@std@@V?$allocator@D@2@@std@@V?$allocator@V?$basic_string@DU?$char_traits@D@std@@V?$allocator@D@2@@std@@@2@@std@@AEAAAEAV?$basic_string@DU?$char_traits@D@std@@V?$allocator@D@2@@1@XZ
	??$_Emplace_one_at_back@AEAHAEBVStringRef@Catch@@@?$vector@U?$pair@HVStringRef@Catch@@@std@@V?$allocator@U?$pair@HVStringRef@Catch@@@std@@@2@@std@@AEAAAEAU?$pair@HVStringRef@Catch@@@1@AEAHAEBVStringRef@Catch@@@Z
	??$_Emplace_one_at_back@AEAVStringRef@Catch@@AEBUSourceLineInfo@2@AEAW4OfType@ResultWas@2@@?$vector@UMessageInfo@Catch@@V?$allocator@UMessageInfo@Catch@@@std@@@std@@AEAAAEAUMessageInfo@Catch@@AEAVStringRef@3@AEBUSourceLineInfo@3@AEAW4OfType@ResultWas@3@@Z
	??$_Emplace_one_at_back@AEAY01$$CBD@?$vector@V?$basic_string@DU?$char_traits@D@std@@V?$allocator@D@2@@std@@V?$allocator@V?$basic_string@DU?$char_traits@D@std@@V?$allocator@D@2@@std@@@2@@std@@AEAAAEAV?$basic_string@DU?$char_traits@D@std@@V?$allocator@D@2@@1@AEAY01$$CBD@Z
	??$_Emplace_one_at_back@AEBN@?$vector@NV?$allocator@N@std@@@std@@AEAAAEANAEBN@Z
	??$_Emplace_one_at_back@AEBQEAUISingleton@Catch@@@?$vector@PEAUISingleton@Catch@@V?$allocator@PEAUISingleton@Catch@@@std@@@std@@AEAAAEAPEAUISingleton@Catch@@AEBQEAU23@@Z
	??$_Emplace_one_at_back@AEBQEAUSectionNode@CumulativeReporterBase@Catch@@@?$vector@PEAUSectionNode@CumulativeReporterBase@Catch@@V?$allocator@PEAUSectionNode@CumulativeReporterBase@Catch@@@std@@@std@@AEAAAEAPEAUSectionNode@CumulativeReporterBase@Catch@@AEBQEAU234@@Z
	??$_Emplace_one_at_back@AEBU?$BenchmarkStats@V?$duration@NU?$ratio@$00$0DLJKMKAA@@std@@@chrono@std@@@Catch@@@?$vector@VAssertionOrBenchmarkResult@Detail@Catch@@V?$allocator@VAssertionOrBenchmarkResult@Detail@Catch@@@std@@@std@@AEAAAEAVAssertionOrBenchmarkResult@Detail@Catch@@AEBU?$BenchmarkStats@V?$duration@NU?$ratio@$00$0DLJKMKAA@@std@@@chrono@std@@@4@@Z
	??$_Emplace_one_at_back@AEBUAssertionStats@Catch@@@?$vector@VAssertionOrBenchmarkResult@Detail@Catch@@V?$allocator@VAssertionOrBenchmarkResult@Detail@Catch@@@std@@@std@@AEAAAEAVAssertionOrBenchmarkResult@Detail@Catch@@AEBUAssertionStats@4@@Z
	??$_Emplace_one_at_back@AEBUMessageInfo@Catch@@@?$vector@UMessageInfo@Catch@@V?$allocator@UMessageInfo@Catch@@@std@@@std@@AEAAAEAUMessageInfo@Catch@@AEBU23@@Z
	??$_Emplace_one_at_back@AEBUSectionInfo@Catch@@@?$vector@USectionInfo@Catch@@V?$allocator@USectionInfo@Catch@@@std@@@std@@AEAAAEAUSectionInfo@Catch@@AEBU23@@Z
	??$_Emplace_one_at_back@AEBV?$basic_string@DU?$char_traits@D@std@@V?$allocator@D@2@@std@@@?$vector@V?$basic_string@DU?$char_traits@D@std@@V?$allocator@D@2@@std@@V?$allocator@V?$basic_string@DU?$char_traits@D@std@@V?$allocator@D@2@@std@@@2@@std@@AEAAAEAV?$basic_string@DU?$char_traits@D@std@@V?$allocator@D@2@@1@AEBV21@@Z
	??$_Emplace_one_at_back@AEBVArg@Clara@Catch@@@?$vector@VArg@Clara@Catch@@V?$allocator@VArg@Clara@Catch@@@std@@@std@@AEAAAEAVArg@Clara@Catch@@AEBV234@@Z
	??$_Emplace_one_at_back@AEBVColumn@TextFlow@Catch@@@?$vector@VColumn@TextFlow@Catch@@V?$allocator@VColumn@TextFlow@Catch@@@std@@@std@@AEAAAEAVColumn@TextFlow@Catch@@AEBV234@@Z
	??$_Emplace_one_at_back@AEBVOpt@Clara@Catch@@@?$vector@VOpt@Clara@Catch@@V?$allocator@VOpt@Clara@Catch@@@std@@@std@@AEAAAEAVOpt@Clara@Catch@@AEBV234@@Z
	??$_Emplace_one_at_back@AEBVTestCaseHandle@Catch@@@?$vector@VTestCaseHandle@Catch@@V?$allocator@VTestCaseHandle@Catch@@@std@@@std@@AEAAAEAVTestCaseHandle@Catch@@AEBV23@@Z
	??$_Emplace_one_at_back@AEBVexception_ptr@std@@@?$vector@Vexception_ptr@std@@V?$allocator@Vexception_ptr@std@@@2@@std@@AEAAAEAVexception_ptr@1@AEBV21@@Z
	??$_Emplace_one_at_back@AEB_K@?$vector@_KV?$allocator@_K@std@@@std@@AEAAAEA_KAEB_K@Z
	??$_Emplace_one_at_back@IAEBVTestCaseHandle@Catch@@@?$vector@U?$pair@_KVTestCaseHandle@Catch@@@std@@V?$allocator@U?$pair@_KVTestCaseHandle@Catch@@@std@@@2@@std@@AEAAAEAU?$pair@_KVTestCaseHandle@Catch@@@1@$$QEAIAEBVTestCaseHandle@Catch@@@Z
	??$_Emplace_one_at_back@N@?$vector@NV?$allocator@N@std@@@std@@AEAAAEAN$$QEAN@Z
	??$_Emplace_one_at_back@PEAUTestCaseInfo@Catch@@@?$vector@PEAUTestCaseInfo@Catch@@V?$allocator@PEAUTestCaseInfo@Catch@@@std@@@std@@AEAAAEAPEAUTestCaseInfo@Catch@@$$QEAPEAU23@@Z
	??$_Emplace_one_at_back@PEAUTestCaseInfo@Catch@@PEAVITestInvoker@2@@?$vector@VTestCaseHandle@Catch@@V?$allocator@VTestCaseHandle@Catch@@@std@@@std@@AEAAAEAVTestCaseHandle@Catch@@$$QEAPEAUTestCaseInfo@3@$$QEAPEAVITestInvoker@3@@Z
	??$_Emplace_one_at_back@PEAVITracker@TestCaseTracking@Catch@@@?$vector@PEAVITracker@TestCaseTracking@Catch@@V?$allocator@PEAVITracker@TestCaseTracking@Catch@@@std@@@std@@AEAAAEAPEAVITracker@TestCaseTracking@Catch@@$$QEAPEAV234@@Z
	??$_Emplace_one_at_back@PEBU?$Node@UTestCaseStats@Catch@@USectionNode@CumulativeReporterBase@2@@CumulativeReporterBase@Catch@@@?$vector@PEBU?$Node@UTestCaseStats@Catch@@USectionNode@CumulativeReporterBase@2@@CumulativeReporterBase@Catch@@V?$allocator@PEBU?$Node@UTestCaseStats@Catch@@USectionNode@CumulativeReporterBase@2@@CumulativeReporterBase@Catch@@@std@@@std@@AEAAAEAPEBU?$Node@UTestCaseStats@Catch@@USectionNode@CumulativeReporterBase@2@@CumulativeReporterBase@Catch@@$$QEAPEBU234@@Z
	??$_Emplace_one_at_back@PEBVTestCaseHandle@Catch@@@?$vector@PEBVTestCaseHandle@Catch@@V?$allocator@PEBVTestCaseHandle@Catch@@@std@@@std@@AEAAAEAPEBVTestCaseHandle@Catch@@$$QEAPEBV23@@Z
	??$_Emplace_one_at_back@UFilter@TestSpec@Catch@@@?$vector@UFilter@TestSpec@Catch@@V?$allocator@UFilter@TestSpec@Catch@@@std@@@std@@AEAAAEAUFilter@TestSpec@Catch@@$$QEAU234@@Z
	??$_Emplace_one_at_back@UFilterMatch@TestSpec@Catch@@@?$vector@UFilterMatch@TestSpec@Catch@@V?$allocator@UFilterMatch@TestSpec@Catch@@@std@@@std@@AEAAAEAUFilterMatch@TestSpec@Catch@@$$QEAU234@@Z
	??$_Emplace_one_at_back@UListenerDescription@Catch@@@?$vector@UListenerDescription@Catch@@V?$allocator@UListenerDescription@Catch@@@std@@@std@@AEAAAEAUListenerDescription@Catch@@$$QEAU23@@Z
	??$_Emplace_one_at_back@UMessageBuilder@Catch@@@?$vector@VScopedMessage@Catch@@V?$allocator@VScopedMessage@Catch@@@std@@@std@@AEAAAEAVScopedMessage@Catch@@$$QEAUMessageBuilder@3@@Z
	??$_Emplace_one_at_back@UMessageInfo@Catch@@@?$vector@UMessageInfo@Catch@@V?$allocator@UMessageInfo@Catch@@@std@@@std@@AEAAAEAUMessageInfo@Catch@@$$QEAU23@@Z
	??$_Emplace_one_at_back@UProcessedReporterSpec@Catch@@@?$vector@UProcessedReporterSpec@Catch@@V?$allocator@UProcessedReporterSpec@Catch@@@std@@@std@@AEAAAEAUProcessedReporterSpec@Catch@@$$QEAU23@@Z
	??$_Emplace_one_at_back@UReporterDescription@Catch@@@?$vector@UReporterDescription@Catch@@V?$allocator@UReporterDescription@Catch@@@std@@@std@@AEAAAEAUReporterDescription@Catch@@$$QEAU23@@Z
	??$_Emplace_one_at_back@USectionEndInfo@Catch@@@?$vector@USectionEndInfo@Catch@@V?$allocator@USectionEndInfo@Catch@@@std@@@std@@AEAAAEAUSectionEndInfo@Catch@@$$QEAU23@@Z
	??$_Emplace_one_at_back@UTagInfo@Catch@@@?$vector@UTagInfo@Catch@@V?$allocator@UTagInfo@Catch@@@std@@@std@@AEAAAEAUTagInfo@Catch@@$$QEAU23@@Z
	??$_Emplace_one_at_back@UToken@Detail@Clara@Catch@@@?$vector@UToken@Detail@Clara@Catch@@V?$allocator@UToken@Detail@Clara@Catch@@@std@@@std@@AEAAAEAUToken@Detail@Clara@Catch@@$$QEAU2345@@Z
	??$_Emplace_one_at_back@V?$basic_string@DU?$char_traits@D@std@@V?$allocator@D@2@@std@@@?$vector@V?$basic_string@DU?$char_traits@D@std@@V?$allocator@D@2@@std@@V?$allocator@V?$basic_string@DU?$char_traits@D@std@@V?$allocator@D@2@@std@@@2@@std@@AEAAAEAV?$basic_string@DU?$char_traits@D@std@@V?$allocator@D@2@@1@$$QEAV21@@Z
	??$_Emplace_one_at_back@V?$unique_ptr@$$CBVIExceptionTranslator@Catch@@@Detail@Catch@@@?$vector@V?$unique_ptr@$$CBVIExceptionTranslator@Catch@@@Detail@Catch@@V?$allocator@V?$unique_ptr@$$CBVIExceptionTranslator@Catch@@@Detail@Catch@@@std@@@std@@AEAAAEAV?$unique_ptr@$$CBVIExceptionTranslator@Catch@@@Detail@Catch@@$$QEAV234@@Z
	??$_Emplace_one_at_back@V?$unique_ptr@U?$Node@UTestCaseStats@Catch@@USectionNode@CumulativeReporterBase@2@@CumulativeReporterBase@Catch@@@Detail@Catch@@@?$vector@V?$unique_ptr@U?$Node@UTestCaseStats@Catch@@USectionNode@CumulativeReporterBase@2@@CumulativeReporterBase@Catch@@@Detail@Catch@@V?$allocator@V?$unique_ptr@U?$Node@UTestCaseStats@Catch@@USectionNode@CumulativeReporterBase@2@@CumulativeReporterBase@Catch@@@Detail@Catch@@@std@@@std@@AEAAAEAV?$unique_ptr@U?$Node@UTestCaseStats@Catch@@USectionNode@CumulativeReporterBase@2@@CumulativeReporterBase@Catch@@@Detail@Catch@@$$QEAV234@@Z
	??$_Emplace_one_at_back@V?$unique_ptr@UEnumInfo@Detail@Catch@@@Detail@Catch@@@?$vector@V?$unique_ptr@UEnumInfo@Detail@Catch@@@Detail@Catch@@V?$allocator@V?$unique_ptr@UEnumInfo@Detail@Catch@@@Detail@Catch@@@std@@@std@@AEAAAEAV?$unique_ptr@UEnumInfo@Detail@Catch@@@Detail@Catch@@$$QEAV234@@Z
	??$_Emplace_one_at_back@V?$unique_ptr@USectionNode@CumulativeReporterBase@Catch@@@Detail@Catch@@@?$vector@V?$unique_ptr@USectionNode@CumulativeReporterBase@Catch@@@Detail@Catch@@V?$allocator@V?$unique_ptr@USectionNode@CumulativeReporterBase@Catch@@@Detail@Catch@@@std@@@std@@AEAAAEAV?$unique_ptr@USectionNode@CumulativeReporterBase@Catch@@@Detail@Catch@@$$QEAV234@@Z
	??$_Emplace_one_at_back@V?$unique_ptr@UTestCaseInfo@Catch@@@Detail@Catch@@@?$vector@V?$unique_ptr@UTestCaseInfo@Catch@@@Detail@Catch@@V?$allocator@V?$unique_ptr@UTestCaseInfo@Catch@@@Detail@Catch@@@std@@@std@@AEAAAEAV?$unique_ptr@UTestCaseInfo@Catch@@@Detail@Catch@@$$QEAV234@@Z
	??$_Emplace_one_at_back@V?$unique_ptr@V?$basic_ostringstream@DU?$char_traits@D@std@@V?$allocator@D@2@@std@@@Detail@Catch@@@?$vector@V?$unique_ptr@V?$basic_ostringstream@DU?$char_traits@D@std@@V?$allocator@D@2@@std@@@Detail@Catch@@V?$allocator@V?$unique_ptr@V?$basic_ostringstream@DU?$char_traits@D@std@@V?$allocator@D@2@@std@@@Detail@Catch@@@std@@@std@@AEAAAEAV?$unique_ptr@V?$basic_ostringstream@DU?$char_traits@D@std@@V?$allocator@D@2@@std@@@Detail@Catch@@$$QEAV234@@Z
	??$_Emplace_one_at_back@V?$unique_ptr@VEventListenerFactory@Catch@@@Detail@Catch@@@?$vector@V?$unique_ptr@VEventListenerFactory@Catch@@@Detail@Catch@@V?$allocator@V?$unique_ptr@VEventListenerFactory@Catch@@@Detail@Catch@@@std@@@std@@AEAAAEAV?$unique_ptr@VEventListenerFactory@Catch@@@Detail@Catch@@$$QEAV234@@Z
	??$_Emplace_one_at_back@V?$unique_ptr@VIEventListener@Catch@@@Detail@Catch@@@?$vector@V?$unique_ptr@VIEventListener@Catch@@@Detail@Catch@@V?$allocator@V?$unique_ptr@VIEventListener@Catch@@@Detail@Catch@@@std@@@std@@AEAAAEAV?$unique_ptr@VIEventListener@Catch@@@Detail@Catch@@$$QEAV234@@Z
	??$_Emplace_one_at_back@V?$unique_ptr@VITestInvoker@Catch@@@Detail@Catch@@@?$vector@V?$unique_ptr@VITestInvoker@Catch@@@Detail@Catch@@V?$allocator@V?$unique_ptr@VITestInvoker@Catch@@@Detail@Catch@@@std@@@std@@AEAAAEAV?$unique_ptr@VITestInvoker@Catch@@@Detail@Catch@@$$QEAV234@@Z
	??$_Emplace_one_at_back@V?$unique_ptr@VITracker@TestCaseTracking@Catch@@@Detail@Catch@@@?$vector@V?$unique_ptr@VITracker@TestCaseTracking@Catch@@@Detail@Catch@@V?$allocator@V?$unique_ptr@VITracker@TestCaseTracking@Catch@@@Detail@Catch@@@std@@@std@@AEAAAEAV?$unique_ptr@VITracker@TestCaseTracking@Catch@@@Detail@Catch@@$$QEAV234@@Z
	??$_Emplace_one_at_back@V?$unique_ptr@VNamePattern@TestSpec@Catch@@@Detail@Catch@@@?$vector@V?$unique_ptr@VPattern@TestSpec@Catch@@@Detail@Catch@@V?$allocator@V?$unique_ptr@VPattern@TestSpec@Catch@@@Detail@Catch@@@std@@@std@@AEAAAEAV?$unique_ptr@VPattern@TestSpec@Catch@@@Detail@Catch@@$$QEAV?$unique_ptr@VNamePattern@TestSpec@Catch@@@34@@Z
	??$_Emplace_one_at_back@V?$unique_ptr@VTagPattern@TestSpec@Catch@@@Detail@Catch@@@?$vector@V?$unique_ptr@VPattern@TestSpec@Catch@@@Detail@Catch@@V?$allocator@V?$unique_ptr@VPattern@TestSpec@Catch@@@Detail@Catch@@@std@@@std@@AEAAAEAV?$unique_ptr@VPattern@TestSpec@Catch@@@Detail@Catch@@$$QEAV?$unique_ptr@VTagPattern@TestSpec@Catch@@@34@@Z
	??$_Emplace_one_at_back@VReporterSpec@Catch@@@?$vector@VReporterSpec@Catch@@V?$allocator@VReporterSpec@Catch@@@std@@@std@@AEAAAEAVReporterSpec@Catch@@$$QEAV23@@Z
	??$_Emplace_one_at_back@VStringRef@Catch@@@?$vector@UTag@Catch@@V?$allocator@UTag@Catch@@@std@@@std@@AEAAAEAUTag@Catch@@$$QEAVStringRef@3@@Z
	??$_Emplace_one_at_back@VStringRef@Catch@@@?$vector@VStringRef@Catch@@V?$allocator@VStringRef@Catch@@@std@@@std@@AEAAAEAVStringRef@Catch@@$$QEAV23@@Z
	??$_Emplace_one_at_back@Vconst_iterator@Column@TextFlow@Catch@@@?$vector@Vconst_iterator@Column@TextFlow@Catch@@V?$allocator@Vconst_iterator@Column@TextFlow@Catch@@@std@@@std@@AEAAAEAVconst_iterator@Column@TextFlow@Catch@@$$QEAV2345@@Z
	??$_Emplace_reallocate@$$V@?$vector@V?$basic_string@DU?$char_traits@D@std@@V?$allocator@D@2@@std@@V?$allocator@V?$basic_string@DU?$char_traits@D@std@@V?$allocator@D@2@@std@@@2@@std@@AEAAPEAV?$basic_string@DU?$char_traits@D@std@@V?$allocator@D@2@@1@QEAV21@@Z
	??$_Emplace_reallocate@AEAHAEBVStringRef@Catch@@@?$vector@U?$pair@HVStringRef@Catch@@@std@@V?$allocator@U?$pair@HVStringRef@Catch@@@std@@@2@@std@@AEAAPEAU?$pair@HVStringRef@Catch@@@1@QEAU21@AEAHAEBVStringRef@Catch@@@Z
	??$_Emplace_reallocate@AEAVStringRef@Catch@@AEBUSourceLineInfo@2@AEAW4OfType@ResultWas@2@@?$vector@UMessageInfo@Catch@@V?$allocator@UMessageInfo@Catch@@@std@@@std@@AEAAPEAUMessageInfo@Catch@@QEAU23@AEAVStringRef@3@AEBUSourceLineInfo@3@AEAW4OfType@ResultWas@3@@Z
	??$_Emplace_reallocate@AEAY01$$CBD@?$vector@V?$basic_string@DU?$char_traits@D@std@@V?$allocator@D@2@@std@@V?$allocator@V?$basic_string@DU?$char_traits@D@std@@V?$allocator@D@2@@std@@@2@@std@@AEAAPEAV?$basic_string@DU?$char_traits@D@std@@V?$allocator@D@2@@1@QEAV21@AEAY01$$CBD@Z
	??$_Emplace_reallocate@AEBN@?$vector@NV?$allocator@N@std@@@std@@AEAAPEANQEANAEBN@Z
	??$_Emplace_reallocate@AEBQEAUISingleton@Catch@@@?$vector@PEAUISingleton@Catch@@V?$allocator@PEAUISingleton@Catch@@@std@@@std@@AEAAPEAPEAUISingleton@Catch@@QEAPEAU23@AEBQEAU23@@Z
	??$_Emplace_reallocate@AEBQEAUSectionNode@CumulativeReporterBase@Catch@@@?$vector@PEAUSectionNode@CumulativeReporterBase@Catch@@V?$allocator@PEAUSectionNode@CumulativeReporterBase@Catch@@@std@@@std@@AEAAPEAPEAUSectionNode@CumulativeReporterBase@Catch@@QEAPEAU234@AEBQEAU234@@Z
	??$_Emplace_reallocate@AEBU?$BenchmarkStats@V?$duration@NU?$ratio@$00$0DLJKMKAA@@std@@@chrono@std@@@Catch@@@?$vector@VAssertionOrBenchmarkResult@Detail@Catch@@V?$allocator@VAssertionOrBenchmarkResult@Detail@Catch@@@std@@@std@@AEAAPEAVAssertionOrBenchmarkResult@Detail@Catch@@QEAV234@AEBU?$BenchmarkStats@V?$duration@NU?$ratio@$00$0DLJKMKAA@@std@@@chrono@std@@@4@@Z
	??$_Emplace_reallocate@AEBUAssertionStats@Catch@@@?$vector@VAssertionOrBenchmarkResult@Detail@Catch@@V?$allocator@VAssertionOrBenchmarkResult@Detail@Catch@@@std@@@std@@AEAAPEAVAssertionOrBenchmarkResult@Detail@Catch@@QEAV234@AEBUAssertionStats@4@@Z
	??$_Emplace_reallocate@AEBUMessageInfo@Catch@@@?$vector@UMessageInfo@Catch@@V?$allocator@UMessageInfo@Catch@@@std@@@std@@AEAAPEAUMessageInfo@Catch@@QEAU23@AEBU23@@Z
	??$_Emplace_reallocate@AEBUSectionInfo@Catch@@@?$vector@USectionInfo@Catch@@V?$allocator@USectionInfo@Catch@@@std@@@std@@AEAAPEAUSectionInfo@Catch@@QEAU23@AEBU23@@Z
	??$_Emplace_reallocate@AEBV?$basic_string@DU?$char_traits@D@std@@V?$allocator@D@2@@std@@@?$vector@V?$basic_string@DU?$char_traits@D@std@@V?$allocator@D@2@@std@@V?$allocator@V?$basic_string@DU?$char_traits@D@std@@V?$allocator@D@2@@std@@@2@@std@@AEAAPEAV?$basic_string@DU?$char_traits@D@std@@V?$allocator@D@2@@1@QEAV21@AEBV21@@Z
	??$_Emplace_reallocate@AEBVArg@Clara@Catch@@@?$vector@VArg@Clara@Catch@@V?$allocator@VArg@Clara@Catch@@@std@@@std@@AEAAPEAVArg@Clara@Catch@@QEAV234@AEBV234@@Z
	??$_Emplace_reallocate@AEBVColumn@TextFlow@Catch@@@?$vector@VColumn@TextFlow@Catch@@V?$allocator@VColumn@TextFlow@Catch@@@std@@@std@@AEAAPEAVColumn@TextFlow@Catch@@QEAV234@AEBV234@@Z
	??$_Emplace_reallocate@AEBVOpt@Clara@Catch@@@?$vector@VOpt@Clara@Catch@@V?$allocator@VOpt@Clara@Catch@@@std@@@std@@AEAAPEAVOpt@Clara@Catch@@QEAV234@AEBV234@@Z
	??$_Emplace_reallocate@AEBVTestCaseHandle@Catch@@@?$vector@VTestCaseHandle@Catch@@V?$allocator@VTestCaseHandle@Catch@@@std@@@std@@AEAAPEAVTestCaseHandle@Catch@@QEAV23@AEBV23@@Z
	??$_Emplace_reallocate@AEBVexception_ptr@std@@@?$vector@Vexception_ptr@std@@V?$allocator@Vexception_ptr@std@@@2@@std@@AEAAPEAVexception_ptr@1@QEAV21@AEBV21@@Z
	??$_Emplace_reallocate@AEB_K@?$vector@_KV?$allocator@_K@std@@@std@@AEAAPEA_KQEA_KAEB_K@Z
	??$_Emplace_reallocate@IAEBVTestCaseHandle@Catch@@@?$vector@U?$pair@_KVTestCaseHandle@Catch@@@std@@V?$allocator@U?$pair@_KVTestCaseHandle@Catch@@@std@@@2@@std@@AEAAPEAU?$pair@_KVTestCaseHandle@Catch@@@1@QEAU21@$$QEAIAEBVTestCaseHandle@Catch@@@Z
	??$_Emplace_reallocate@N@?$vector@NV?$allocator@N@std@@@std@@AEAAPEANQEAN$$QEAN@Z
	??$_Emplace_reallocate@PEAUTestCaseInfo@Catch@@@?$vector@PEAUTestCaseInfo@Catch@@V?$allocator@PEAUTestCaseInfo@Catch@@@std@@@std@@AEAAPEAPEAUTestCaseInfo@Catch@@QEAPEAU23@$$QEAPEAU23@@Z
	??$_Emplace_reallocate@PEAUTestCaseInfo@Catch@@PEAVITestInvoker@2@@?$vector@VTestCaseHandle@Catch@@V?$allocator@VTestCaseHandle@Catch@@@std@@@std@@AEAAPEAVTestCaseHandle@Catch@@QEAV23@$$QEAPEAUTestCaseInfo@3@$$QEAPEAVITestInvoker@3@@Z
	??$_Emplace_reallocate@PEAVITracker@TestCaseTracking@Catch@@@?$vector@PEAVITracker@TestCaseTracking@Catch@@V?$allocator@PEAVITracker@TestCaseTracking@Catch@@@std@@@std@@AEAAPEAPEAVITracker@TestCaseTracking@Catch@@QEAPEAV234@$$QEAPEAV234@@Z
	??$_Emplace_reallocate@PEBU?$Node@UTestCaseStats@Catch@@USectionNode@CumulativeReporterBase@2@@CumulativeReporterBase@Catch@@@?$vector@PEBU?$Node@UTestCaseStats@Catch@@USectionNode@CumulativeReporterBase@2@@CumulativeReporterBase@Catch@@V?$allocator@PEBU?$Node@UTestCaseStats@Catch@@USectionNode@CumulativeReporterBase@2@@CumulativeReporterBase@Catch@@@std@@@std@@AEAAPEAPEBU?$Node@UTestCaseStats@Catch@@USectionNode@CumulativeReporterBase@2@@CumulativeReporterBase@Catch@@QEAPEBU234@$$QEAPEBU234@@Z
	??$_Emplace_reallocate@PEBVTestCaseHandle@Catch@@@?$vector@PEBVTestCaseHandle@Catch@@V?$allocator@PEBVTestCaseHandle@Catch@@@std@@@std@@AEAAPEAPEBVTestCaseHandle@Catch@@QEAPEBV23@$$QEAPEBV23@@Z
	??$_Emplace_reallocate@UFilter@TestSpec@Catch@@@?$vector@UFilter@TestSpec@Catch@@V?$allocator@UFilter@TestSpec@Catch@@@std@@@std@@AEAAPEAUFilter@TestSpec@Catch@@QEAU234@$$QEAU234@@Z
	??$_Emplace_reallocate@UFilterMatch@TestSpec@Catch@@@?$vector@UFilterMatch@TestSpec@Catch@@V?$allocator@UFilterMatch@TestSpec@Catch@@@std@@@std@@AEAAPEAUFilterMatch@TestSpec@Catch@@QEAU234@$$QEAU234@@Z
	??$_Emplace_reallocate@UListenerDescription@Catch@@@?$vector@UListenerDescription@Catch@@V?$allocator@UListenerDescription@Catch@@@std@@@std@@AEAAPEAUListenerDescription@Catch@@QEAU23@$$QEAU23@@Z
	??$_Emplace_reallocate@UMessageBuilder@Catch@@@?$vector@VScopedMessage@Catch@@V?$allocator@VScopedMessage@Catch@@@std@@@std@@AEAAPEAVScopedMessage@Catch@@QEAV23@$$QEAUMessageBuilder@3@@Z
	??$_Emplace_reallocate@UMessageInfo@Catch@@@?$vector@UMessageInfo@Catch@@V?$allocator@UMessageInfo@Catch@@@std@@@std@@AEAAPEAUMessageInfo@Catch@@QEAU23@$$QEAU23@@Z
	??$_Emplace_reallocate@UProcessedReporterSpec@Catch@@@?$vector@UProcessedReporterSpec@Catch@@V?$allocator@UProcessedReporterSpec@Catch@@@std@@@std@@AEAAPEAUProcessedReporterSpec@Catch@@QEAU23@$$QEAU23@@Z
	??$_Emplace_reallocate@UReporterDescription@Catch@@@?$vector@UReporterDescription@Catch@@V?$allocator@UReporterDescription@Catch@@@std@@@std@@AEAAPEAUReporterDescription@Catch@@QEAU23@$$QEAU23@@Z
	??$_Emplace_reallocate@USectionEndInfo@Catch@@@?$vector@USectionEndInfo@Catch@@V?$allocator@USectionEndInfo@Catch@@@std@@@std@@AEAAPEAUSectionEndInfo@Catch@@QEAU23@$$QEAU23@@Z
	??$_Emplace_reallocate@UTagInfo@Catch@@@?$vector@UTagInfo@Catch@@V?$allocator@UTagInfo@Catch@@@std@@@std@@AEAAPEAUTagInfo@Catch@@QEAU23@$$QEAU23@@Z
	??$_Emplace_reallocate@UToken@Detail@Clara@Catch@@@?$vector@UToken@Detail@Clara@Catch@@V?$allocator@UToken@Detail@Clara@Catch@@@std@@@std@@AEAAPEAUToken@Detail@Clara@Catch@@QEAU2345@$$QEAU2345@@Z
	??$_Emplace_reallocate@V?$basic_string@DU?$char_traits@D@std@@V?$allocator@D@2@@std@@@?$vector@V?$basic_string@DU?$char_traits@D@std@@V?$allocator@D@2@@std@@V?$allocator@V?$basic_string@DU?$char_traits@D@std@@V?$allocator@D@2@@std@@@2@@std@@AEAAPEAV?$basic_string@DU?$char_traits@D@std@@V?$allocator@D@2@@1@QEAV21@$$QEAV21@@Z
	??$_Emplace_reallocate@V?$unique_ptr@$$CBVIExceptionTranslator@Catch@@@Detail@Catch@@@?$vector@V?$unique_ptr@$$CBVIExceptionTranslator@Catch@@@Detail@Catch@@V?$allocator@V?$unique_ptr@$$CBVIExceptionTranslator@Catch@@@Detail@Catch@@@std@@@std@@AEAAPEAV?$unique_ptr@$$CBVIExceptionTranslator@Catch@@@Detail@Catch@@QEAV234@$$QEAV234@@Z
	??$_Emplace_reallocate@V?$unique_ptr@U?$Node@UTestCaseStats@Catch@@USectionNode@CumulativeReporterBase@2@@CumulativeReporterBase@Catch@@@Detail@Catch@@@?$vector@V?$unique_ptr@U?$Node@UTestCaseStats@Catch@@USectionNode@CumulativeReporterBase@2@@CumulativeReporterBase@Catch@@@Detail@Catch@@V?$allocator@V?$unique_ptr@U?$Node@UTestCaseStats@Catch@@USectionNode@CumulativeReporterBase@2@@CumulativeReporterBase@Catch@@@Detail@Catch@@@std@@@std@@AEAAPEAV?$unique_ptr@U?$Node@UTestCaseStats@Catch@@USectionNode@CumulativeReporterBase@2@@CumulativeReporterBase@Catch@@@Detail@Catch@@QEAV234@$$QEAV234@@Z
	??$_Emplace_reallocate@V?$unique_ptr@UEnumInfo@Detail@Catch@@@Detail@Catch@@@?$vector@V?$unique_ptr@UEnumInfo@Detail@Catch@@@Detail@Catch@@V?$allocator@V?$unique_ptr@UEnumInfo@Detail@Catch@@@Detail@Catch@@@std@@@std@@AEAAPEAV?$unique_ptr@UEnumInfo@Detail@Catch@@@Detail@Catch@@QEAV234@$$QEAV234@@Z
	??$_Emplace_reallocate@V?$unique_ptr@USectionNode@CumulativeReporterBase@Catch@@@Detail@Catch@@@?$vector@V?$unique_ptr@USectionNode@CumulativeReporterBase@Catch@@@Detail@Catch@@V?$allocator@V?$unique_ptr@USectionNode@CumulativeReporterBase@Catch@@@Detail@Catch@@@std@@@std@@AEAAPEAV?$unique_ptr@USectionNode@CumulativeReporterBase@Catch@@@Detail@Catch@@QEAV234@$$QEAV234@@Z
	??$_Emplace_reallocate@V?$unique_ptr@UTestCaseInfo@Catch@@@Detail@Catch@@@?$vector@V?$unique_ptr@UTestCaseInfo@Catch@@@Detail@Catch@@V?$allocator@V?$unique_ptr@UTestCaseInfo@Catch@@@Detail@Catch@@@std@@@std@@AEAAPEAV?$unique_ptr@UTestCaseInfo@Catch@@@Detail@Catch@@QEAV234@$$QEAV234@@Z
	??$_Emplace_reallocate@V?$unique_ptr@V?$basic_ostringstream@DU?$char_traits@D@std@@V?$allocator@D@2@@std@@@Detail@Catch@@@?$vector@V?$unique_ptr@V?$basic_ostringstream@DU?$char_traits@D@std@@V?$allocator@D@2@@std@@@Detail@Catch@@V?$allocator@V?$unique_ptr@V?$basic_ostringstream@DU?$char_traits@D@std@@V?$allocator@D@2@@std@@@Detail@Catch@@@std@@@std@@AEAAPEAV?$unique_ptr@V?$basic_ostringstream@DU?$char_traits@D@std@@V?$allocator@D@2@@std@@@Detail@Catch@@QEAV234@$$QEAV234@@Z
	??$_Emplace_reallocate@V?$unique_ptr@VEventListenerFactory@Catch@@@Detail@Catch@@@?$vector@V?$unique_ptr@VEventListenerFactory@Catch@@@Detail@Catch@@V?$allocator@V?$unique_ptr@VEventListenerFactory@Catch@@@Detail@Catch@@@std@@@std@@AEAAPEAV?$unique_ptr@VEventListenerFactory@Catch@@@Detail@Catch@@QEAV234@$$QEAV234@@Z
	??$_Emplace_reallocate@V?$unique_ptr@VIEventListener@Catch@@@Detail@Catch@@@?$vector@V?$unique_ptr@VIEventListener@Catch@@@Detail@Catch@@V?$allocator@V?$unique_ptr@VIEventListener@Catch@@@Detail@Catch@@@std@@@std@@AEAAPEAV?$unique_ptr@VIEventListener@Catch@@@Detail@Catch@@QEAV234@$$QEAV234@@Z
	??$_Emplace_reallocate@V?$unique_ptr@VITestInvoker@Catch@@@Detail@Catch@@@?$vector@V?$unique_ptr@VITestInvoker@Catch@@@Detail@Catch@@V?$allocator@V?$unique_ptr@VITestInvoker@Catch@@@Detail@Catch@@@std@@@std@@AEAAPEAV?$unique_ptr@VITestInvoker@Catch@@@Detail@Catch@@QEAV234@$$QEAV234@@Z
	??$_Emplace_reallocate@V?$unique_ptr@VITracker@TestCaseTracking@Catch@@@Detail@Catch@@@?$vector@V?$unique_ptr@VITracker@TestCaseTracking@Catch@@@Detail@Catch@@V?$allocator@V?$unique_ptr@VITracker@TestCaseTracking@Catch@@@Detail@Catch@@@std@@@std@@AEAAPEAV?$unique_ptr@VITracker@TestCaseTracking@Catch@@@Detail@Catch@@QEAV234@$$QEAV234@@Z
	??$_Emplace_reallocate@V?$unique_ptr@VNamePattern@TestSpec@Catch@@@Detail@Catch@@@?$vector@V?$unique_ptr@VPattern@TestSpec@Catch@@@Detail@Catch@@V?$allocator@V?$unique_ptr@VPattern@TestSpec@Catch@@@Detail@Catch@@@std@@@std@@AEAAPEAV?$unique_ptr@VPattern@TestSpec@Catch@@@Detail@Catch@@QEAV234@$$QEAV?$unique_ptr@VNamePattern@TestSpec@Catch@@@34@@Z
	??$_Emplace_reallocate@V?$unique_ptr@VTagPattern@TestSpec@Catch@@@Detail@Catch@@@?$vector@V?$unique_ptr@VPattern@TestSpec@Catch@@@Detail@Catch@@V?$allocator@V?$unique_ptr@VPattern@TestSpec@Catch@@@Detail@Catch@@@std@@@std@@AEAAPEAV?$unique_ptr@VPattern@TestSpec@Catch@@@Detail@Catch@@QEAV234@$$QEAV?$unique_ptr@VTagPattern@TestSpec@Catch@@@34@@Z
	??$_Emplace_reallocate@VReporterSpec@Catch@@@?$vector@VReporterSpec@Catch@@V?$allocator@VReporterSpec@Catch@@@std@@@std@@AEAAPEAVReporterSpec@Catch@@QEAV23@$$QEAV23@@Z
	??$_Emplace_reallocate@VStringRef@Catch@@@?$vector@UTag@Catch@@V?$allocator@UTag@Catch@@@std@@@std@@AEAAPEAUTag@Catch@@QEAU23@$$QEAVStringRef@3@@Z
	??$_Emplace_reallocate@VStringRef@Catch@@@?$vector@VStringRef@Catch@@V?$allocator@VStringRef@Catch@@@std@@@std@@AEAAPEAVStringRef@Catch@@QEAV23@$$QEAV23@@Z
	??$_Emplace_reallocate@Vconst_iterator@Column@TextFlow@Catch@@@?$vector@Vconst_iterator@Column@TextFlow@Catch@@V?$allocator@Vconst_iterator@Column@TextFlow@Catch@@@std@@@std@@AEAAPEAVconst_iterator@Column@TextFlow@Catch@@QEAV2345@$$QEAV2345@@Z
	??$_Emplace_result@U?$Estimate@N@Benchmark@Catch@@@?$_Associated_state@U?$Estimate@N@Benchmark@Catch@@@std@@QEAAX$$QEAU?$Estimate@N@Benchmark@Catch@@@Z
	??$_Erase_head@V?$allocator@U?$_Tree_node@PEBUTestCaseInfo@Catch@@PEAX@std@@@std@@@?$_Tree_val@U?$_Tree_simple_types@PEBUTestCaseInfo@Catch@@@std@@@std@@QEAAXAEAV?$allocator@U?$_Tree_node@PEBUTestCaseInfo@Catch@@PEAX@std@@@1@@Z
	??$_Erase_head@V?$allocator@U?$_Tree_node@PEBVTestCaseHandle@Catch@@PEAX@std@@@std@@@?$_Tree_val@U?$_Tree_simple_types@PEBVTestCaseHandle@Catch@@@std@@@std@@QEAAXAEAV?$allocator@U?$_Tree_node@PEBVTestCaseHandle@Catch@@PEAX@std@@@1@@Z
	??$_Erase_head@V?$allocator@U?$_Tree_node@U?$pair@$$CBV?$basic_string@DU?$char_traits@D@std@@V?$allocator@D@2@@std@@UTagAlias@Catch@@@std@@PEAX@std@@@std@@@?$_Tree_val@U?$_Tree_simple_types@U?$pair@$$CBV?$basic_string@DU?$char_traits@D@std@@V?$allocator@D@2@@std@@UTagAlias@Catch@@@std@@@std@@@std@@QEAAXAEAV?$allocator@U?$_Tree_node@U?$pair@$$CBV?$basic_string@DU?$char_traits@D@std@@V?$allocator@D@2@@std@@UTagAlias@Catch@@@std@@PEAX@std@@@1@@Z
	??$_Erase_head@V?$allocator@U?$_Tree_node@U?$pair@$$CBV?$basic_string@DU?$char_traits@D@std@@V?$allocator@D@2@@std@@V12@@std@@PEAX@std@@@std@@@?$_Tree_val@U?$_Tree_simple_types@U?$pair@$$CBV?$basic_string@DU?$char_traits@D@std@@V?$allocator@D@2@@std@@V12@@std@@@std@@@std@@QEAAXAEAV?$allocator@U?$_Tree_node@U?$pair@$$CBV?$basic_string@DU?$char_traits@D@std@@V?$allocator@D@2@@std@@V12@@std@@PEAX@std@@@1@@Z
	??$_Erase_head@V?$allocator@U?$_Tree_node@U?$pair@$$CBV?$basic_string@DU?$char_traits@D@std@@V?$allocator@D@2@@std@@V?$unique_ptr@VIReporterFactory@Catch@@@Detail@Catch@@@std@@PEAX@std@@@std@@@?$_Tree_val@U?$_Tree_simple_types@U?$pair@$$CBV?$basic_string@DU?$char_traits@D@std@@V?$allocator@D@2@@std@@V?$unique_ptr@VIReporterFactory@Catch@@@Detail@Catch@@@std@@@std@@@std@@QEAAXAEAV?$allocator@U?$_Tree_node@U?$pair@$$CBV?$basic_string@DU?$char_traits@D@std@@V?$allocator@D@2@@std@@V?$unique_ptr@VIReporterFactory@Catch@@@Detail@Catch@@@std@@PEAX@std@@@1@@Z
	??$_Erase_head@V?$allocator@U?$_Tree_node@U?$pair@$$CBVStringRef@Catch@@UTagInfo@2@@std@@PEAX@std@@@std@@@?$_Tree_val@U?$_Tree_simple_types@U?$pair@$$CBVStringRef@Catch@@UTagInfo@2@@std@@@std@@@std@@QEAAXAEAV?$allocator@U?$_Tree_node@U?$pair@$$CBVStringRef@Catch@@UTagInfo@2@@std@@PEAX@std@@@1@@Z
	??$_Erase_head@V?$allocator@U?$_Tree_node@U?$pair@$$CBVStringRef@Catch@@V?$vector@PEBU?$Node@UTestCaseStats@Catch@@USectionNode@CumulativeReporterBase@2@@CumulativeReporterBase@Catch@@V?$allocator@PEBU?$Node@UTestCaseStats@Catch@@USectionNode@CumulativeReporterBase@2@@CumulativeReporterBase@Catch@@@std@@@std@@@std@@PEAX@std@@@std@@@?$_Tree_val@U?$_Tree_simple_types@U?$pair@$$CBVStringRef@Catch@@V?$vector@PEBU?$Node@UTestCaseStats@Catch@@USectionNode@CumulativeReporterBase@2@@CumulativeReporterBase@Catch@@V?$allocator@PEBU?$Node@UTestCaseStats@Catch@@USectionNode@CumulativeReporterBase@2@@CumulativeReporterBase@Catch@@@std@@@std@@@std@@@std@@@std@@QEAAXAEAV?$allocator@U?$_Tree_node@U?$pair@$$CBVStringRef@Catch@@V?$vector@PEBU?$Node@UTestCaseStats@Catch@@USectionNode@CumulativeReporterBase@2@@CumulativeReporterBase@Catch@@V?$allocator@PEBU?$Node@UTestCaseStats@Catch@@USectionNode@CumulativeReporterBase@2@@CumulativeReporterBase@Catch@@@std@@@std@@@std@@PEAX@std@@@1@@Z
	??$_Erase_head@V?$allocator@U?$_Tree_node@VStringRef@Catch@@PEAX@std@@@std@@@?$_Tree_val@U?$_Tree_simple_types@VStringRef@Catch@@@std@@@std@@QEAAXAEAV?$allocator@U?$_Tree_node@VStringRef@Catch@@PEAX@std@@@1@@Z
	??$_Erase_tree@V?$allocator@U?$_Tree_node@PEBUTestCaseInfo@Catch@@PEAX@std@@@std@@@?$_Tree_val@U?$_Tree_simple_types@PEBUTestCaseInfo@Catch@@@std@@@std@@QEAAXAEAV?$allocator@U?$_Tree_node@PEBUTestCaseInfo@Catch@@PEAX@std@@@1@PEAU?$_Tree_node@PEBUTestCaseInfo@Catch@@PEAX@1@@Z
	??$_Erase_tree@V?$allocator@U?$_Tree_node@PEBVTestCaseHandle@Catch@@PEAX@std@@@std@@@?$_Tree_val@U?$_Tree_simple_types@PEBVTestCaseHandle@Catch@@@std@@@std@@QEAAXAEAV?$allocator@U?$_Tree_node@PEBVTestCaseHandle@Catch@@PEAX@std@@@1@PEAU?$_Tree_node@PEBVTestCaseHandle@Catch@@PEAX@1@@Z
	??$_Erase_tree@V?$allocator@U?$_Tree_node@U?$pair@$$CBV?$basic_string@DU?$char_traits@D@std@@V?$allocator@D@2@@std@@UTagAlias@Catch@@@std@@PEAX@std@@@std@@@?$_Tree_val@U?$_Tree_simple_types@U?$pair@$$CBV?$basic_string@DU?$char_traits@D@std@@V?$allocator@D@2@@std@@UTagAlias@Catch@@@std@@@std@@@std@@QEAAXAEAV?$allocator@U?$_Tree_node@U?$pair@$$CBV?$basic_string@DU?$char_traits@D@std@@V?$allocator@D@2@@std@@UTagAlias@Catch@@@std@@PEAX@std@@@1@PEAU?$_Tree_node@U?$pair@$$CBV?$basic_string@DU?$char_traits@D@std@@V?$allocator@D@2@@std@@UTagAlias@Catch@@@std@@PEAX@1@@Z
	??$_Erase_tree@V?$allocator@U?$_Tree_node@U?$pair@$$CBV?$basic_string@DU?$char_traits@D@std@@V?$allocator@D@2@@std@@V12@@std@@PEAX@std@@@std@@@?$_Tree_val@U?$_Tree_simple_types@U?$pair@$$CBV?$basic_string@DU?$char_traits@D@std@@V?$allocator@D@2@@std@@V12@@std@@@std@@@std@@QEAAXAEAV?$allocator@U?$_Tree_node@U?$pair@$$CBV?$basic_string@DU?$char_traits@D@std@@V?$allocator@D@2@@std@@V12@@std@@PEAX@std@@@1@PEAU?$_Tree_node@U?$pair@$$CBV?$basic_string@DU?$char_traits@D@std@@V?$allocator@D@2@@std@@V12@@std@@PEAX@1@@Z
	??$_Erase_tree@V?$allocator@U?$_Tree_node@U?$pair@$$CBV?$basic_string@DU?$char_traits@D@std@@V?$allocator@D@2@@std@@V?$unique_ptr@VIReporterFactory@Catch@@@Detail@Catch@@@std@@PEAX@std@@@std@@@?$_Tree_val@U?$_Tree_simple_types@U?$pair@$$CBV?$basic_string@DU?$char_traits@D@std@@V?$allocator@D@2@@std@@V?$unique_ptr@VIReporterFactory@Catch@@@Detail@Catch@@@std@@@std@@@std@@QEAAXAEAV?$allocator@U?$_Tree_node@U?$pair@$$CBV?$basic_string@DU?$char_traits@D@std@@V?$allocator@D@2@@std@@V?$unique_ptr@VIReporterFactory@Catch@@@Detail@Catch@@@std@@PEAX@std@@@1@PEAU?$_Tree_node@U?$pair@$$CBV?$basic_string@DU?$char_traits@D@std@@V?$allocator@D@2@@std@@V?$unique_ptr@VIReporterFactory@Catch@@@Detail@Catch@@@std@@PEAX@1@@Z
	??$_Erase_tree@V?$allocator@U?$_Tree_node@U?$pair@$$CBVStringRef@Catch@@UTagInfo@2@@std@@PEAX@std@@@std@@@?$_Tree_val@U?$_Tree_simple_types@U?$pair@$$CBVStringRef@Catch@@UTagInfo@2@@std@@@std@@@std@@QEAAXAEAV?$allocator@U?$_Tree_node@U?$pair@$$CBVStringRef@Catch@@UTagInfo@2@@std@@PEAX@std@@@1@PEAU?$_Tree_node@U?$pair@$$CBVStringRef@Catch@@UTagInfo@2@@std@@PEAX@1@@Z
	??$_Erase_tree@V?$allocator@U?$_Tree_node@U?$pair@$$CBVStringRef@Catch@@V?$vector@PEBU?$Node@UTestCaseStats@Catch@@USectionNode@CumulativeReporterBase@2@@CumulativeReporterBase@Catch@@V?$allocator@PEBU?$Node@UTestCaseStats@Catch@@USectionNode@CumulativeReporterBase@2@@CumulativeReporterBase@Catch@@@std@@@std@@@std@@PEAX@std@@@std@@@?$_Tree_val@U?$_Tree_simple_types@U?$pair@$$CBVStringRef@Catch@@V?$vector@PEBU?$Node@UTestCaseStats@Catch@@USectionNode@CumulativeReporterBase@2@@CumulativeReporterBase@Catch@@V?$allocator@PEBU?$Node@UTestCaseStats@Catch@@USectionNode@CumulativeReporterBase@2@@CumulativeReporterBase@Catch@@@std@@@std@@@std@@@std@@@std@@QEAAXAEAV?$allocator@U?$_Tree_node@U?$pair@$$CBVStringRef@Catch@@V?$vector@PEBU?$Node@UTestCaseStats@Catch@@USectionNode@CumulativeReporterBase@2@@CumulativeReporterBase@Catch@@V?$allocator@PEBU?$Node@UTestCaseStats@Catch@@USectionNode@CumulativeReporterBase@2@@CumulativeReporterBase@Catch@@@std@@@std@@@std@@PEAX@std@@@1@PEAU?$_Tree_node@U?$pair@$$CBVStringRef@Catch@@V?$vector@PEBU?$Node@UTestCaseStats@Catch@@USectionNode@CumulativeReporterBase@2@@CumulativeReporterBase@Catch@@V?$allocator@PEBU?$Node@UTestCaseStats@Catch@@USectionNode@CumulativeReporterBase@2@@CumulativeReporterBase@Catch@@@std@@@std@@@std@@PEAX@1@@Z
	??$_Erase_tree@V?$allocator@U?$_Tree_node@VStringRef@Catch@@PEAX@std@@@std@@@?$_Tree_val@U?$_Tree_simple_types@VStringRef@Catch@@@std@@@std@@QEAAXAEAV?$allocator@U?$_Tree_node@VStringRef@Catch@@PEAX@std@@@1@PEAU?$_Tree_node@VStringRef@Catch@@PEAX@1@@Z
	??$_Erase_tree_and_orphan@V?$allocator@U?$_Tree_node@PEBVTestCaseHandle@Catch@@PEAX@std@@@std@@@?$_Tree_val@U?$_Tree_simple_types@PEBVTestCaseHandle@Catch@@@std@@@std@@QEAAXAEAV?$allocator@U?$_Tree_node@PEBVTestCaseHandle@Catch@@PEAX@std@@@1@PEAU?$_Tree_node@PEBVTestCaseHandle@Catch@@PEAX@1@@Z
	??$_Erase_tree_and_orphan@V?$allocator@U?$_Tree_node@U?$pair@$$CBV?$basic_string@DU?$char_traits@D@std@@V?$allocator@D@2@@std@@V12@@std@@PEAX@std@@@std@@@?$_Tree_val@U?$_Tree_simple_types@U?$pair@$$CBV?$basic_string@DU?$char_traits@D@std@@V?$allocator@D@2@@std@@V12@@std@@@std@@@std@@QEAAXAEAV?$allocator@U?$_Tree_node@U?$pair@$$CBV?$basic_string@DU?$char_traits@D@std@@V?$allocator@D@2@@std@@V12@@std@@PEAX@std@@@1@PEAU?$_Tree_node@U?$pair@$$CBV?$basic_string@DU?$char_traits@D@std@@V?$allocator@D@2@@std@@V12@@std@@PEAX@1@@Z
	??$_Erase_tree_and_orphan@V?$allocator@U?$_Tree_node@VStringRef@Catch@@PEAX@std@@@std@@@?$_Tree_val@U?$_Tree_simple_types@VStringRef@Catch@@@std@@@std@@QEAAXAEAV?$allocator@U?$_Tree_node@VStringRef@Catch@@PEAX@std@@@1@PEAU?$_Tree_node@VStringRef@Catch@@PEAX@1@@Z
	??$_Eval@V?$mersenne_twister_engine@I$0CA@$0CHA@$0BIN@$0BP@$0JJAILANP@$0L@$0PPPPPPPP@$06$0JNCMFGIA@$0P@$0OPMGAAAA@$0BC@$0GMAHIJGF@@std@@@?$uniform_int@_K@std@@AEBA_KAEAV?$mersenne_twister_engine@I$0CA@$0CHA@$0BIN@$0BP@$0JJAILANP@$0L@$0PPPPPPPP@$06$0JNCMFGIA@$0P@$0OPMGAAAA@$0BC@$0GMAHIJGF@@1@_K1@Z
	??$_Fgetc@D@std@@YA_NAEADPEAU_iobuf@@@Z
	??$_Fill_vbool@V?$_Vb_iterator@U?$_Wrap_alloc@V?$allocator@I@std@@@std@@@std@@@std@@YAXV?$_Vb_iterator@U?$_Wrap_alloc@V?$allocator@I@std@@@std@@@0@V10@_N@Z
	??$_Fill_zero_memset@PEAI@std@@YAXPEAI_K@Z
	??$_Find@E@_Bitmap@std@@QEBA_NE@Z
	??$_Find@V?$basic_string@DU?$char_traits@D@std@@V?$allocator@D@2@@std@@@?$_Tree@V?$_Tmap_traits@V?$basic_string@DU?$char_traits@D@std@@V?$allocator@D@2@@std@@UTagAlias@Catch@@U?$less@V?$basic_string@DU?$char_traits@D@std@@V?$allocator@D@2@@std@@@2@V?$allocator@U?$pair@$$CBV?$basic_string@DU?$char_traits@D@std@@V?$allocator@D@2@@std@@UTagAlias@Catch@@@std@@@2@$0A@@std@@@std@@AEBAPEAU?$_Tree_node@U?$pair@$$CBV?$basic_string@DU?$char_traits@D@std@@V?$allocator@D@2@@std@@UTagAlias@Catch@@@std@@PEAX@1@AEBV?$basic_string@DU?$char_traits@D@std@@V?$allocator@D@2@@1@@Z
	??$_Find@V?$basic_string@DU?$char_traits@D@std@@V?$allocator@D@2@@std@@@?$_Tree@V?$_Tmap_traits@V?$basic_string@DU?$char_traits@D@std@@V?$allocator@D@2@@std@@V?$unique_ptr@VIReporterFactory@Catch@@@Detail@Catch@@UCaseInsensitiveLess@45@V?$allocator@U?$pair@$$CBV?$basic_string@DU?$char_traits@D@std@@V?$allocator@D@2@@std@@V?$unique_ptr@VIReporterFactory@Catch@@@Detail@Catch@@@std@@@2@$0A@@std@@@std@@AEBAPEAU?$_Tree_node@U?$pair@$$CBV?$basic_string@DU?$char_traits@D@std@@V?$allocator@D@2@@std@@V?$unique_ptr@VIReporterFactory@Catch@@@Detail@Catch@@@std@@PEAX@1@AEBV?$basic_string@DU?$char_traits@D@std@@V?$allocator@D@2@@1@@Z
	??$_Find@VStringRef@Catch@@@?$_Tree@V?$_Tmap_traits@VStringRef@Catch@@UTagInfo@2@UCaseInsensitiveLess@Detail@2@V?$allocator@U?$pair@$$CBVStringRef@Catch@@UTagInfo@2@@std@@@std@@$0A@@std@@@std@@AEBAPEAU?$_Tree_node@U?$pair@$$CBVStringRef@Catch@@UTagInfo@2@@std@@PEAX@1@AEBVStringRef@Catch@@@Z
	??$_Find_hint@PEBVTestCaseHandle@Catch@@@?$_Tree@V?$_Tset_traits@PEBVTestCaseHandle@Catch@@U?$less@PEBVTestCaseHandle@Catch@@@std@@V?$allocator@PEBVTestCaseHandle@Catch@@@4@$0A@@std@@@std@@IEBA?AU?$_Tree_find_hint_result@PEAU?$_Tree_node@PEBVTestCaseHandle@Catch@@PEAX@std@@@1@QEAU?$_Tree_node@PEBVTestCaseHandle@Catch@@PEAX@1@AEBQEBVTestCaseHandle@Catch@@@Z
	??$_Find_lower_bound@PEBVTestCaseHandle@Catch@@@?$_Tree@V?$_Tset_traits@PEBVTestCaseHandle@Catch@@U?$less@PEBVTestCaseHandle@Catch@@@std@@V?$allocator@PEBVTestCaseHandle@Catch@@@4@$0A@@std@@@std@@IEBA?AU?$_Tree_find_result@PEAU?$_Tree_node@PEBVTestCaseHandle@Catch@@PEAX@std@@@1@AEBQEBVTestCaseHandle@Catch@@@Z
	??$_Find_lower_bound@V?$basic_string@DU?$char_traits@D@std@@V?$allocator@D@2@@std@@@?$_Tree@V?$_Tmap_traits@V?$basic_string@DU?$char_traits@D@std@@V?$allocator@D@2@@std@@UTagAlias@Catch@@U?$less@V?$basic_string@DU?$char_traits@D@std@@V?$allocator@D@2@@std@@@2@V?$allocator@U?$pair@$$CBV?$basic_string@DU?$char_traits@D@std@@V?$allocator@D@2@@std@@UTagAlias@Catch@@@std@@@2@$0A@@std@@@std@@IEBA?AU?$_Tree_find_result@PEAU?$_Tree_node@U?$pair@$$CBV?$basic_string@DU?$char_traits@D@std@@V?$allocator@D@2@@std@@UTagAlias@Catch@@@std@@PEAX@std@@@1@AEBV?$basic_string@DU?$char_traits@D@std@@V?$allocator@D@2@@1@@Z
	??$_Find_lower_bound@V?$basic_string@DU?$char_traits@D@std@@V?$allocator@D@2@@std@@@?$_Tree@V?$_Tmap_traits@V?$basic_string@DU?$char_traits@D@std@@V?$allocator@D@2@@std@@V12@U?$less@V?$basic_string@DU?$char_traits@D@std@@V?$allocator@D@2@@std@@@2@V?$allocator@U?$pair@$$CBV?$basic_string@DU?$char_traits@D@std@@V?$allocator@D@2@@std@@V12@@std@@@2@$0A@@std@@@std@@IEBA?AU?$_Tree_find_result@PEAU?$_Tree_node@U?$pair@$$CBV?$basic_string@DU?$char_traits@D@std@@V?$allocator@D@2@@std@@V12@@std@@PEAX@std@@@1@AEBV?$basic_string@DU?$char_traits@D@std@@V?$allocator@D@2@@1@@Z
	??$_Find_lower_bound@V?$basic_string@DU?$char_traits@D@std@@V?$allocator@D@2@@std@@@?$_Tree@V?$_Tmap_traits@V?$basic_string@DU?$char_traits@D@std@@V?$allocator@D@2@@std@@V?$unique_ptr@VIReporterFactory@Catch@@@Detail@Catch@@UCaseInsensitiveLess@45@V?$allocator@U?$pair@$$CBV?$basic_string@DU?$char_traits@D@std@@V?$allocator@D@2@@std@@V?$unique_ptr@VIReporterFactory@Catch@@@Detail@Catch@@@std@@@2@$0A@@std@@@std@@IEBA?AU?$_Tree_find_result@PEAU?$_Tree_node@U?$pair@$$CBV?$basic_string@DU?$char_traits@D@std@@V?$allocator@D@2@@std@@V?$unique_ptr@VIReporterFactory@Catch@@@Detail@Catch@@@std@@PEAX@std@@@1@AEBV?$basic_string@DU?$char_traits@D@std@@V?$allocator@D@2@@1@@Z
	??$_Find_lower_bound@VStringRef@Catch@@@?$_Tree@V?$_Tmap_traits@VStringRef@Catch@@UTagInfo@2@UCaseInsensitiveLess@Detail@2@V?$allocator@U?$pair@$$CBVStringRef@Catch@@UTagInfo@2@@std@@@std@@$0A@@std@@@std@@IEBA?AU?$_Tree_find_result@PEAU?$_Tree_node@U?$pair@$$CBVStringRef@Catch@@UTagInfo@2@@std@@PEAX@std@@@1@AEBVStringRef@Catch@@@Z
	??$_Find_lower_bound@VStringRef@Catch@@@?$_Tree@V?$_Tmap_traits@VStringRef@Catch@@V?$vector@PEBU?$Node@UTestCaseStats@Catch@@USectionNode@CumulativeReporterBase@2@@CumulativeReporterBase@Catch@@V?$allocator@PEBU?$Node@UTestCaseStats@Catch@@USectionNode@CumulativeReporterBase@2@@CumulativeReporterBase@Catch@@@std@@@std@@U?$less@VStringRef@Catch@@@4@V?$allocator@U?$pair@$$CBVStringRef@Catch@@V?$vector@PEBU?$Node@UTestCaseStats@Catch@@USectionNode@CumulativeReporterBase@2@@CumulativeReporterBase@Catch@@V?$allocator@PEBU?$Node@UTestCaseStats@Catch@@USectionNode@CumulativeReporterBase@2@@CumulativeReporterBase@Catch@@@std@@@std@@@std@@@4@$0A@@std@@@std@@IEBA?AU?$_Tree_find_result@PEAU?$_Tree_node@U?$pair@$$CBVStringRef@Catch@@V?$vector@PEBU?$Node@UTestCaseStats@Catch@@USectionNode@CumulativeReporterBase@2@@CumulativeReporterBase@Catch@@V?$allocator@PEBU?$Node@UTestCaseStats@Catch@@USectionNode@CumulativeReporterBase@2@@CumulativeReporterBase@Catch@@@std@@@std@@@std@@PEAX@std@@@1@AEBVStringRef@Catch@@@Z
	??$_Find_lower_bound@VStringRef@Catch@@@?$_Tree@V?$_Tset_traits@VStringRef@Catch@@U?$less@VStringRef@Catch@@@std@@V?$allocator@VStringRef@Catch@@@4@$0A@@std@@@std@@IEBA?AU?$_Tree_find_result@PEAU?$_Tree_node@VStringRef@Catch@@PEAX@std@@@1@AEBVStringRef@Catch@@@Z
	??$_Find_unchecked@PEAUMessageInfo@Catch@@U12@@std@@YAPEAUMessageInfo@Catch@@PEAU12@QEAU12@AEBU12@@Z
	??$_Find_unchecked@PEBDD@std@@YAPEBDPEBDQEBDAEBD@Z
	??$_Find_unchecked@PEBDE@std@@YAPEBDPEBDQEBDAEBE@Z
	??$_Find_unchecked@PEBUTag@Catch@@U12@@std@@YAPEBUTag@Catch@@PEBU12@QEBU12@AEBU12@@Z
	??$_Find_unchecked@PEBVStringRef@Catch@@V12@@std@@YAPEBVStringRef@Catch@@PEBV12@QEBV12@AEBV12@@Z
	??$_Find_unchecked@V?$reverse_iterator@PEBD@std@@D@std@@YA?AV?$reverse_iterator@PEBD@0@V10@V10@AEBD@Z
	??$_Find_vectorized@$$CBDD@std@@YAPEBDQEBD0D@Z
	??$_Find_vectorized@$$CBDE@std@@YAPEBDQEBD0E@Z
	??$_Fputc@D@std@@YA_NDPEAU_iobuf@@@Z
	??$_Freenode0@V?$allocator@U?$_Tree_node@PEBUTestCaseInfo@Catch@@PEAX@std@@@std@@@?$_Tree_node@PEBUTestCaseInfo@Catch@@PEAX@std@@SAXAEAV?$allocator@U?$_Tree_node@PEBUTestCaseInfo@Catch@@PEAX@std@@@1@PEAU01@@Z
	??$_Freenode0@V?$allocator@U?$_Tree_node@PEBVTestCaseHandle@Catch@@PEAX@std@@@std@@@?$_Tree_node@PEBVTestCaseHandle@Catch@@PEAX@std@@SAXAEAV?$allocator@U?$_Tree_node@PEBVTestCaseHandle@Catch@@PEAX@std@@@1@PEAU01@@Z
	??$_Freenode0@V?$allocator@U?$_Tree_node@U?$pair@$$CBV?$basic_string@DU?$char_traits@D@std@@V?$allocator@D@2@@std@@UTagAlias@Catch@@@std@@PEAX@std@@@std@@@?$_Tree_node@U?$pair@$$CBV?$basic_string@DU?$char_traits@D@std@@V?$allocator@D@2@@std@@UTagAlias@Catch@@@std@@PEAX@std@@SAXAEAV?$allocator@U?$_Tree_node@U?$pair@$$CBV?$basic_string@DU?$char_traits@D@std@@V?$allocator@D@2@@std@@UTagAlias@Catch@@@std@@PEAX@std@@@1@PEAU01@@Z
	??$_Freenode0@V?$allocator@U?$_Tree_node@U?$pair@$$CBV?$basic_string@DU?$char_traits@D@std@@V?$allocator@D@2@@std@@V12@@std@@PEAX@std@@@std@@@?$_Tree_node@U?$pair@$$CBV?$basic_string@DU?$char_traits@D@std@@V?$allocator@D@2@@std@@V12@@std@@PEAX@std@@SAXAEAV?$allocator@U?$_Tree_node@U?$pair@$$CBV?$basic_string@DU?$char_traits@D@std@@V?$allocator@D@2@@std@@V12@@std@@PEAX@std@@@1@PEAU01@@Z
	??$_Freenode0@V?$allocator@U?$_Tree_node@U?$pair@$$CBV?$basic_string@DU?$char_traits@D@std@@V?$allocator@D@2@@std@@V?$unique_ptr@VIReporterFactory@Catch@@@Detail@Catch@@@std@@PEAX@std@@@std@@@?$_Tree_node@U?$pair@$$CBV?$basic_string@DU?$char_traits@D@std@@V?$allocator@D@2@@std@@V?$unique_ptr@VIReporterFactory@Catch@@@Detail@Catch@@@std@@PEAX@std@@SAXAEAV?$allocator@U?$_Tree_node@U?$pair@$$CBV?$basic_string@DU?$char_traits@D@std@@V?$allocator@D@2@@std@@V?$unique_ptr@VIReporterFactory@Catch@@@Detail@Catch@@@std@@PEAX@std@@@1@PEAU01@@Z
	??$_Freenode0@V?$allocator@U?$_Tree_node@U?$pair@$$CBVStringRef@Catch@@UTagInfo@2@@std@@PEAX@std@@@std@@@?$_Tree_node@U?$pair@$$CBVStringRef@Catch@@UTagInfo@2@@std@@PEAX@std@@SAXAEAV?$allocator@U?$_Tree_node@U?$pair@$$CBVStringRef@Catch@@UTagInfo@2@@std@@PEAX@std@@@1@PEAU01@@Z
	??$_Freenode0@V?$allocator@U?$_Tree_node@U?$pair@$$CBVStringRef@Catch@@V?$vector@PEBU?$Node@UTestCaseStats@Catch@@USectionNode@CumulativeReporterBase@2@@CumulativeReporterBase@Catch@@V?$allocator@PEBU?$Node@UTestCaseStats@Catch@@USectionNode@CumulativeReporterBase@2@@CumulativeReporterBase@Catch@@@std@@@std@@@std@@PEAX@std@@@std@@@?$_Tree_node@U?$pair@$$CBVStringRef@Catch@@V?$vector@PEBU?$Node@UTestCaseStats@Catch@@USectionNode@CumulativeReporterBase@2@@CumulativeReporterBase@Catch@@V?$allocator@PEBU?$Node@UTestCaseStats@Catch@@USectionNode@CumulativeReporterBase@2@@CumulativeReporterBase@Catch@@@std@@@std@@@std@@PEAX@std@@SAXAEAV?$allocator@U?$_Tree_node@U?$pair@$$CBVStringRef@Catch@@V?$vector@PEBU?$Node@UTestCaseStats@Catch@@USectionNode@CumulativeReporterBase@2@@CumulativeReporterBase@Catch@@V?$allocator@PEBU?$Node@UTestCaseStats@Catch@@USectionNode@CumulativeReporterBase@2@@CumulativeReporterBase@Catch@@@std@@@std@@@std@@PEAX@std@@@1@PEAU01@@Z
	??$_Freenode0@V?$allocator@U?$_Tree_node@VStringRef@Catch@@PEAX@std@@@std@@@?$_Tree_node@VStringRef@Catch@@PEAX@std@@SAXAEAV?$allocator@U?$_Tree_node@VStringRef@Catch@@PEAX@std@@@1@PEAU01@@Z
	??$_Freenode@V?$allocator@U?$_Tree_node@PEBUTestCaseInfo@Catch@@PEAX@std@@@std@@@?$_Tree_node@PEBUTestCaseInfo@Catch@@PEAX@std@@SAXAEAV?$allocator@U?$_Tree_node@PEBUTestCaseInfo@Catch@@PEAX@std@@@1@PEAU01@@Z
	??$_Freenode@V?$allocator@U?$_Tree_node@PEBVTestCaseHandle@Catch@@PEAX@std@@@std@@@?$_Tree_node@PEBVTestCaseHandle@Catch@@PEAX@std@@SAXAEAV?$allocator@U?$_Tree_node@PEBVTestCaseHandle@Catch@@PEAX@std@@@1@PEAU01@@Z
	??$_Freenode@V?$allocator@U?$_Tree_node@U?$pair@$$CBV?$basic_string@DU?$char_traits@D@std@@V?$allocator@D@2@@std@@UTagAlias@Catch@@@std@@PEAX@std@@@std@@@?$_Tree_node@U?$pair@$$CBV?$basic_string@DU?$char_traits@D@std@@V?$allocator@D@2@@std@@UTagAlias@Catch@@@std@@PEAX@std@@SAXAEAV?$allocator@U?$_Tree_node@U?$pair@$$CBV?$basic_string@DU?$char_traits@D@std@@V?$allocator@D@2@@std@@UTagAlias@Catch@@@std@@PEAX@std@@@1@PEAU01@@Z
	??$_Freenode@V?$allocator@U?$_Tree_node@U?$pair@$$CBV?$basic_string@DU?$char_traits@D@std@@V?$allocator@D@2@@std@@V12@@std@@PEAX@std@@@std@@@?$_Tree_node@U?$pair@$$CBV?$basic_string@DU?$char_traits@D@std@@V?$allocator@D@2@@std@@V12@@std@@PEAX@std@@SAXAEAV?$allocator@U?$_Tree_node@U?$pair@$$CBV?$basic_string@DU?$char_traits@D@std@@V?$allocator@D@2@@std@@V12@@std@@PEAX@std@@@1@PEAU01@@Z
	??$_Freenode@V?$allocator@U?$_Tree_node@U?$pair@$$CBV?$basic_string@DU?$char_traits@D@std@@V?$allocator@D@2@@std@@V?$unique_ptr@VIReporterFactory@Catch@@@Detail@Catch@@@std@@PEAX@std@@@std@@@?$_Tree_node@U?$pair@$$CBV?$basic_string@DU?$char_traits@D@std@@V?$allocator@D@2@@std@@V?$unique_ptr@VIReporterFactory@Catch@@@Detail@Catch@@@std@@PEAX@std@@SAXAEAV?$allocator@U?$_Tree_node@U?$pair@$$CBV?$basic_string@DU?$char_traits@D@std@@V?$allocator@D@2@@std@@V?$unique_ptr@VIReporterFactory@Catch@@@Detail@Catch@@@std@@PEAX@std@@@1@PEAU01@@Z
	??$_Freenode@V?$allocator@U?$_Tree_node@U?$pair@$$CBVStringRef@Catch@@UTagInfo@2@@std@@PEAX@std@@@std@@@?$_Tree_node@U?$pair@$$CBVStringRef@Catch@@UTagInfo@2@@std@@PEAX@std@@SAXAEAV?$allocator@U?$_Tree_node@U?$pair@$$CBVStringRef@Catch@@UTagInfo@2@@std@@PEAX@std@@@1@PEAU01@@Z
	??$_Freenode@V?$allocator@U?$_Tree_node@U?$pair@$$CBVStringRef@Catch@@V?$vector@PEBU?$Node@UTestCaseStats@Catch@@USectionNode@CumulativeReporterBase@2@@CumulativeReporterBase@Catch@@V?$allocator@PEBU?$Node@UTestCaseStats@Catch@@USectionNode@CumulativeReporterBase@2@@CumulativeReporterBase@Catch@@@std@@@std@@@std@@PEAX@std@@@std@@@?$_Tree_node@U?$pair@$$CBVStringRef@Catch@@V?$vector@PEBU?$Node@UTestCaseStats@Catch@@USectionNode@CumulativeReporterBase@2@@CumulativeReporterBase@Catch@@V?$allocator@PEBU?$Node@UTestCaseStats@Catch@@USectionNode@CumulativeReporterBase@2@@CumulativeReporterBase@Catch@@@std@@@std@@@std@@PEAX@std@@SAXAEAV?$allocator@U?$_Tree_node@U?$pair@$$CBVStringRef@Catch@@V?$vector@PEBU?$Node@UTestCaseStats@Catch@@USectionNode@CumulativeReporterBase@2@@CumulativeReporterBase@Catch@@V?$allocator@PEBU?$Node@UTestCaseStats@Catch@@USectionNode@CumulativeReporterBase@2@@CumulativeReporterBase@Catch@@@std@@@std@@@std@@PEAX@std@@@1@PEAU01@@Z
	??$_Freenode@V?$allocator@U?$_Tree_node@VStringRef@Catch@@PEAX@std@@@std@@@?$_Tree_node@VStringRef@Catch@@PEAX@std@@SAXAEAV?$allocator@U?$_Tree_node@VStringRef@Catch@@PEAX@std@@@1@PEAU01@@Z
	??$_Get@D@_Cl_names@std@@QEBAPEBDXZ
	??$_Get_size_of_n@$00@std@@YA_K_K@Z
	??$_Get_size_of_n@$01@std@@YA_K_K@Z
	??$_Get_size_of_n@$03@std@@YA_K_K@Z
	??$_Get_size_of_n@$07@std@@YA_K_K@Z
	??$_Get_size_of_n@$0BA@@std@@YA_K_K@Z
	??$_Get_size_of_n@$0BI@@std@@YA_K_K@Z
	??$_Get_size_of_n@$0BOA@@std@@YA_K_K@Z
	??$_Get_size_of_n@$0CA@@std@@YA_K_K@Z
	??$_Get_size_of_n@$0CI@@std@@YA_K_K@Z
	??$_Get_size_of_n@$0DA@@std@@YA_K_K@Z
	??$_Get_size_of_n@$0DI@@std@@YA_K_K@Z
	??$_Get_size_of_n@$0EA@@std@@YA_K_K@Z
	??$_Get_size_of_n@$0EI@@std@@YA_K_K@Z
	??$_Get_size_of_n@$0FA@@std@@YA_K_K@Z
	??$_Get_size_of_n@$0FI@@std@@YA_K_K@Z
	??$_Get_size_of_n@$0GA@@std@@YA_K_K@Z
	??$_Get_size_of_n@$0HA@@std@@YA_K_K@Z
	??$_Get_size_of_n@$0IA@@std@@YA_K_K@Z
	??$_Get_size_of_n@$0JA@@std@@YA_K_K@Z
	??$_Get_unwrapped@AEAPEAD@std@@YA?A_TAEAPEAD@Z
	??$_Get_unwrapped@AEAPEBD@std@@YA?A_TAEAPEBD@Z
	??$_Get_unwrapped@AEAPEBQEBD@std@@YA?A_TAEAPEBQEBD@Z
	??$_Get_unwrapped@AEAPEBV?$basic_string@DU?$char_traits@D@std@@V?$allocator@D@2@@std@@@std@@YA?A_TAEAPEBV?$basic_string@DU?$char_traits@D@std@@V?$allocator@D@2@@0@@Z
	??$_Get_unwrapped@AEAV?$_String_iterator@V?$_String_val@U?$_Simple_types@D@std@@@std@@@std@@@std@@YA?A_TAEAV?$_String_iterator@V?$_String_val@U?$_Simple_types@D@std@@@std@@@0@@Z
	??$_Get_unwrapped@AEAV?$_Tree_const_iterator@V?$_Tree_val@U?$_Tree_simple_types@PEBVTestCaseHandle@Catch@@@std@@@std@@@std@@@std@@YA?A_TAEAV?$_Tree_const_iterator@V?$_Tree_val@U?$_Tree_simple_types@PEBVTestCaseHandle@Catch@@@std@@@std@@@0@@Z
	??$_Get_unwrapped@AEAV?$_Vb_iterator@U?$_Wrap_alloc@V?$allocator@I@std@@@std@@@std@@@std@@YA?A_TAEAV?$_Vb_iterator@U?$_Wrap_alloc@V?$allocator@I@std@@@std@@@0@@Z
	??$_Get_unwrapped@AEAV?$_Vector_const_iterator@V?$_Vector_val@U?$_Simple_types@N@std@@@std@@@std@@@std@@YA?A_TAEAV?$_Vector_const_iterator@V?$_Vector_val@U?$_Simple_types@N@std@@@std@@@0@@Z
	??$_Get_unwrapped@AEAV?$_Vector_const_iterator@V?$_Vector_val@U?$_Simple_types@PEBVTestCaseHandle@Catch@@@std@@@std@@@std@@@std@@YA?A_TAEAV?$_Vector_const_iterator@V?$_Vector_val@U?$_Simple_types@PEBVTestCaseHandle@Catch@@@std@@@std@@@0@@Z
	??$_Get_unwrapped@AEAV?$_Vector_const_iterator@V?$_Vector_val@U?$_Simple_types@UListenerDescription@Catch@@@std@@@std@@@std@@@std@@YA?A_TAEAV?$_Vector_const_iterator@V?$_Vector_val@U?$_Simple_types@UListenerDescription@Catch@@@std@@@std@@@0@@Z
	??$_Get_unwrapped@AEAV?$_Vector_const_iterator@V?$_Vector_val@U?$_Simple_types@UReporterDescription@Catch@@@std@@@std@@@std@@@std@@YA?A_TAEAV?$_Vector_const_iterator@V?$_Vector_val@U?$_Simple_types@UReporterDescription@Catch@@@std@@@std@@@0@@Z
	??$_Get_unwrapped@AEAV?$_Vector_const_iterator@V?$_Vector_val@U?$_Simple_types@UTag@Catch@@@std@@@std@@@std@@@std@@YA?A_TAEAV?$_Vector_const_iterator@V?$_Vector_val@U?$_Simple_types@UTag@Catch@@@std@@@std@@@0@@Z
	??$_Get_unwrapped@AEAV?$_Vector_const_iterator@V?$_Vector_val@U?$_Simple_types@V?$basic_string@DU?$char_traits@D@std@@V?$allocator@D@2@@std@@@std@@@std@@@std@@@std@@YA?A_TAEAV?$_Vector_const_iterator@V?$_Vector_val@U?$_Simple_types@V?$basic_string@DU?$char_traits@D@std@@V?$allocator@D@2@@std@@@std@@@std@@@0@@Z
	??$_Get_unwrapped@AEAV?$_Vector_const_iterator@V?$_Vector_val@U?$_Simple_types@VArg@Clara@Catch@@@std@@@std@@@std@@@std@@YA?A_TAEAV?$_Vector_const_iterator@V?$_Vector_val@U?$_Simple_types@VArg@Clara@Catch@@@std@@@std@@@0@@Z
	??$_Get_unwrapped@AEAV?$_Vector_const_iterator@V?$_Vector_val@U?$_Simple_types@VOpt@Clara@Catch@@@std@@@std@@@std@@@std@@YA?A_TAEAV?$_Vector_const_iterator@V?$_Vector_val@U?$_Simple_types@VOpt@Clara@Catch@@@std@@@std@@@0@@Z
	??$_Get_unwrapped@AEAV?$_Vector_const_iterator@V?$_Vector_val@U?$_Simple_types@VStringRef@Catch@@@std@@@std@@@std@@@std@@YA?A_TAEAV?$_Vector_const_iterator@V?$_Vector_val@U?$_Simple_types@VStringRef@Catch@@@std@@@std@@@0@@Z
	??$_Get_unwrapped@AEAV?$_Vector_const_iterator@V?$_Vector_val@U?$_Simple_types@VTestCaseHandle@Catch@@@std@@@std@@@std@@@std@@YA?A_TAEAV?$_Vector_const_iterator@V?$_Vector_val@U?$_Simple_types@VTestCaseHandle@Catch@@@std@@@std@@@0@@Z
	??$_Get_unwrapped@AEAV?$_Vector_iterator@V?$_Vector_val@U?$_Simple_types@N@std@@@std@@@std@@@std@@YA?A_TAEAV?$_Vector_iterator@V?$_Vector_val@U?$_Simple_types@N@std@@@std@@@0@@Z
	??$_Get_unwrapped@AEAV?$_Vector_iterator@V?$_Vector_val@U?$_Simple_types@UHelpColumns@Detail@Clara@Catch@@@std@@@std@@@std@@@std@@YA?A_TAEAV?$_Vector_iterator@V?$_Vector_val@U?$_Simple_types@UHelpColumns@Detail@Clara@Catch@@@std@@@std@@@0@@Z
	??$_Get_unwrapped@AEAV?$_Vector_iterator@V?$_Vector_val@U?$_Simple_types@UMessageInfo@Catch@@@std@@@std@@@std@@@std@@YA?A_TAEAV?$_Vector_iterator@V?$_Vector_val@U?$_Simple_types@UMessageInfo@Catch@@@std@@@std@@@0@@Z
	??$_Get_unwrapped@AEAV?$_Vector_iterator@V?$_Vector_val@U?$_Simple_types@UTag@Catch@@@std@@@std@@@std@@@std@@YA?A_TAEAV?$_Vector_iterator@V?$_Vector_val@U?$_Simple_types@UTag@Catch@@@std@@@std@@@0@@Z
	??$_Get_unwrapped@AEAV?$_Vector_iterator@V?$_Vector_val@U?$_Simple_types@V?$unique_ptr@USectionNode@CumulativeReporterBase@Catch@@@Detail@Catch@@@std@@@std@@@std@@@std@@YA?A_TAEAV?$_Vector_iterator@V?$_Vector_val@U?$_Simple_types@V?$unique_ptr@USectionNode@CumulativeReporterBase@Catch@@@Detail@Catch@@@std@@@std@@@0@@Z
	??$_Get_unwrapped@AEAV?$_Vector_iterator@V?$_Vector_val@U?$_Simple_types@V?$unique_ptr@VITracker@TestCaseTracking@Catch@@@Detail@Catch@@@std@@@std@@@std@@@std@@YA?A_TAEAV?$_Vector_iterator@V?$_Vector_val@U?$_Simple_types@V?$unique_ptr@VITracker@TestCaseTracking@Catch@@@Detail@Catch@@@std@@@std@@@0@@Z
	??$_Get_unwrapped@AEAV?$reverse_iterator@PEBD@std@@@std@@YA?A_TAEAV?$reverse_iterator@PEBD@0@@Z
	??$_Get_unwrapped@AEBQEAI@std@@YA?A_TAEBQEAI@Z
	??$_Get_unwrapped@AEBQEAN@std@@YA?A_TAEBQEAN@Z
	??$_Get_unwrapped@AEBQEAPEAD@std@@YA?A_TAEBQEAPEAD@Z
	??$_Get_unwrapped@AEBQEAPEAUISingleton@Catch@@@std@@YA?A_TAEBQEAPEAUISingleton@Catch@@@Z
	??$_Get_unwrapped@AEBQEAPEAUSectionNode@CumulativeReporterBase@Catch@@@std@@YA?A_TAEBQEAPEAUSectionNode@CumulativeReporterBase@Catch@@@Z
	??$_Get_unwrapped@AEBQEAPEAUTestCaseInfo@Catch@@@std@@YA?A_TAEBQEAPEAUTestCaseInfo@Catch@@@Z
	??$_Get_unwrapped@AEBQEAPEAVITracker@TestCaseTracking@Catch@@@std@@YA?A_TAEBQEAPEAVITracker@TestCaseTracking@Catch@@@Z
	??$_Get_unwrapped@AEBQEAPEAX@std@@YA?A_TAEBQEAPEAX@Z
	??$_Get_unwrapped@AEBQEAPEBU?$Node@UTestCaseStats@Catch@@USectionNode@CumulativeReporterBase@2@@CumulativeReporterBase@Catch@@@std@@YA?A_TAEBQEAPEBU?$Node@UTestCaseStats@Catch@@USectionNode@CumulativeReporterBase@2@@CumulativeReporterBase@Catch@@@Z
	??$_Get_unwrapped@AEBQEAPEBVTestCaseHandle@Catch@@@std@@YA?A_TAEBQEAPEBVTestCaseHandle@Catch@@@Z
	??$_Get_unwrapped@AEBQEAU?$pair@HVStringRef@Catch@@@std@@@std@@YA?A_TAEBQEAU?$pair@HVStringRef@Catch@@@0@@Z
	??$_Get_unwrapped@AEBQEAU?$pair@_KVTestCaseHandle@Catch@@@std@@@std@@YA?A_TAEBQEAU?$pair@_KVTestCaseHandle@Catch@@@0@@Z
	??$_Get_unwrapped@AEBQEAUFilter@TestSpec@Catch@@@std@@YA?A_TAEBQEAUFilter@TestSpec@Catch@@@Z
	??$_Get_unwrapped@AEBQEAUFilterMatch@TestSpec@Catch@@@std@@YA?A_TAEBQEAUFilterMatch@TestSpec@Catch@@@Z
	??$_Get_unwrapped@AEBQEAUHelpColumns@Detail@Clara@Catch@@@std@@YA?A_TAEBQEAUHelpColumns@Detail@Clara@Catch@@@Z
	??$_Get_unwrapped@AEBQEAUListenerDescription@Catch@@@std@@YA?A_TAEBQEAUListenerDescription@Catch@@@Z
	??$_Get_unwrapped@AEBQEAUMessageInfo@Catch@@@std@@YA?A_TAEBQEAUMessageInfo@Catch@@@Z
	??$_Get_unwrapped@AEBQEAUProcessedReporterSpec@Catch@@@std@@YA?A_TAEBQEAUProcessedReporterSpec@Catch@@@Z
	??$_Get_unwrapped@AEBQEAUReporterDescription@Catch@@@std@@YA?A_TAEBQEAUReporterDescription@Catch@@@Z
	??$_Get_unwrapped@AEBQEAUSectionEndInfo@Catch@@@std@@YA?A_TAEBQEAUSectionEndInfo@Catch@@@Z
	??$_Get_unwrapped@AEBQEAUSectionInfo@Catch@@@std@@YA?A_TAEBQEAUSectionInfo@Catch@@@Z
	??$_Get_unwrapped@AEBQEAUTag@Catch@@@std@@YA?A_TAEBQEAUTag@Catch@@@Z
	??$_Get_unwrapped@AEBQEAUTagInfo@Catch@@@std@@YA?A_TAEBQEAUTagInfo@Catch@@@Z
	??$_Get_unwrapped@AEBQEAUToken@Detail@Clara@Catch@@@std@@YA?A_TAEBQEAUToken@Detail@Clara@Catch@@@Z
	??$_Get_unwrapped@AEBQEAU_Grp_t@?$_Tgt_state_t@PEBD@std@@@std@@YA?A_TAEBQEAU_Grp_t@?$_Tgt_state_t@PEBD@0@@Z
	??$_Get_unwrapped@AEBQEAU_Loop_vals_t@std@@@std@@YA?A_TAEBQEAU_Loop_vals_t@0@@Z
	??$_Get_unwrapped@AEBQEAV?$basic_string@DU?$char_traits@D@std@@V?$allocator@D@2@@std@@@std@@YA?A_TAEBQEAV?$basic_string@DU?$char_traits@D@std@@V?$allocator@D@2@@0@@Z
	??$_Get_unwrapped@AEBQEAV?$sub_match@PEBD@std@@@std@@YA?A_TAEBQEAV?$sub_match@PEBD@0@@Z
	??$_Get_unwrapped@AEBQEAV?$unique_ptr@$$CBVIExceptionTranslator@Catch@@@Detail@Catch@@@std@@YA?A_TAEBQEAV?$unique_ptr@$$CBVIExceptionTranslator@Catch@@@Detail@Catch@@@Z
	??$_Get_unwrapped@AEBQEAV?$unique_ptr@U?$Node@UTestCaseStats@Catch@@USectionNode@CumulativeReporterBase@2@@CumulativeReporterBase@Catch@@@Detail@Catch@@@std@@YA?A_TAEBQEAV?$unique_ptr@U?$Node@UTestCaseStats@Catch@@USectionNode@CumulativeReporterBase@2@@CumulativeReporterBase@Catch@@@Detail@Catch@@@Z
	??$_Get_unwrapped@AEBQEAV?$unique_ptr@UEnumInfo@Detail@Catch@@@Detail@Catch@@@std@@YA?A_TAEBQEAV?$unique_ptr@UEnumInfo@Detail@Catch@@@Detail@Catch@@@Z
	??$_Get_unwrapped@AEBQEAV?$unique_ptr@USectionNode@CumulativeReporterBase@Catch@@@Detail@Catch@@@std@@YA?A_TAEBQEAV?$unique_ptr@USectionNode@CumulativeReporterBase@Catch@@@Detail@Catch@@@Z
	??$_Get_unwrapped@AEBQEAV?$unique_ptr@UTestCaseInfo@Catch@@@Detail@Catch@@@std@@YA?A_TAEBQEAV?$unique_ptr@UTestCaseInfo@Catch@@@Detail@Catch@@@Z
	??$_Get_unwrapped@AEBQEAV?$unique_ptr@V?$basic_ostringstream@DU?$char_traits@D@std@@V?$allocator@D@2@@std@@@Detail@Catch@@@std@@YA?A_TAEBQEAV?$unique_ptr@V?$basic_ostringstream@DU?$char_traits@D@std@@V?$allocator@D@2@@std@@@Detail@Catch@@@Z
	??$_Get_unwrapped@AEBQEAV?$unique_ptr@VEventListenerFactory@Catch@@@Detail@Catch@@@std@@YA?A_TAEBQEAV?$unique_ptr@VEventListenerFactory@Catch@@@Detail@Catch@@@Z
	??$_Get_unwrapped@AEBQEAV?$unique_ptr@VIEventListener@Catch@@@Detail@Catch@@@std@@YA?A_TAEBQEAV?$unique_ptr@VIEventListener@Catch@@@Detail@Catch@@@Z
	??$_Get_unwrapped@AEBQEAV?$unique_ptr@VITestInvoker@Catch@@@Detail@Catch@@@std@@YA?A_TAEBQEAV?$unique_ptr@VITestInvoker@Catch@@@Detail@Catch@@@Z
	??$_Get_unwrapped@AEBQEAV?$unique_ptr@VITracker@TestCaseTracking@Catch@@@Detail@Catch@@@std@@YA?A_TAEBQEAV?$unique_ptr@VITracker@TestCaseTracking@Catch@@@Detail@Catch@@@Z
	??$_Get_unwrapped@AEBQEAV?$unique_ptr@VPattern@TestSpec@Catch@@@Detail@Catch@@@std@@YA?A_TAEBQEAV?$unique_ptr@VPattern@TestSpec@Catch@@@Detail@Catch@@@Z
	??$_Get_unwrapped@AEBQEAVArg@Clara@Catch@@@std@@YA?A_TAEBQEAVArg@Clara@Catch@@@Z
	??$_Get_unwrapped@AEBQEAVAssertionOrBenchmarkResult@Detail@Catch@@@std@@YA?A_TAEBQEAVAssertionOrBenchmarkResult@Detail@Catch@@@Z
	??$_Get_unwrapped@AEBQEAVColumn@TextFlow@Catch@@@std@@YA?A_TAEBQEAVColumn@TextFlow@Catch@@@Z
	??$_Get_unwrapped@AEBQEAVOpt@Clara@Catch@@@std@@YA?A_TAEBQEAVOpt@Clara@Catch@@@Z
	??$_Get_unwrapped@AEBQEAVReporterSpec@Catch@@@std@@YA?A_TAEBQEAVReporterSpec@Catch@@@Z
	??$_Get_unwrapped@AEBQEAVScopedMessage@Catch@@@std@@YA?A_TAEBQEAVScopedMessage@Catch@@@Z
	??$_Get_unwrapped@AEBQEAVStringRef@Catch@@@std@@YA?A_TAEBQEAVStringRef@Catch@@@Z
	??$_Get_unwrapped@AEBQEAVTestCaseHandle@Catch@@@std@@YA?A_TAEBQEAVTestCaseHandle@Catch@@@Z
	??$_Get_unwrapped@AEBQEAVconst_iterator@Column@TextFlow@Catch@@@std@@YA?A_TAEBQEAVconst_iterator@Column@TextFlow@Catch@@@Z
	??$_Get_unwrapped@AEBQEAVexception_ptr@std@@@std@@YA?A_TAEBQEAVexception_ptr@0@@Z
	??$_Get_unwrapped@AEBQEA_K@std@@YA?A_TAEBQEA_K@Z
	??$_Get_unwrapped@AEBQEBD@std@@YA?A_TAEBQEBD@Z
	??$_Get_unwrapped@AEBQEBUTag@Catch@@@std@@YA?A_TAEBQEBUTag@Catch@@@Z
	??$_Get_unwrapped@AEBQEBVconst_iterator@Column@TextFlow@Catch@@@std@@YA?A_TAEBQEBVconst_iterator@Column@TextFlow@Catch@@@Z
	??$_Get_unwrapped@AEBV?$_String_const_iterator@V?$_String_val@U?$_Simple_types@D@std@@@std@@@std@@@std@@YA?A_TAEBV?$_String_const_iterator@V?$_String_val@U?$_Simple_types@D@std@@@std@@@0@@Z
	??$_Get_unwrapped@AEBV?$_String_iterator@V?$_String_val@U?$_Simple_types@D@std@@@std@@@std@@@std@@YA?A_TAEBV?$_String_iterator@V?$_String_val@U?$_Simple_types@D@std@@@std@@@0@@Z
	??$_Get_unwrapped@AEBV?$_Tree_unchecked_const_iterator@V?$_Tree_val@U?$_Tree_simple_types@U?$pair@$$CBV?$basic_string@DU?$char_traits@D@std@@V?$allocator@D@2@@std@@V12@@std@@@std@@@std@@U_Iterator_base0@2@@std@@@std@@YA?A_TAEBV?$_Tree_unchecked_const_iterator@V?$_Tree_val@U?$_Tree_simple_types@U?$pair@$$CBV?$basic_string@DU?$char_traits@D@std@@V?$allocator@D@2@@std@@V12@@std@@@std@@@std@@U_Iterator_base0@2@@0@@Z
	??$_Get_unwrapped@AEBV?$_Vector_const_iterator@V?$_Vector_val@U?$_Simple_types@N@std@@@std@@@std@@@std@@YA?A_TAEBV?$_Vector_const_iterator@V?$_Vector_val@U?$_Simple_types@N@std@@@std@@@0@@Z
	??$_Get_unwrapped@AEBV?$_Vector_const_iterator@V?$_Vector_val@U?$_Simple_types@UFilter@TestSpec@Catch@@@std@@@std@@@std@@@std@@YA?A_TAEBV?$_Vector_const_iterator@V?$_Vector_val@U?$_Simple_types@UFilter@TestSpec@Catch@@@std@@@std@@@0@@Z
	??$_Get_unwrapped@AEBV?$_Vector_const_iterator@V?$_Vector_val@U?$_Simple_types@UTag@Catch@@@std@@@std@@@std@@@std@@YA?A_TAEBV?$_Vector_const_iterator@V?$_Vector_val@U?$_Simple_types@UTag@Catch@@@std@@@std@@@0@@Z
	??$_Get_unwrapped@AEBV?$_Vector_const_iterator@V?$_Vector_val@U?$_Simple_types@VAssertionOrBenchmarkResult@Detail@Catch@@@std@@@std@@@std@@@std@@YA?A_TAEBV?$_Vector_const_iterator@V?$_Vector_val@U?$_Simple_types@VAssertionOrBenchmarkResult@Detail@Catch@@@std@@@std@@@0@@Z
	??$_Get_unwrapped@AEBV?$_Vector_const_iterator@V?$_Vector_val@U?$_Simple_types@VStringRef@Catch@@@std@@@std@@@std@@@std@@YA?A_TAEBV?$_Vector_const_iterator@V?$_Vector_val@U?$_Simple_types@VStringRef@Catch@@@std@@@std@@@0@@Z
	??$_Get_unwrapped@AEBV?$_Vector_iterator@V?$_Vector_val@U?$_Simple_types@N@std@@@std@@@std@@@std@@YA?A_TAEBV?$_Vector_iterator@V?$_Vector_val@U?$_Simple_types@N@std@@@std@@@0@@Z
	??$_Get_unwrapped@AEBV?$_Vector_iterator@V?$_Vector_val@U?$_Simple_types@U?$pair@_KVTestCaseHandle@Catch@@@std@@@std@@@std@@@std@@@std@@YA?A_TAEBV?$_Vector_iterator@V?$_Vector_val@U?$_Simple_types@U?$pair@_KVTestCaseHandle@Catch@@@std@@@std@@@std@@@0@@Z
	??$_Get_unwrapped@AEBV?$_Vector_iterator@V?$_Vector_val@U?$_Simple_types@UMessageInfo@Catch@@@std@@@std@@@std@@@std@@YA?A_TAEBV?$_Vector_iterator@V?$_Vector_val@U?$_Simple_types@UMessageInfo@Catch@@@std@@@std@@@0@@Z
	??$_Get_unwrapped@AEBV?$_Vector_iterator@V?$_Vector_val@U?$_Simple_types@UTag@Catch@@@std@@@std@@@std@@@std@@YA?A_TAEBV?$_Vector_iterator@V?$_Vector_val@U?$_Simple_types@UTag@Catch@@@std@@@std@@@0@@Z
	??$_Get_unwrapped@AEBV?$_Vector_iterator@V?$_Vector_val@U?$_Simple_types@V?$unique_ptr@USectionNode@CumulativeReporterBase@Catch@@@Detail@Catch@@@std@@@std@@@std@@@std@@YA?A_TAEBV?$_Vector_iterator@V?$_Vector_val@U?$_Simple_types@V?$unique_ptr@USectionNode@CumulativeReporterBase@Catch@@@Detail@Catch@@@std@@@std@@@0@@Z
	??$_Get_unwrapped@AEBV?$_Vector_iterator@V?$_Vector_val@U?$_Simple_types@V?$unique_ptr@VITracker@TestCaseTracking@Catch@@@Detail@Catch@@@std@@@std@@@std@@@std@@YA?A_TAEBV?$_Vector_iterator@V?$_Vector_val@U?$_Simple_types@V?$unique_ptr@VITracker@TestCaseTracking@Catch@@@Detail@Catch@@@std@@@std@@@0@@Z
	??$_Get_unwrapped@AEBV?$_Vector_iterator@V?$_Vector_val@U?$_Simple_types@VTestCaseHandle@Catch@@@std@@@std@@@std@@@std@@YA?A_TAEBV?$_Vector_iterator@V?$_Vector_val@U?$_Simple_types@VTestCaseHandle@Catch@@@std@@@std@@@0@@Z
	??$_Get_unwrapped@AEBV?$reverse_iterator@PEBD@std@@@std@@YA?A_TAEBV?$reverse_iterator@PEBD@0@@Z
	??$_Get_unwrapped@AEBV?$reverse_iterator@V?$_String_const_iterator@V?$_String_val@U?$_Simple_types@D@std@@@std@@@std@@@std@@@std@@YA?A_TAEBV?$reverse_iterator@V?$_String_const_iterator@V?$_String_val@U?$_Simple_types@D@std@@@std@@@std@@@0@@Z
	??$_Get_unwrapped@PEAD@std@@YA?A_T$$QEAPEAD@Z
	??$_Get_unwrapped@PEAI@std@@YA?A_T$$QEAPEAI@Z
	??$_Get_unwrapped@PEAPEAX@std@@YA?A_T$$QEAPEAPEAX@Z
	??$_Get_unwrapped@PEAPEBVTestCaseHandle@Catch@@@std@@YA?A_T$$QEAPEAPEBVTestCaseHandle@Catch@@@Z
	??$_Get_unwrapped@PEAUHelpColumns@Detail@Clara@Catch@@@std@@YA?A_T$$QEAPEAUHelpColumns@Detail@Clara@Catch@@@Z
	??$_Get_unwrapped@PEAUMessageInfo@Catch@@@std@@YA?A_T$$QEAPEAUMessageInfo@Catch@@@Z
	??$_Get_unwrapped@PEAUProcessedReporterSpec@Catch@@@std@@YA?A_T$$QEAPEAUProcessedReporterSpec@Catch@@@Z
	??$_Get_unwrapped@PEAUTagInfo@Catch@@@std@@YA?A_T$$QEAPEAUTagInfo@Catch@@@Z
	??$_Get_unwrapped@PEAUToken@Detail@Clara@Catch@@@std@@YA?A_T$$QEAPEAUToken@Detail@Clara@Catch@@@Z
	??$_Get_unwrapped@PEAU_Grp_t@?$_Tgt_state_t@PEBD@std@@@std@@YA?A_T$$QEAPEAU_Grp_t@?$_Tgt_state_t@PEBD@0@@Z
	??$_Get_unwrapped@PEAV?$basic_string@DU?$char_traits@D@std@@V?$allocator@D@2@@std@@@std@@YA?A_T$$QEAPEAV?$basic_string@DU?$char_traits@D@std@@V?$allocator@D@2@@0@@Z
	??$_Get_unwrapped@PEAV?$duration@NU?$ratio@$00$0DLJKMKAA@@std@@@chrono@std@@@std@@YA?A_T$$QEAPEAV?$duration@NU?$ratio@$00$0DLJKMKAA@@std@@@chrono@0@@Z
	??$_Get_unwrapped@PEAVArg@Clara@Catch@@@std@@YA?A_T$$QEAPEAVArg@Clara@Catch@@@Z
	??$_Get_unwrapped@PEAVAssertionOrBenchmarkResult@Detail@Catch@@@std@@YA?A_T$$QEAPEAVAssertionOrBenchmarkResult@Detail@Catch@@@Z
	??$_Get_unwrapped@PEAVColumn@TextFlow@Catch@@@std@@YA?A_T$$QEAPEAVColumn@TextFlow@Catch@@@Z
	??$_Get_unwrapped@PEAVOpt@Clara@Catch@@@std@@YA?A_T$$QEAPEAVOpt@Clara@Catch@@@Z
	??$_Get_unwrapped@PEAVReporterSpec@Catch@@@std@@YA?A_T$$QEAPEAVReporterSpec@Catch@@@Z
	??$_Get_unwrapped@PEAVTestCaseHandle@Catch@@@std@@YA?A_T$$QEAPEAVTestCaseHandle@Catch@@@Z
	??$_Get_unwrapped@PEAVconst_iterator@Column@TextFlow@Catch@@@std@@YA?A_T$$QEAPEAVconst_iterator@Column@TextFlow@Catch@@@Z
	??$_Get_unwrapped@PEBD@std@@YA?A_T$$QEAPEBD@Z
	??$_Get_unwrapped@PEBN@std@@YA?A_T$$QEAPEBN@Z
	??$_Get_unwrapped@PEBQEBD@std@@YA?A_T$$QEAPEBQEBD@Z
	??$_Get_unwrapped@PEBUHelpColumns@Detail@Clara@Catch@@@std@@YA?A_T$$QEAPEBUHelpColumns@Detail@Clara@Catch@@@Z
	??$_Get_unwrapped@PEBV?$basic_string@DU?$char_traits@D@std@@V?$allocator@D@2@@std@@@std@@YA?A_T$$QEAPEBV?$basic_string@DU?$char_traits@D@std@@V?$allocator@D@2@@0@@Z
	??$_Get_unwrapped@PEBVArg@Clara@Catch@@@std@@YA?A_T$$QEAPEBVArg@Clara@Catch@@@Z
	??$_Get_unwrapped@PEBVOpt@Clara@Catch@@@std@@YA?A_T$$QEAPEBVOpt@Clara@Catch@@@Z
	??$_Get_unwrapped@PEBVStringRef@Catch@@@std@@YA?A_T$$QEAPEBVStringRef@Catch@@@Z
	??$_Get_unwrapped@PEBVTestCaseHandle@Catch@@@std@@YA?A_T$$QEAPEBVTestCaseHandle@Catch@@@Z
	??$_Get_unwrapped_n@AEAPEAPEAD_J@std@@YA?A_TAEAPEAPEAD_J@Z
	??$_Get_unwrapped_n@AEAV?$_Vb_iterator@U?$_Wrap_alloc@V?$allocator@I@std@@@std@@@std@@_J@std@@YA?A_TAEAV?$_Vb_iterator@U?$_Wrap_alloc@V?$allocator@I@std@@@std@@@0@_J@Z
	??$_Get_unwrapped_n@AEBQEBD_J@std@@YA?A_TAEBQEBD_J@Z
	??$_Get_unwrapped_n@AEBQEBVconst_iterator@Column@TextFlow@Catch@@_J@std@@YA?A_TAEBQEBVconst_iterator@Column@TextFlow@Catch@@_J@Z
	??$_Get_unwrapped_n@AEBV?$_String_const_iterator@V?$_String_val@U?$_Simple_types@D@std@@@std@@@std@@_J@std@@YA?A_TAEBV?$_String_const_iterator@V?$_String_val@U?$_Simple_types@D@std@@@std@@@0@_J@Z
	??$_Get_unwrapped_n@AEBV?$_Tree_unchecked_const_iterator@V?$_Tree_val@U?$_Tree_simple_types@U?$pair@$$CBV?$basic_string@DU?$char_traits@D@std@@V?$allocator@D@2@@std@@V12@@std@@@std@@@std@@U_Iterator_base0@2@@std@@U_Distance_unknown@2@@std@@YA?A_TAEBV?$_Tree_unchecked_const_iterator@V?$_Tree_val@U?$_Tree_simple_types@U?$pair@$$CBV?$basic_string@DU?$char_traits@D@std@@V?$allocator@D@2@@std@@V12@@std@@@std@@@std@@U_Iterator_base0@2@@0@U_Distance_unknown@0@@Z
	??$_Get_unwrapped_n@AEBV?$reverse_iterator@V?$_String_const_iterator@V?$_String_val@U?$_Simple_types@D@std@@@std@@@std@@@std@@_J@std@@YA?A_TAEBV?$reverse_iterator@V?$_String_const_iterator@V?$_String_val@U?$_Simple_types@D@std@@@std@@@std@@@0@_J@Z
	??$_Get_unwrapped_n@V?$_Tree_const_iterator@V?$_Tree_val@U?$_Tree_simple_types@PEBVTestCaseHandle@Catch@@@std@@@std@@@std@@_J@std@@YA?A_T$$QEAV?$_Tree_const_iterator@V?$_Tree_val@U?$_Tree_simple_types@PEBVTestCaseHandle@Catch@@@std@@@std@@@0@_J@Z
	??$_Getvals@_W@?$time_get@DV?$istreambuf_iterator@DU?$char_traits@D@std@@@std@@@std@@IEAAX_WAEBV_Locinfo@1@@Z
	??$_Getvals@_W@?$time_get@_WV?$istreambuf_iterator@_WU?$char_traits@_W@std@@@std@@@std@@IEAAX_WAEBV_Locinfo@1@@Z
	??$_Global_new@V?$_Func_impl_no_alloc@V<lambda_1>@?1??_MakeVoidToUnitFunc@details@Concurrency@@YA?AV?$function@$$A6AEXZ@std@@AEBV?$function@$$A6AXXZ@6@@Z@E$$V@std@@AEBV<lambda_1>@?1??_MakeVoidToUnitFunc@details@Concurrency@@YA?AV?$function@$$A6AEXZ@2@AEBV?$function@$$A6AXXZ@2@@Z@@std@@YAPEAV?$_Func_impl_no_alloc@V<lambda_1>@?1??_MakeVoidToUnitFunc@details@Concurrency@@YA?AV?$function@$$A6AEXZ@std@@AEBV?$function@$$A6AXXZ@6@@Z@E$$V@0@AEBV<lambda_1>@?1??_MakeVoidToUnitFunc@details@Concurrency@@YA?AV?$function@$$A6AEXZ@0@AEBV?$function@$$A6AXXZ@0@@Z@@Z
	??$_Global_new@V?$_Func_impl_no_alloc@V<lambda_1>@?1??_MakeVoidToUnitFunc@details@Concurrency@@YA?AV?$function@$$A6AEXZ@std@@AEBV?$function@$$A6AXXZ@6@@Z@E$$V@std@@V<lambda_1>@?1??_MakeVoidToUnitFunc@details@Concurrency@@YA?AV?$function@$$A6AEXZ@2@AEBV?$function@$$A6AXXZ@2@@Z@@std@@YAPEAV?$_Func_impl_no_alloc@V<lambda_1>@?1??_MakeVoidToUnitFunc@details@Concurrency@@YA?AV?$function@$$A6AEXZ@std@@AEBV?$function@$$A6AXXZ@6@@Z@E$$V@0@$$QEAV<lambda_1>@?1??_MakeVoidToUnitFunc@details@Concurrency@@YA?AV?$function@$$A6AEXZ@0@AEBV?$function@$$A6AXXZ@0@@Z@@Z
	??$_Guess_median_unchecked@PEANU?$less@X@std@@@std@@YAXPEAN00U?$less@X@0@@Z
	??$_Guess_median_unchecked@PEAUTag@Catch@@U?$less@X@std@@@std@@YAXPEAUTag@Catch@@00U?$less@X@0@@Z
	??$_Hash_array_representation@D@std@@YA_KQEBD_K@Z
	??$_Idl_distance@PEAPEADPEAPEAD@std@@YA?A_PAEBQEAPEAD0@Z
	??$_Idl_distance@PEBDPEBD@std@@YA?A_PAEBQEBD0@Z
	??$_Idl_distance@PEBVconst_iterator@Column@TextFlow@Catch@@PEBV1234@@std@@YA?A_PAEBQEBVconst_iterator@Column@TextFlow@Catch@@0@Z
	??$_Idl_distance@V?$_String_const_iterator@V?$_String_val@U?$_Simple_types@D@std@@@std@@@std@@PEBD@std@@YA?A_PAEBQEBD0@Z
	??$_Idl_distance@V?$_Tree_unchecked_const_iterator@V?$_Tree_val@U?$_Tree_simple_types@U?$pair@$$CBV?$basic_string@DU?$char_traits@D@std@@V?$allocator@D@2@@std@@V12@@std@@@std@@@std@@U_Iterator_base0@2@@std@@V12@@std@@YA?A_PAEBV?$_Tree_unchecked_const_iterator@V?$_Tree_val@U?$_Tree_simple_types@U?$pair@$$CBV?$basic_string@DU?$char_traits@D@std@@V?$allocator@D@2@@std@@V12@@std@@@std@@@std@@U_Iterator_base0@2@@0@0@Z
	??$_Idl_distance@V?$_Vb_iterator@U?$_Wrap_alloc@V?$allocator@I@std@@@std@@@std@@V12@@std@@YA?A_PAEBV?$_Vb_iterator@U?$_Wrap_alloc@V?$allocator@I@std@@@std@@@0@0@Z
	??$_Idl_distance@V?$reverse_iterator@V?$_String_const_iterator@V?$_String_val@U?$_Simple_types@D@std@@@std@@@std@@@std@@V?$reverse_iterator@PEBD@2@@std@@YA?A_PAEBV?$reverse_iterator@PEBD@0@0@Z
	??$_Immortalize_memcpy_image@V_Future_error_category2@std@@@std@@YAAEBV_Future_error_category2@0@XZ
	??$_Immortalize_memcpy_image@V_Generic_error_category@std@@@std@@YAAEBV_Generic_error_category@0@XZ
	??$_Insert@PEBD@?$_Buf@D@std@@QEAAXPEBD0@Z
	??$_Insert_counted_range@PEAUHelpColumns@Detail@Clara@Catch@@@?$vector@UHelpColumns@Detail@Clara@Catch@@V?$allocator@UHelpColumns@Detail@Clara@Catch@@@std@@@std@@AEAAXV?$_Vector_const_iterator@V?$_Vector_val@U?$_Simple_types@UHelpColumns@Detail@Clara@Catch@@@std@@@std@@@1@PEAUHelpColumns@Detail@Clara@Catch@@_K@Z
	??$_Insert_counted_range@PEBV?$basic_string@DU?$char_traits@D@std@@V?$allocator@D@2@@std@@@?$vector@VStringRef@Catch@@V?$allocator@VStringRef@Catch@@@std@@@std@@AEAAXV?$_Vector_const_iterator@V?$_Vector_val@U?$_Simple_types@VStringRef@Catch@@@std@@@std@@@1@PEBV?$basic_string@DU?$char_traits@D@std@@V?$allocator@D@2@@1@_K@Z
	??$_Insert_counted_range@PEBVArg@Clara@Catch@@@?$vector@VArg@Clara@Catch@@V?$allocator@VArg@Clara@Catch@@@std@@@std@@AEAAXV?$_Vector_const_iterator@V?$_Vector_val@U?$_Simple_types@VArg@Clara@Catch@@@std@@@std@@@1@PEBVArg@Clara@Catch@@_K@Z
	??$_Insert_counted_range@PEBVOpt@Clara@Catch@@@?$vector@VOpt@Clara@Catch@@V?$allocator@VOpt@Clara@Catch@@@std@@@std@@AEAAXV?$_Vector_const_iterator@V?$_Vector_val@U?$_Simple_types@VOpt@Clara@Catch@@@std@@@std@@@1@PEBVOpt@Clara@Catch@@_K@Z
	??$_Insert_counted_range@PEBVStringRef@Catch@@@?$vector@VStringRef@Catch@@V?$allocator@VStringRef@Catch@@@std@@@std@@AEAAXV?$_Vector_const_iterator@V?$_Vector_val@U?$_Simple_types@VStringRef@Catch@@@std@@@std@@@1@PEBVStringRef@Catch@@_K@Z
	??$_Insert_range_unchecked@PEBQEBVTestCaseHandle@Catch@@PEBQEBV12@@?$_Tree@V?$_Tset_traits@PEBVTestCaseHandle@Catch@@U?$less@PEBVTestCaseHandle@Catch@@@std@@V?$allocator@PEBVTestCaseHandle@Catch@@@4@$0A@@std@@@std@@IEAAXPEBQEBVTestCaseHandle@Catch@@QEBQEBV23@@Z
	??$_Insert_range_unchecked@V?$_Tree_unchecked_const_iterator@V?$_Tree_val@U?$_Tree_simple_types@PEBVTestCaseHandle@Catch@@@std@@@std@@U_Iterator_base0@2@@std@@V12@@?$_Tree@V?$_Tset_traits@PEBVTestCaseHandle@Catch@@U?$less@PEBVTestCaseHandle@Catch@@@std@@V?$allocator@PEBVTestCaseHandle@Catch@@@4@$0A@@std@@@std@@IEAAXV?$_Tree_unchecked_const_iterator@V?$_Tree_val@U?$_Tree_simple_types@PEBVTestCaseHandle@Catch@@@std@@@std@@U_Iterator_base0@2@@1@V21@@Z
	??$_Insert_string@DU?$char_traits@D@std@@_K@std@@YAAEAV?$basic_ostream@DU?$char_traits@D@std@@@0@AEAV10@QEBD_K@Z
	??$_Insertion_sort_unchecked@PEANU?$less@X@std@@@std@@YAPEANQEAN0U?$less@X@0@@Z
	??$_Insertion_sort_unchecked@PEAUTag@Catch@@U?$less@X@std@@@std@@YAPEAUTag@Catch@@QEAU12@0U?$less@X@0@@Z
	??$_Is_all_bits_zero@I@std@@YA_NAEBI@Z
	??$_Kfn@$$CBV?$basic_string@DU?$char_traits@D@std@@V?$allocator@D@2@@std@@UTagAlias@Catch@@@?$_Tmap_traits@V?$basic_string@DU?$char_traits@D@std@@V?$allocator@D@2@@std@@UTagAlias@Catch@@U?$less@V?$basic_string@DU?$char_traits@D@std@@V?$allocator@D@2@@std@@@2@V?$allocator@U?$pair@$$CBV?$basic_string@DU?$char_traits@D@std@@V?$allocator@D@2@@std@@UTagAlias@Catch@@@std@@@2@$0A@@std@@SAAEBV?$basic_string@DU?$char_traits@D@std@@V?$allocator@D@2@@1@AEBU?$pair@$$CBV?$basic_string@DU?$char_traits@D@std@@V?$allocator@D@2@@std@@UTagAlias@Catch@@@1@@Z
	??$_Kfn@$$CBV?$basic_string@DU?$char_traits@D@std@@V?$allocator@D@2@@std@@V12@@?$_Tmap_traits@V?$basic_string@DU?$char_traits@D@std@@V?$allocator@D@2@@std@@V12@U?$less@V?$basic_string@DU?$char_traits@D@std@@V?$allocator@D@2@@std@@@2@V?$allocator@U?$pair@$$CBV?$basic_string@DU?$char_traits@D@std@@V?$allocator@D@2@@std@@V12@@std@@@2@$0A@@std@@SAAEBV?$basic_string@DU?$char_traits@D@std@@V?$allocator@D@2@@1@AEBU?$pair@$$CBV?$basic_string@DU?$char_traits@D@std@@V?$allocator@D@2@@std@@V12@@1@@Z
	??$_Kfn@$$CBV?$basic_string@DU?$char_traits@D@std@@V?$allocator@D@2@@std@@V?$unique_ptr@VIReporterFactory@Catch@@@Detail@Catch@@@?$_Tmap_traits@V?$basic_string@DU?$char_traits@D@std@@V?$allocator@D@2@@std@@V?$unique_ptr@VIReporterFactory@Catch@@@Detail@Catch@@UCaseInsensitiveLess@45@V?$allocator@U?$pair@$$CBV?$basic_string@DU?$char_traits@D@std@@V?$allocator@D@2@@std@@V?$unique_ptr@VIReporterFactory@Catch@@@Detail@Catch@@@std@@@2@$0A@@std@@SAAEBV?$basic_string@DU?$char_traits@D@std@@V?$allocator@D@2@@1@AEBU?$pair@$$CBV?$basic_string@DU?$char_traits@D@std@@V?$allocator@D@2@@std@@V?$unique_ptr@VIReporterFactory@Catch@@@Detail@Catch@@@1@@Z
	??$_Kfn@$$CBVStringRef@Catch@@UTagInfo@2@@?$_Tmap_traits@VStringRef@Catch@@UTagInfo@2@UCaseInsensitiveLess@Detail@2@V?$allocator@U?$pair@$$CBVStringRef@Catch@@UTagInfo@2@@std@@@std@@$0A@@std@@SAAEBVStringRef@Catch@@AEBU?$pair@$$CBVStringRef@Catch@@UTagInfo@2@@1@@Z
	??$_Kfn@$$CBVStringRef@Catch@@V?$vector@PEBU?$Node@UTestCaseStats@Catch@@USectionNode@CumulativeReporterBase@2@@CumulativeReporterBase@Catch@@V?$allocator@PEBU?$Node@UTestCaseStats@Catch@@USectionNode@CumulativeReporterBase@2@@CumulativeReporterBase@Catch@@@std@@@std@@@?$_Tmap_traits@VStringRef@Catch@@V?$vector@PEBU?$Node@UTestCaseStats@Catch@@USectionNode@CumulativeReporterBase@2@@CumulativeReporterBase@Catch@@V?$allocator@PEBU?$Node@UTestCaseStats@Catch@@USectionNode@CumulativeReporterBase@2@@CumulativeReporterBase@Catch@@@std@@@std@@U?$less@VStringRef@Catch@@@4@V?$allocator@U?$pair@$$CBVStringRef@Catch@@V?$vector@PEBU?$Node@UTestCaseStats@Catch@@USectionNode@CumulativeReporterBase@2@@CumulativeReporterBase@Catch@@V?$allocator@PEBU?$Node@UTestCaseStats@Catch@@USectionNode@CumulativeReporterBase@2@@CumulativeReporterBase@Catch@@@std@@@std@@@std@@@4@$0A@@std@@SAAEBVStringRef@Catch@@AEBU?$pair@$$CBVStringRef@Catch@@V?$vector@PEBU?$Node@UTestCaseStats@Catch@@USectionNode@CumulativeReporterBase@2@@CumulativeReporterBase@Catch@@V?$allocator@PEBU?$Node@UTestCaseStats@Catch@@USectionNode@CumulativeReporterBase@2@@CumulativeReporterBase@Catch@@@std@@@std@@@1@@Z
	??$_Knuth_4_3_1_M@$01$01@_Base128@std@@SAXAEAY01$$CBI0AEAY03I@Z
	??$_LStrcoll@D@std@@YAHPEBD000PEBU_Collvec@@@Z
	??$_LStrxfrm@D@std@@YA_KPEAD0PEBD1PEBU_Collvec@@@Z
	??$_Lookup_coll@PEBDD@std@@YAPEBDPEBD0PEBU?$_Sequence@D@0@@Z
	??$_Lookup_equiv@DV?$regex_traits@D@std@@@std@@YA_NEPEBU?$_Sequence@D@0@AEBV?$regex_traits@D@0@@Z
	??$_Lookup_range@D@std@@YA_NIPEBU?$_Buf@D@0@@Z
	??$_Lower_bound_duplicate@PEBVTestCaseHandle@Catch@@@?$_Tree@V?$_Tset_traits@PEBVTestCaseHandle@Catch@@U?$less@PEBVTestCaseHandle@Catch@@@std@@V?$allocator@PEBVTestCaseHandle@Catch@@@4@$0A@@std@@@std@@IEBA_NQEAU?$_Tree_node@PEBVTestCaseHandle@Catch@@PEAX@1@AEBQEBVTestCaseHandle@Catch@@@Z
	??$_Lower_bound_duplicate@V?$basic_string@DU?$char_traits@D@std@@V?$allocator@D@2@@std@@@?$_Tree@V?$_Tmap_traits@V?$basic_string@DU?$char_traits@D@std@@V?$allocator@D@2@@std@@UTagAlias@Catch@@U?$less@V?$basic_string@DU?$char_traits@D@std@@V?$allocator@D@2@@std@@@2@V?$allocator@U?$pair@$$CBV?$basic_string@DU?$char_traits@D@std@@V?$allocator@D@2@@std@@UTagAlias@Catch@@@std@@@2@$0A@@std@@@std@@IEBA_NQEAU?$_Tree_node@U?$pair@$$CBV?$basic_string@DU?$char_traits@D@std@@V?$allocator@D@2@@std@@UTagAlias@Catch@@@std@@PEAX@1@AEBV?$basic_string@DU?$char_traits@D@std@@V?$allocator@D@2@@1@@Z
	??$_Lower_bound_duplicate@V?$basic_string@DU?$char_traits@D@std@@V?$allocator@D@2@@std@@@?$_Tree@V?$_Tmap_traits@V?$basic_string@DU?$char_traits@D@std@@V?$allocator@D@2@@std@@V12@U?$less@V?$basic_string@DU?$char_traits@D@std@@V?$allocator@D@2@@std@@@2@V?$allocator@U?$pair@$$CBV?$basic_string@DU?$char_traits@D@std@@V?$allocator@D@2@@std@@V12@@std@@@2@$0A@@std@@@std@@IEBA_NQEAU?$_Tree_node@U?$pair@$$CBV?$basic_string@DU?$char_traits@D@std@@V?$allocator@D@2@@std@@V12@@std@@PEAX@1@AEBV?$basic_string@DU?$char_traits@D@std@@V?$allocator@D@2@@1@@Z
	??$_Lower_bound_duplicate@V?$basic_string@DU?$char_traits@D@std@@V?$allocator@D@2@@std@@@?$_Tree@V?$_Tmap_traits@V?$basic_string@DU?$char_traits@D@std@@V?$allocator@D@2@@std@@V?$unique_ptr@VIReporterFactory@Catch@@@Detail@Catch@@UCaseInsensitiveLess@45@V?$allocator@U?$pair@$$CBV?$basic_string@DU?$char_traits@D@std@@V?$allocator@D@2@@std@@V?$unique_ptr@VIReporterFactory@Catch@@@Detail@Catch@@@std@@@2@$0A@@std@@@std@@IEBA_NQEAU?$_Tree_node@U?$pair@$$CBV?$basic_string@DU?$char_traits@D@std@@V?$allocator@D@2@@std@@V?$unique_ptr@VIReporterFactory@Catch@@@Detail@Catch@@@std@@PEAX@1@AEBV?$basic_string@DU?$char_traits@D@std@@V?$allocator@D@2@@1@@Z
	??$_Lower_bound_duplicate@VStringRef@Catch@@@?$_Tree@V?$_Tmap_traits@VStringRef@Catch@@UTagInfo@2@UCaseInsensitiveLess@Detail@2@V?$allocator@U?$pair@$$CBVStringRef@Catch@@UTagInfo@2@@std@@@std@@$0A@@std@@@std@@IEBA_NQEAU?$_Tree_node@U?$pair@$$CBVStringRef@Catch@@UTagInfo@2@@std@@PEAX@1@AEBVStringRef@Catch@@@Z
	??$_Lower_bound_duplicate@VStringRef@Catch@@@?$_Tree@V?$_Tmap_traits@VStringRef@Catch@@V?$vector@PEBU?$Node@UTestCaseStats@Catch@@USectionNode@CumulativeReporterBase@2@@CumulativeReporterBase@Catch@@V?$allocator@PEBU?$Node@UTestCaseStats@Catch@@USectionNode@CumulativeReporterBase@2@@CumulativeReporterBase@Catch@@@std@@@std@@U?$less@VStringRef@Catch@@@4@V?$allocator@U?$pair@$$CBVStringRef@Catch@@V?$vector@PEBU?$Node@UTestCaseStats@Catch@@USectionNode@CumulativeReporterBase@2@@CumulativeReporterBase@Catch@@V?$allocator@PEBU?$Node@UTestCaseStats@Catch@@USectionNode@CumulativeReporterBase@2@@CumulativeReporterBase@Catch@@@std@@@std@@@std@@@4@$0A@@std@@@std@@IEBA_NQEAU?$_Tree_node@U?$pair@$$CBVStringRef@Catch@@V?$vector@PEBU?$Node@UTestCaseStats@Catch@@USectionNode@CumulativeReporterBase@2@@CumulativeReporterBase@Catch@@V?$allocator@PEBU?$Node@UTestCaseStats@Catch@@USectionNode@CumulativeReporterBase@2@@CumulativeReporterBase@Catch@@@std@@@std@@@std@@PEAX@1@AEBVStringRef@Catch@@@Z
	??$_Lower_bound_duplicate@VStringRef@Catch@@@?$_Tree@V?$_Tset_traits@VStringRef@Catch@@U?$less@VStringRef@Catch@@@std@@V?$allocator@VStringRef@Catch@@@4@$0A@@std@@@std@@IEBA_NQEAU?$_Tree_node@VStringRef@Catch@@PEAX@1@AEBVStringRef@Catch@@@Z
	??$_Make_heap_unchecked@PEANU?$less@X@std@@@std@@YAXPEAN0U?$less@X@0@@Z
	??$_Make_heap_unchecked@PEAUTag@Catch@@U?$less@X@std@@@std@@YAXPEAUTag@Catch@@0U?$less@X@0@@Z
	??$_Maklocstr@D@std@@YAPEADPEBDPEADAEBU_Cvtvec@@@Z
	??$_Maklocstr@_W@std@@YAPEA_WPEBDPEA_WAEBU_Cvtvec@@@Z
	??$_Mark@E@_Bitmap@std@@QEAAXE@Z
	??$_Mark@I@_Bitmap@std@@QEAAXI@Z
	??$_Match@V?$allocator@V?$sub_match@PEBD@std@@@std@@@?$_Matcher@PEBDDV?$regex_traits@D@std@@PEBD@std@@QEAA_NPEAV?$match_results@PEBDV?$allocator@V?$sub_match@PEBD@std@@@std@@@1@_N@Z
	??$_Max_limit@D@std@@YADXZ
	??$_Max_limit@E@std@@YAEXZ
	??$_Max_limit@_J@std@@YA_JXZ
	??$_Med3_unchecked@PEANU?$less@X@std@@@std@@YAXPEAN00U?$less@X@0@@Z
	??$_Med3_unchecked@PEAUTag@Catch@@U?$less@X@std@@@std@@YAXPEAUTag@Catch@@00U?$less@X@0@@Z
	??$_Min_element_unchecked@PEANU?$less@X@std@@@std@@YAPEANPEAN0U?$less@X@0@@Z
	??$_Min_element_vectorized@N@std@@YAPEANQEAN0@Z
	??$_Move_backward_unchecked@PEANPEAN@std@@YAPEANPEAN00@Z
	??$_Move_backward_unchecked@PEAU?$pair@_KVTestCaseHandle@Catch@@@std@@PEAU12@@std@@YAPEAU?$pair@_KVTestCaseHandle@Catch@@@0@PEAU10@00@Z
	??$_Move_backward_unchecked@PEAUHelpColumns@Detail@Clara@Catch@@PEAU1234@@std@@YAPEAUHelpColumns@Detail@Clara@Catch@@PEAU1234@00@Z
	??$_Move_backward_unchecked@PEAUTag@Catch@@PEAU12@@std@@YAPEAUTag@Catch@@PEAU12@00@Z
	??$_Move_backward_unchecked@PEAV?$unique_ptr@VIEventListener@Catch@@@Detail@Catch@@PEAV123@@std@@YAPEAV?$unique_ptr@VIEventListener@Catch@@@Detail@Catch@@PEAV123@00@Z
	??$_Move_backward_unchecked@PEAVArg@Clara@Catch@@PEAV123@@std@@YAPEAVArg@Clara@Catch@@PEAV123@00@Z
	??$_Move_backward_unchecked@PEAVOpt@Clara@Catch@@PEAV123@@std@@YAPEAVOpt@Clara@Catch@@PEAV123@00@Z
	??$_Move_backward_unchecked@PEAVStringRef@Catch@@PEAV12@@std@@YAPEAVStringRef@Catch@@PEAV12@00@Z
	??$_Move_backward_unchecked@PEAVTestCaseHandle@Catch@@PEAV12@@std@@YAPEAVTestCaseHandle@Catch@@PEAV12@00@Z
	??$_Move_construct_from@U?$BoundValueRef@I@Detail@Clara@Catch@@@?$_Ptr_base@UBoundRef@Detail@Clara@Catch@@@std@@IEAAX$$QEAV?$_Ptr_base@U?$BoundValueRef@I@Detail@Clara@Catch@@@1@@Z
	??$_Move_construct_from@U?$BoundValueRef@N@Detail@Clara@Catch@@@?$_Ptr_base@UBoundRef@Detail@Clara@Catch@@@std@@IEAAX$$QEAV?$_Ptr_base@U?$BoundValueRef@N@Detail@Clara@Catch@@@1@@Z
	??$_Move_construct_from@U?$BoundValueRef@V?$basic_string@DU?$char_traits@D@std@@V?$allocator@D@2@@std@@@Detail@Clara@Catch@@@?$_Ptr_base@UBoundRef@Detail@Clara@Catch@@@std@@IEAAX$$QEAV?$_Ptr_base@U?$BoundValueRef@V?$basic_string@DU?$char_traits@D@std@@V?$allocator@D@2@@std@@@Detail@Clara@Catch@@@1@@Z
	??$_Move_construct_from@U?$BoundValueRef@V?$basic_string@DU?$char_traits@D@std@@V?$allocator@D@2@@std@@@Detail@Clara@Catch@@@?$_Ptr_base@UBoundValueRefBase@Detail@Clara@Catch@@@std@@IEAAX$$QEAV?$_Ptr_base@U?$BoundValueRef@V?$basic_string@DU?$char_traits@D@std@@V?$allocator@D@2@@std@@@Detail@Clara@Catch@@@1@@Z
	??$_Move_construct_from@U?$BoundValueRef@V?$vector@V?$basic_string@DU?$char_traits@D@std@@V?$allocator@D@2@@std@@V?$allocator@V?$basic_string@DU?$char_traits@D@std@@V?$allocator@D@2@@std@@@2@@std@@@Detail@Clara@Catch@@@?$_Ptr_base@UBoundRef@Detail@Clara@Catch@@@std@@IEAAX$$QEAV?$_Ptr_base@U?$BoundValueRef@V?$vector@V?$basic_string@DU?$char_traits@D@std@@V?$allocator@D@2@@std@@V?$allocator@V?$basic_string@DU?$char_traits@D@std@@V?$allocator@D@2@@std@@@2@@std@@@Detail@Clara@Catch@@@1@@Z
	??$_Move_construct_from@U?$BoundValueRef@_J@Detail@Clara@Catch@@@?$_Ptr_base@UBoundRef@Detail@Clara@Catch@@@std@@IEAAX$$QEAV?$_Ptr_base@U?$BoundValueRef@_J@Detail@Clara@Catch@@@1@@Z
	??$_Move_construct_from@U?$_Task_impl@E@details@Concurrency@@@?$_Ptr_base@U?$_Task_impl@E@details@Concurrency@@@std@@IEAAX$$QEAV01@@Z
	??$_Move_construct_from@UBoundFlagRef@Detail@Clara@Catch@@@?$_Ptr_base@UBoundRef@Detail@Clara@Catch@@@std@@IEAAX$$QEAV?$_Ptr_base@UBoundFlagRef@Detail@Clara@Catch@@@1@@Z
	??$_Move_construct_from@UBoundRef@Detail@Clara@Catch@@@?$_Ptr_base@UBoundRef@Detail@Clara@Catch@@@std@@IEAAX$$QEAV01@@Z
	??$_Move_construct_from@UBoundValueRefBase@Detail@Clara@Catch@@@?$_Ptr_base@UBoundValueRefBase@Detail@Clara@Catch@@@std@@IEAAX$$QEAV01@@Z
	??$_Move_construct_from@U_Task_impl_base@details@Concurrency@@@?$_Ptr_base@U_Task_impl_base@details@Concurrency@@@std@@IEAAX$$QEAV01@@Z
	??$_Move_construct_from@Uscheduler_interface@Concurrency@@@?$_Ptr_base@Uscheduler_interface@Concurrency@@@std@@IEAAX$$QEAV01@@Z
	??$_Move_construct_from@V?$basic_string@DU?$char_traits@D@std@@V?$allocator@D@2@@std@@@?$_Ptr_base@V?$basic_string@DU?$char_traits@D@std@@V?$allocator@D@2@@std@@@std@@IEAAX$$QEAV01@@Z
	??$_Move_unchecked@PEAIPEAI@std@@YAPEAIPEAI00@Z
	??$_Move_unchecked@PEAUHelpColumns@Detail@Clara@Catch@@PEAU1234@@std@@YAPEAUHelpColumns@Detail@Clara@Catch@@PEAU1234@00@Z
	??$_Move_unchecked@PEAUMessageInfo@Catch@@PEAU12@@std@@YAPEAUMessageInfo@Catch@@PEAU12@00@Z
	??$_Move_unchecked@PEAUTag@Catch@@PEAU12@@std@@YAPEAUTag@Catch@@PEAU12@00@Z
	??$_Move_unchecked@PEAUToken@Detail@Clara@Catch@@PEAU1234@@std@@YAPEAUToken@Detail@Clara@Catch@@PEAU1234@00@Z
	??$_Move_unchecked@PEAV?$basic_string@DU?$char_traits@D@std@@V?$allocator@D@2@@std@@PEAV12@@std@@YAPEAV?$basic_string@DU?$char_traits@D@std@@V?$allocator@D@2@@0@PEAV10@00@Z
	??$_Move_unchecked@PEAVArg@Clara@Catch@@PEAV123@@std@@YAPEAVArg@Clara@Catch@@PEAV123@00@Z
	??$_Move_unchecked@PEAVOpt@Clara@Catch@@PEAV123@@std@@YAPEAVOpt@Clara@Catch@@PEAV123@00@Z
	??$_Move_unchecked@PEAVStringRef@Catch@@PEAV12@@std@@YAPEAVStringRef@Catch@@PEAV12@00@Z
	??$_Next_iter@PEAN@std@@YAPEANPEAN@Z
	??$_Next_iter@PEAU?$pair@_KVTestCaseHandle@Catch@@@std@@@std@@YAPEAU?$pair@_KVTestCaseHandle@Catch@@@0@PEAU10@@Z
	??$_Next_iter@PEAUTag@Catch@@@std@@YAPEAUTag@Catch@@PEAU12@@Z
	??$_Next_iter@PEAVTestCaseHandle@Catch@@@std@@YAPEAVTestCaseHandle@Catch@@PEAV12@@Z
	??$_Partition_by_median_guess_unchecked@PEANU?$less@X@std@@@std@@YA?AU?$pair@PEANPEAN@0@PEAN0U?$less@X@0@@Z
	??$_Partition_by_median_guess_unchecked@PEAUTag@Catch@@U?$less@X@std@@@std@@YA?AU?$pair@PEAUTag@Catch@@PEAU12@@0@PEAUTag@Catch@@0U?$less@X@0@@Z
	??$_Pass_fn@U?$_Cmp_icase@V?$_Regex_traits@D@std@@@std@@@std@@YA?A_PAEAU?$_Cmp_icase@V?$_Regex_traits@D@std@@@0@@Z
	??$_Pass_fn@U?$less@X@std@@@std@@YA?A_PAEAU?$less@X@0@@Z
	??$_Pocca@V?$allocator@D@std@@@std@@YAXAEAV?$allocator@D@0@AEBV10@@Z
	??$_Pocca@V?$allocator@I@std@@@std@@YAXAEAV?$allocator@I@0@AEBV10@@Z
	??$_Pocca@V?$allocator@PEAX@std@@@std@@YAXAEAV?$allocator@PEAX@0@AEBV10@@Z
	??$_Pocca@V?$allocator@U?$_Tree_node@U?$pair@$$CBV?$basic_string@DU?$char_traits@D@std@@V?$allocator@D@2@@std@@V12@@std@@PEAX@std@@@std@@@std@@YAXAEAV?$allocator@U?$_Tree_node@U?$pair@$$CBV?$basic_string@DU?$char_traits@D@std@@V?$allocator@D@2@@std@@V12@@std@@PEAX@std@@@0@AEBV10@@Z
	??$_Pocca@V?$allocator@U_Grp_t@?$_Tgt_state_t@PEBD@std@@@std@@@std@@YAXAEAV?$allocator@U_Grp_t@?$_Tgt_state_t@PEBD@std@@@0@AEBV10@@Z
	??$_Pocca@V?$allocator@V?$basic_string@DU?$char_traits@D@std@@V?$allocator@D@2@@std@@@std@@@std@@YAXAEAV?$allocator@V?$basic_string@DU?$char_traits@D@std@@V?$allocator@D@2@@std@@@0@AEBV10@@Z
	??$_Pocca@V?$allocator@VArg@Clara@Catch@@@std@@@std@@YAXAEAV?$allocator@VArg@Clara@Catch@@@0@AEBV10@@Z
	??$_Pocca@V?$allocator@VOpt@Clara@Catch@@@std@@@std@@YAXAEAV?$allocator@VOpt@Clara@Catch@@@0@AEBV10@@Z
	??$_Pocca@V?$allocator@VReporterSpec@Catch@@@std@@@std@@YAXAEAV?$allocator@VReporterSpec@Catch@@@0@AEBV10@@Z
	??$_Pocma@V?$allocator@D@std@@@std@@YAXAEAV?$allocator@D@0@0@Z
	??$_Pocma@V?$allocator@U?$_Tree_node@PEBVTestCaseHandle@Catch@@PEAX@std@@@std@@@std@@YAXAEAV?$allocator@U?$_Tree_node@PEBVTestCaseHandle@Catch@@PEAX@std@@@0@0@Z
	??$_Pocma@V?$allocator@UFilter@TestSpec@Catch@@@std@@@std@@YAXAEAV?$allocator@UFilter@TestSpec@Catch@@@0@0@Z
	??$_Pocma@V?$allocator@UFilterMatch@TestSpec@Catch@@@std@@@std@@YAXAEAV?$allocator@UFilterMatch@TestSpec@Catch@@@0@0@Z
	??$_Pocma@V?$allocator@V?$basic_string@DU?$char_traits@D@std@@V?$allocator@D@2@@std@@@std@@@std@@YAXAEAV?$allocator@V?$basic_string@DU?$char_traits@D@std@@V?$allocator@D@2@@std@@@0@0@Z
	??$_Pocma@V?$allocator@V?$unique_ptr@VPattern@TestSpec@Catch@@@Detail@Catch@@@std@@@std@@YAXAEAV?$allocator@V?$unique_ptr@VPattern@TestSpec@Catch@@@Detail@Catch@@@0@0@Z
	??$_Pocma@V?$allocator@VArg@Clara@Catch@@@std@@@std@@YAXAEAV?$allocator@VArg@Clara@Catch@@@0@0@Z
	??$_Pocma@V?$allocator@VOpt@Clara@Catch@@@std@@@std@@YAXAEAV?$allocator@VOpt@Clara@Catch@@@0@0@Z
	??$_Pocma@V?$allocator@VTestCaseHandle@Catch@@@std@@@std@@YAXAEAV?$allocator@VTestCaseHandle@Catch@@@0@0@Z
	??$_Pocs@V?$allocator@V?$unique_ptr@U?$Node@UTestCaseStats@Catch@@USectionNode@CumulativeReporterBase@2@@CumulativeReporterBase@Catch@@@Detail@Catch@@@std@@@std@@YAXAEAV?$allocator@V?$unique_ptr@U?$Node@UTestCaseStats@Catch@@USectionNode@CumulativeReporterBase@2@@CumulativeReporterBase@Catch@@@Detail@Catch@@@0@0@Z
	??$_Pop_heap_hole_by_index@PEANNU?$less@X@std@@@std@@YAXPEAN_J1$$QEANU?$less@X@0@@Z
	??$_Pop_heap_hole_by_index@PEAUTag@Catch@@U12@U?$less@X@std@@@std@@YAXPEAUTag@Catch@@_J1$$QEAU12@U?$less@X@0@@Z
	??$_Pop_heap_hole_unchecked@PEANNU?$less@X@std@@@std@@YAXPEAN00$$QEANU?$less@X@0@@Z
	??$_Pop_heap_hole_unchecked@PEAUTag@Catch@@U12@U?$less@X@std@@@std@@YAXPEAUTag@Catch@@00$$QEAU12@U?$less@X@0@@Z
	??$_Pop_heap_unchecked@PEANU?$less@X@std@@@std@@YAXPEAN0U?$less@X@0@@Z
	??$_Pop_heap_unchecked@PEAUTag@Catch@@U?$less@X@std@@@std@@YAXPEAUTag@Catch@@0U?$less@X@0@@Z
	??$_Popcount@_K$0A@@std@@YAH_K@Z
	??$_Popcount_fallback@_K@std@@YAH_K@Z
	??$_Prev_iter@PEAN@std@@YAPEANPEAN@Z
	??$_Prev_iter@PEAU?$pair@_KVTestCaseHandle@Catch@@@std@@@std@@YAPEAU?$pair@_KVTestCaseHandle@Catch@@@0@PEAU10@@Z
	??$_Prev_iter@PEAUTag@Catch@@@std@@YAPEAUTag@Catch@@PEAU12@@Z
	??$_Prev_iter@PEAVTestCaseHandle@Catch@@@std@@YAPEAVTestCaseHandle@Catch@@PEAV12@@Z
	??$_Prev_iter@PEBD@std@@YAPEBDPEBD@Z
	??$_Push_heap_by_index@PEANNU?$less@X@std@@@std@@YAXPEAN_J1$$QEANU?$less@X@0@@Z
	??$_Push_heap_by_index@PEAUTag@Catch@@U12@U?$less@X@std@@@std@@YAXPEAUTag@Catch@@_J1$$QEAU12@U?$less@X@0@@Z
	??$_Reallocate@$0A@@?$vector@NV?$allocator@N@std@@@std@@AEAAXAEA_K@Z
	??$_Reallocate@$0A@@?$vector@U?$pair@HVStringRef@Catch@@@std@@V?$allocator@U?$pair@HVStringRef@Catch@@@std@@@2@@std@@AEAAXAEA_K@Z
	??$_Reallocate@$0A@@?$vector@U?$pair@_KVTestCaseHandle@Catch@@@std@@V?$allocator@U?$pair@_KVTestCaseHandle@Catch@@@std@@@2@@std@@AEAAXAEA_K@Z
	??$_Reallocate@$0A@@?$vector@UFilterMatch@TestSpec@Catch@@V?$allocator@UFilterMatch@TestSpec@Catch@@@std@@@std@@AEAAXAEA_K@Z
	??$_Reallocate@$0A@@?$vector@UListenerDescription@Catch@@V?$allocator@UListenerDescription@Catch@@@std@@@std@@AEAAXAEA_K@Z
	??$_Reallocate@$0A@@?$vector@UReporterDescription@Catch@@V?$allocator@UReporterDescription@Catch@@@std@@@std@@AEAAXAEA_K@Z
	??$_Reallocate@$0A@@?$vector@UTagInfo@Catch@@V?$allocator@UTagInfo@Catch@@@std@@@std@@AEAAXAEA_K@Z
	??$_Reallocate@$0A@@?$vector@VStringRef@Catch@@V?$allocator@VStringRef@Catch@@@std@@@std@@AEAAXAEA_K@Z
	??$_Reallocate@$0A@@?$vector@VTestCaseHandle@Catch@@V?$allocator@VTestCaseHandle@Catch@@@std@@@std@@AEAAXAEA_K@Z
	??$_Reallocate@$0A@@?$vector@Vconst_iterator@Column@TextFlow@Catch@@V?$allocator@Vconst_iterator@Column@TextFlow@Catch@@@std@@@std@@AEAAXAEA_K@Z
	??$_Reallocate_for@V<lambda_1>@?1??assign@?$basic_string@DU?$char_traits@D@std@@V?$allocator@D@2@@std@@QEAAAEAV34@QEBD_K@Z@PEBD@?$basic_string@DU?$char_traits@D@std@@V?$allocator@D@2@@std@@AEAAAEAV01@_KV<lambda_1>@?1??assign@01@QEAAAEAV01@QEBD0@Z@PEBD@Z
	??$_Reallocate_grow_by@V<lambda_1>@?1??append@?$basic_string@DU?$char_traits@D@std@@V?$allocator@D@2@@std@@QEAAAEAV34@QEBD_K@Z@PEBD_K@?$basic_string@DU?$char_traits@D@std@@V?$allocator@D@2@@std@@AEAAAEAV01@_KV<lambda_1>@?1??append@01@QEAAAEAV01@QEBD0@Z@PEBD_K@Z
	??$_Reallocate_grow_by@V<lambda_1>@?1??append@?$basic_string@DU?$char_traits@D@std@@V?$allocator@D@2@@std@@QEAAAEAV34@_KD@Z@_KD@?$basic_string@DU?$char_traits@D@std@@V?$allocator@D@2@@std@@AEAAAEAV01@_KV<lambda_1>@?1??append@01@QEAAAEAV01@0D@Z@_KD@Z
	??$_Reallocate_grow_by@V<lambda_1>@?1??insert@?$basic_string@DU?$char_traits@D@std@@V?$allocator@D@2@@std@@QEAAAEAV34@_K0D@Z@_K_KD@?$basic_string@DU?$char_traits@D@std@@V?$allocator@D@2@@std@@AEAAAEAV01@_KV<lambda_1>@?1??insert@01@QEAAAEAV01@00D@Z@_K2D@Z
	??$_Reallocate_grow_by@V<lambda_1>@?1??insert@?$basic_string@DU?$char_traits@D@std@@V?$allocator@D@2@@std@@QEAAAEAV34@_KQEBD0@Z@_KPEBD_K@?$basic_string@DU?$char_traits@D@std@@V?$allocator@D@2@@std@@AEAAAEAV01@_KV<lambda_1>@?1??insert@01@QEAAAEAV01@0QEBD0@Z@_KPEBD3@Z
	??$_Reallocate_grow_by@V<lambda_1>@?1??push_back@?$basic_string@DU?$char_traits@D@std@@V?$allocator@D@2@@std@@QEAAXD@Z@D@?$basic_string@DU?$char_traits@D@std@@V?$allocator@D@2@@std@@AEAAAEAV01@_KV<lambda_1>@?1??push_back@01@QEAAXD@Z@D@Z
	??$_Reallocate_grow_by@V<lambda_1>@?1??replace@?$basic_string@DU?$char_traits@D@std@@V?$allocator@D@2@@std@@QEAAAEAV34@_K_KQEBD0@Z@_K_KPEBD_K@?$basic_string@DU?$char_traits@D@std@@V?$allocator@D@2@@std@@AEAAAEAV01@_KV<lambda_1>@?1??replace@01@QEAAAEAV01@0_KQEBD0@Z@11PEBD1@Z
	??$_Reallocate_grow_by@V<lambda_1>@?L@??reserve@?$basic_string@DU?$char_traits@D@std@@V?$allocator@D@2@@std@@QEAAX_K@Z@$$V@?$basic_string@DU?$char_traits@D@std@@V?$allocator@D@2@@std@@AEAAAEAV01@_KV<lambda_1>@?L@??reserve@01@QEAAX0@Z@@Z
	??$_Refancy@PEAD$0A@@std@@YAPEADPEAD@Z
	??$_Refancy@PEBD$0A@@std@@YAPEBDPEBD@Z
	??$_Refancy_maybe_null@PEAN$0A@@std@@YAPEANPEAN@Z
	??$_Refancy_maybe_null@PEAUListenerDescription@Catch@@$0A@@std@@YAPEAUListenerDescription@Catch@@PEAU12@@Z
	??$_Refancy_maybe_null@PEAUMessageInfo@Catch@@$0A@@std@@YAPEAUMessageInfo@Catch@@PEAU12@@Z
	??$_Refancy_maybe_null@PEAUReporterDescription@Catch@@$0A@@std@@YAPEAUReporterDescription@Catch@@PEAU12@@Z
	??$_Refancy_maybe_null@PEAUTag@Catch@@$0A@@std@@YAPEAUTag@Catch@@PEAU12@@Z
	??$_Refancy_maybe_null@PEAV?$unique_ptr@USectionNode@CumulativeReporterBase@Catch@@@Detail@Catch@@$0A@@std@@YAPEAV?$unique_ptr@USectionNode@CumulativeReporterBase@Catch@@@Detail@Catch@@PEAV123@@Z
	??$_Refancy_maybe_null@PEAV?$unique_ptr@VITracker@TestCaseTracking@Catch@@@Detail@Catch@@$0A@@std@@YAPEAV?$unique_ptr@VITracker@TestCaseTracking@Catch@@@Detail@Catch@@PEAV123@@Z
	??$_Refancy_maybe_null@PEAVStringRef@Catch@@$0A@@std@@YAPEAVStringRef@Catch@@PEAV12@@Z
	??$_Regex_match1@PEBDV?$allocator@V?$sub_match@PEBD@std@@@std@@DV?$regex_traits@D@2@PEBD@std@@YA_NPEBD0PEAV?$match_results@PEBDV?$allocator@V?$sub_match@PEBD@std@@@std@@@0@AEBV?$basic_regex@DV?$regex_traits@D@std@@@0@W4match_flag_type@regex_constants@0@_N@Z
	??$_Reset@PEBD@?$basic_regex@DV?$regex_traits@D@std@@@std@@AEAAXPEBD0W4syntax_option_type@regex_constants@1@@Z
	??$_Reset@V<lambda_1>@?1??_MakeVoidToUnitFunc@details@Concurrency@@YA?AV?$function@$$A6AEXZ@std@@AEBV?$function@$$A6AXXZ@6@@Z@@?$_Func_class@E$$V@std@@IEAAX$$QEAV<lambda_1>@?1??_MakeVoidToUnitFunc@details@Concurrency@@YA?AV?$function@$$A6AEXZ@1@AEBV?$function@$$A6AXXZ@1@@Z@@Z
	??$_Reset@V<lambda_1>@?4??_ScheduleContinuationTask@_Task_impl_base@details@Concurrency@@QEAAXPEAU_ContinuationTaskHandleBase@45@@Z@@?$_Func_class@X$$V@std@@IEAAX$$QEAV<lambda_1>@?4??_ScheduleContinuationTask@_Task_impl_base@details@Concurrency@@QEAAXPEAU_ContinuationTaskHandleBase@56@@Z@@Z
	??$_Reset@V<lambda_1>@?7???R1?4??_ScheduleContinuationTask@_Task_impl_base@details@Concurrency@@QEAAXPEAU_ContinuationTaskHandleBase@45@@Z@QEBA@XZ@@?$_Func_class@X$$V@std@@IEAAX$$QEAV<lambda_1>@?7???R2?4??_ScheduleContinuationTask@_Task_impl_base@details@Concurrency@@QEAAXPEAU_ContinuationTaskHandleBase@56@@Z@QEBA@XZ@@Z
	??$_Reset@V<lambda_1>@?CC@??_CancelAndRunContinuations@?$_Task_impl@E@details@Concurrency@@UEAA_N_N00AEBV?$shared_ptr@U_ExceptionHolder@details@Concurrency@@@std@@@Z@@?$_Func_class@X$$V@std@@IEAAX$$QEAV<lambda_1>@?CC@??_CancelAndRunContinuations@?$_Task_impl@E@details@Concurrency@@UEAA_N_N00AEBV?$shared_ptr@U_ExceptionHolder@details@Concurrency@@@1@@Z@@Z
	??$_Resize@I@?$vector@IV?$allocator@I@std@@@std@@AEAAX_KAEBI@Z
	??$_Resize@U_Value_init_tag@std@@@?$vector@PEAXV?$allocator@PEAX@std@@@std@@AEAAX_KAEBU_Value_init_tag@1@@Z
	??$_Resize@U_Value_init_tag@std@@@?$vector@U_Grp_t@?$_Tgt_state_t@PEBD@std@@V?$allocator@U_Grp_t@?$_Tgt_state_t@PEBD@std@@@3@@std@@AEAAX_KAEBU_Value_init_tag@1@@Z
	??$_Resize@U_Value_init_tag@std@@@?$vector@U_Loop_vals_t@std@@V?$allocator@U_Loop_vals_t@std@@@2@@std@@AEAAX_KAEBU_Value_init_tag@1@@Z
	??$_Resize@U_Value_init_tag@std@@@?$vector@V?$sub_match@PEBD@std@@V?$allocator@V?$sub_match@PEBD@std@@@2@@std@@AEAAX_KAEBU_Value_init_tag@1@@Z
	??$_Resize_reallocate@I@?$vector@IV?$allocator@I@std@@@std@@AEAAX_KAEBI@Z
	??$_Resize_reallocate@U_Value_init_tag@std@@@?$vector@PEAXV?$allocator@PEAX@std@@@std@@AEAAX_KAEBU_Value_init_tag@1@@Z
	??$_Resize_reallocate@U_Value_init_tag@std@@@?$vector@U_Grp_t@?$_Tgt_state_t@PEBD@std@@V?$allocator@U_Grp_t@?$_Tgt_state_t@PEBD@std@@@3@@std@@AEAAX_KAEBU_Value_init_tag@1@@Z
	??$_Resize_reallocate@U_Value_init_tag@std@@@?$vector@U_Loop_vals_t@std@@V?$allocator@U_Loop_vals_t@std@@@2@@std@@AEAAX_KAEBU_Value_init_tag@1@@Z
	??$_Resize_reallocate@U_Value_init_tag@std@@@?$vector@V?$sub_match@PEBD@std@@V?$allocator@V?$sub_match@PEBD@std@@@2@@std@@AEAAX_KAEBU_Value_init_tag@1@@Z
	??$_Seek_wrapped@PEAPEADPEAPEAD@std@@YAXAEAPEAPEAD$$QEAPEAPEAD@Z
	??$_Seek_wrapped@PEBDPEBD@std@@YAXAEAPEBD$$QEAPEBD@Z
	??$_Seek_wrapped@V?$_Vb_iterator@U?$_Wrap_alloc@V?$allocator@I@std@@@std@@@std@@V12@@std@@YAXAEAV?$_Vb_iterator@U?$_Wrap_alloc@V?$allocator@I@std@@@std@@@0@$$QEAV10@@Z
	??$_Seek_wrapped@V?$_Vector_const_iterator@V?$_Vector_val@U?$_Simple_types@UListenerDescription@Catch@@@std@@@std@@@std@@PEBUListenerDescription@Catch@@@std@@YAXAEAV?$_Vector_const_iterator@V?$_Vector_val@U?$_Simple_types@UListenerDescription@Catch@@@std@@@std@@@0@$$QEAPEBUListenerDescription@Catch@@@Z
	??$_Seek_wrapped@V?$_Vector_const_iterator@V?$_Vector_val@U?$_Simple_types@UReporterDescription@Catch@@@std@@@std@@@std@@PEBUReporterDescription@Catch@@@std@@YAXAEAV?$_Vector_const_iterator@V?$_Vector_val@U?$_Simple_types@UReporterDescription@Catch@@@std@@@std@@@0@$$QEAPEBUReporterDescription@Catch@@@Z
	??$_Seek_wrapped@V?$_Vector_const_iterator@V?$_Vector_val@U?$_Simple_types@UTag@Catch@@@std@@@std@@@std@@AEAPEBUTag@Catch@@@std@@YAXAEAV?$_Vector_const_iterator@V?$_Vector_val@U?$_Simple_types@UTag@Catch@@@std@@@std@@@0@AEAPEBUTag@Catch@@@Z
	??$_Seek_wrapped@V?$_Vector_const_iterator@V?$_Vector_val@U?$_Simple_types@UTag@Catch@@@std@@@std@@@std@@PEBUTag@Catch@@@std@@YAXAEAV?$_Vector_const_iterator@V?$_Vector_val@U?$_Simple_types@UTag@Catch@@@std@@@std@@@0@$$QEAPEBUTag@Catch@@@Z
	??$_Seek_wrapped@V?$_Vector_const_iterator@V?$_Vector_val@U?$_Simple_types@VStringRef@Catch@@@std@@@std@@@std@@PEBVStringRef@Catch@@@std@@YAXAEAV?$_Vector_const_iterator@V?$_Vector_val@U?$_Simple_types@VStringRef@Catch@@@std@@@std@@@0@$$QEAPEBVStringRef@Catch@@@Z
	??$_Seek_wrapped@V?$_Vector_iterator@V?$_Vector_val@U?$_Simple_types@N@std@@@std@@@std@@PEAN@std@@YAXAEAV?$_Vector_iterator@V?$_Vector_val@U?$_Simple_types@N@std@@@std@@@0@$$QEAPEAN@Z
	??$_Seek_wrapped@V?$_Vector_iterator@V?$_Vector_val@U?$_Simple_types@UMessageInfo@Catch@@@std@@@std@@@std@@AEAPEAUMessageInfo@Catch@@@std@@YAXAEAV?$_Vector_iterator@V?$_Vector_val@U?$_Simple_types@UMessageInfo@Catch@@@std@@@std@@@0@AEAPEAUMessageInfo@Catch@@@Z
	??$_Seek_wrapped@V?$_Vector_iterator@V?$_Vector_val@U?$_Simple_types@UTag@Catch@@@std@@@std@@@std@@AEAPEAUTag@Catch@@@std@@YAXAEAV?$_Vector_iterator@V?$_Vector_val@U?$_Simple_types@UTag@Catch@@@std@@@std@@@0@AEAPEAUTag@Catch@@@Z
	??$_Seek_wrapped@V?$_Vector_iterator@V?$_Vector_val@U?$_Simple_types@UTag@Catch@@@std@@@std@@@std@@AEBQEAUTag@Catch@@@std@@YAXAEAV?$_Vector_iterator@V?$_Vector_val@U?$_Simple_types@UTag@Catch@@@std@@@std@@@0@AEBQEAUTag@Catch@@@Z
	??$_Seek_wrapped@V?$_Vector_iterator@V?$_Vector_val@U?$_Simple_types@V?$unique_ptr@USectionNode@CumulativeReporterBase@Catch@@@Detail@Catch@@@std@@@std@@@std@@AEAPEAV?$unique_ptr@USectionNode@CumulativeReporterBase@Catch@@@Detail@Catch@@@std@@YAXAEAV?$_Vector_iterator@V?$_Vector_val@U?$_Simple_types@V?$unique_ptr@USectionNode@CumulativeReporterBase@Catch@@@Detail@Catch@@@std@@@std@@@0@AEAPEAV?$unique_ptr@USectionNode@CumulativeReporterBase@Catch@@@Detail@Catch@@@Z
	??$_Seek_wrapped@V?$_Vector_iterator@V?$_Vector_val@U?$_Simple_types@V?$unique_ptr@VITracker@TestCaseTracking@Catch@@@Detail@Catch@@@std@@@std@@@std@@AEAPEAV?$unique_ptr@VITracker@TestCaseTracking@Catch@@@Detail@Catch@@@std@@YAXAEAV?$_Vector_iterator@V?$_Vector_val@U?$_Simple_types@V?$unique_ptr@VITracker@TestCaseTracking@Catch@@@Detail@Catch@@@std@@@std@@@0@AEAPEAV?$unique_ptr@VITracker@TestCaseTracking@Catch@@@Detail@Catch@@@Z
	??$_Seek_wrapped@V?$reverse_iterator@PEBD@std@@V12@@std@@YAXAEAV?$reverse_iterator@PEBD@0@$$QEAV10@@Z
	??$_Set_ptr_rep_and_enable_shared@U?$BoundValueRef@I@Detail@Clara@Catch@@@?$shared_ptr@U?$BoundValueRef@I@Detail@Clara@Catch@@@std@@AEAAXQEAU?$BoundValueRef@I@Detail@Clara@Catch@@QEAV_Ref_count_base@1@@Z
	??$_Set_ptr_rep_and_enable_shared@U?$BoundValueRef@N@Detail@Clara@Catch@@@?$shared_ptr@U?$BoundValueRef@N@Detail@Clara@Catch@@@std@@AEAAXQEAU?$BoundValueRef@N@Detail@Clara@Catch@@QEAV_Ref_count_base@1@@Z
	??$_Set_ptr_rep_and_enable_shared@U?$BoundValueRef@V?$basic_string@DU?$char_traits@D@std@@V?$allocator@D@2@@std@@@Detail@Clara@Catch@@@?$shared_ptr@U?$BoundValueRef@V?$basic_string@DU?$char_traits@D@std@@V?$allocator@D@2@@std@@@Detail@Clara@Catch@@@std@@AEAAXQEAU?$BoundValueRef@V?$basic_string@DU?$char_traits@D@std@@V?$allocator@D@2@@std@@@Detail@Clara@Catch@@QEAV_Ref_count_base@1@@Z
	??$_Set_ptr_rep_and_enable_shared@U?$BoundValueRef@V?$vector@V?$basic_string@DU?$char_traits@D@std@@V?$allocator@D@2@@std@@V?$allocator@V?$basic_string@DU?$char_traits@D@std@@V?$allocator@D@2@@std@@@2@@std@@@Detail@Clara@Catch@@@?$shared_ptr@U?$BoundValueRef@V?$vector@V?$basic_string@DU?$char_traits@D@std@@V?$allocator@D@2@@std@@V?$allocator@V?$basic_string@DU?$char_traits@D@std@@V?$allocator@D@2@@std@@@2@@std@@@Detail@Clara@Catch@@@std@@AEAAXQEAU?$BoundValueRef@V?$vector@V?$basic_string@DU?$char_traits@D@std@@V?$allocator@D@2@@std@@V?$allocator@V?$basic_string@DU?$char_traits@D@std@@V?$allocator@D@2@@std@@@2@@std@@@Detail@Clara@Catch@@QEAV_Ref_count_base@1@@Z
	??$_Set_ptr_rep_and_enable_shared@U?$BoundValueRef@_J@Detail@Clara@Catch@@@?$shared_ptr@U?$BoundValueRef@_J@Detail@Clara@Catch@@@std@@AEAAXQEAU?$BoundValueRef@_J@Detail@Clara@Catch@@QEAV_Ref_count_base@1@@Z
	??$_Set_ptr_rep_and_enable_shared@U?$_Task_impl@E@details@Concurrency@@@?$shared_ptr@U?$_Task_impl@E@details@Concurrency@@@std@@AEAAXQEAU?$_Task_impl@E@details@Concurrency@@QEAV_Ref_count_base@1@@Z
	??$_Set_ptr_rep_and_enable_shared@UBoundFlagRef@Detail@Clara@Catch@@@?$shared_ptr@UBoundFlagRef@Detail@Clara@Catch@@@std@@AEAAXQEAUBoundFlagRef@Detail@Clara@Catch@@QEAV_Ref_count_base@1@@Z
	??$_Set_ptr_rep_and_enable_shared@U_ExceptionHolder@details@Concurrency@@@?$shared_ptr@U_ExceptionHolder@details@Concurrency@@@std@@AEAAXQEAU_ExceptionHolder@details@Concurrency@@QEAV_Ref_count_base@1@@Z
	??$_Set_ptr_rep_and_enable_shared@V?$basic_string@DU?$char_traits@D@std@@V?$allocator@D@2@@std@@@?$shared_ptr@V?$basic_string@DU?$char_traits@D@std@@V?$allocator@D@2@@std@@@std@@AEAAXQEAV?$basic_string@DU?$char_traits@D@std@@V?$allocator@D@2@@1@QEAV_Ref_count_base@1@@Z
	??$_Sort_heap_unchecked@PEANU?$less@X@std@@@std@@YAXPEAN0U?$less@X@0@@Z
	??$_Sort_heap_unchecked@PEAUTag@Catch@@U?$less@X@std@@@std@@YAXPEAUTag@Catch@@0U?$less@X@0@@Z
	??$_Sort_unchecked@PEANU?$less@X@std@@@std@@YAXPEAN0_JU?$less@X@0@@Z
	??$_Sort_unchecked@PEAUTag@Catch@@U?$less@X@std@@@std@@YAXPEAUTag@Catch@@0_JU?$less@X@0@@Z
	??$_Test_callable@V<lambda_1>@?1??_MakeVoidToUnitFunc@details@Concurrency@@YA?AV?$function@$$A6AEXZ@std@@AEBV?$function@$$A6AXXZ@6@@Z@@std@@YA_NAEBV<lambda_1>@?1??_MakeVoidToUnitFunc@details@Concurrency@@YA?AV?$function@$$A6AEXZ@0@AEBV?$function@$$A6AXXZ@0@@Z@@Z
	??$_Test_callable@V<lambda_1>@?4??_ScheduleContinuationTask@_Task_impl_base@details@Concurrency@@QEAAXPEAU_ContinuationTaskHandleBase@45@@Z@@std@@YA_NAEBV<lambda_1>@?4??_ScheduleContinuationTask@_Task_impl_base@details@Concurrency@@QEAAXPEAU_ContinuationTaskHandleBase@45@@Z@@Z
	??$_Test_callable@V<lambda_1>@?7???R1?4??_ScheduleContinuationTask@_Task_impl_base@details@Concurrency@@QEAAXPEAU_ContinuationTaskHandleBase@45@@Z@QEBA@XZ@@std@@YA_NAEBV<lambda_1>@?7???R1?4??_ScheduleContinuationTask@_Task_impl_base@details@Concurrency@@QEAAXPEAU_ContinuationTaskHandleBase@45@@Z@QEBA@XZ@@Z
	??$_Test_callable@V<lambda_1>@?CC@??_CancelAndRunContinuations@?$_Task_impl@E@details@Concurrency@@UEAA_N_N00AEBV?$shared_ptr@U_ExceptionHolder@details@Concurrency@@@std@@@Z@@std@@YA_NAEBV<lambda_1>@?CC@??_CancelAndRunContinuations@?$_Task_impl@E@details@Concurrency@@UEAA_N_N00AEBV?$shared_ptr@U_ExceptionHolder@details@Concurrency@@@0@@Z@@Z
	??$_To_address@PEAD@std@@YA?A_PAEBQEAD@Z
	??$_To_address@PEAI@std@@YA?A_PAEBQEAI@Z
	??$_To_address@PEAN@std@@YA?A_PAEBQEAN@Z
	??$_To_address@PEAPEAD@std@@YA?A_PAEBQEAPEAD@Z
	??$_To_address@PEAPEAUISingleton@Catch@@@std@@YA?A_PAEBQEAPEAUISingleton@Catch@@@Z
	??$_To_address@PEAPEAUSectionNode@CumulativeReporterBase@Catch@@@std@@YA?A_PAEBQEAPEAUSectionNode@CumulativeReporterBase@Catch@@@Z
	??$_To_address@PEAPEAUTestCaseInfo@Catch@@@std@@YA?A_PAEBQEAPEAUTestCaseInfo@Catch@@@Z
	??$_To_address@PEAPEAVITracker@TestCaseTracking@Catch@@@std@@YA?A_PAEBQEAPEAVITracker@TestCaseTracking@Catch@@@Z
	??$_To_address@PEAPEAX@std@@YA?A_PAEBQEAPEAX@Z
	??$_To_address@PEAPEBU?$Node@UTestCaseStats@Catch@@USectionNode@CumulativeReporterBase@2@@CumulativeReporterBase@Catch@@@std@@YA?A_PAEBQEAPEBU?$Node@UTestCaseStats@Catch@@USectionNode@CumulativeReporterBase@2@@CumulativeReporterBase@Catch@@@Z
	??$_To_address@PEAPEBVTestCaseHandle@Catch@@@std@@YA?A_PAEBQEAPEBVTestCaseHandle@Catch@@@Z
	??$_To_address@PEAU?$pair@HVStringRef@Catch@@@std@@@std@@YA?A_PAEBQEAU?$pair@HVStringRef@Catch@@@0@@Z
	??$_To_address@PEAU?$pair@_KVTestCaseHandle@Catch@@@std@@@std@@YA?A_PAEBQEAU?$pair@_KVTestCaseHandle@Catch@@@0@@Z
	??$_To_address@PEAUTag@Catch@@@std@@YA?A_PAEBQEAUTag@Catch@@@Z
	??$_To_address@PEAU_Grp_t@?$_Tgt_state_t@PEBD@std@@@std@@YA?A_PAEBQEAU_Grp_t@?$_Tgt_state_t@PEBD@0@@Z
	??$_To_address@PEAU_Loop_vals_t@std@@@std@@YA?A_PAEBQEAU_Loop_vals_t@0@@Z
	??$_To_address@PEAV?$duration@NU?$ratio@$00$0DLJKMKAA@@std@@@chrono@std@@@std@@YA?A_PAEBQEAV?$duration@NU?$ratio@$00$0DLJKMKAA@@std@@@chrono@0@@Z
	??$_To_address@PEAV?$sub_match@PEBD@std@@@std@@YA?A_PAEBQEAV?$sub_match@PEBD@0@@Z
	??$_To_address@PEAVStringRef@Catch@@@std@@YA?A_PAEBQEAVStringRef@Catch@@@Z
	??$_To_address@PEAVTestCaseHandle@Catch@@@std@@YA?A_PAEBQEAVTestCaseHandle@Catch@@@Z
	??$_To_address@PEAVconst_iterator@Column@TextFlow@Catch@@@std@@YA?A_PAEBQEAVconst_iterator@Column@TextFlow@Catch@@@Z
	??$_To_address@PEA_K@std@@YA?A_PAEBQEA_K@Z
	??$_To_address@PEBD@std@@YA?A_PAEBQEBD@Z
	??$_To_address@PEBN@std@@YA?A_PAEBQEBN@Z
	??$_To_address@PEBVStringRef@Catch@@@std@@YA?A_PAEBQEBVStringRef@Catch@@@Z
	??$_To_address@PEBVTestCaseHandle@Catch@@@std@@YA?A_PAEBQEBVTestCaseHandle@Catch@@@Z
	??$_Traits_compare@U?$char_traits@D@std@@@std@@YAHQEBD_K01@Z
	??$_Traits_equal@U?$char_traits@D@std@@@std@@YA_NQEBD_K01@Z
	??$_Traits_find@U?$char_traits@D@std@@@std@@YA_KQEBD_K101@Z
	??$_Traits_find_ch@U?$char_traits@D@std@@@std@@YA_KQEBD_K1D@Z
	??$_Traits_find_first_not_of@U?$char_traits@D@std@@$00@std@@YA_KQEBD_K101@Z
	??$_Traits_find_first_not_of@U?$char_traits@D@std@@$0A@@std@@YA_KQEBD_K101@Z
	??$_Traits_find_first_of@U?$char_traits@D@std@@$00@std@@YA_KQEBD_K101@Z
	??$_Traits_find_first_of@U?$char_traits@D@std@@$0A@@std@@YA_KQEBD_K101@Z
	??$_Traits_find_last_not_of@U?$char_traits@D@std@@$00@std@@YA_KQEBD_K101@Z
	??$_Traits_find_last_not_of@U?$char_traits@D@std@@$0A@@std@@YA_KQEBD_K101@Z
	??$_Traits_find_last_of@U?$char_traits@D@std@@$00@std@@YA_KQEBD_K101@Z
	??$_Traits_find_last_of@U?$char_traits@D@std@@$0A@@std@@YA_KQEBD_K101@Z
	??$_Traits_rfind_not_ch@U?$char_traits@D@std@@@std@@YA_KQEBD_K1D@Z
	??$_Try_emplace@V?$basic_string@DU?$char_traits@D@std@@V?$allocator@D@2@@std@@$$V@?$map@V?$basic_string@DU?$char_traits@D@std@@V?$allocator@D@2@@std@@V?$unique_ptr@VIReporterFactory@Catch@@@Detail@Catch@@UCaseInsensitiveLess@45@V?$allocator@U?$pair@$$CBV?$basic_string@DU?$char_traits@D@std@@V?$allocator@D@2@@std@@V?$unique_ptr@VIReporterFactory@Catch@@@Detail@Catch@@@std@@@2@@std@@AEAA?AU?$pair@PEAU?$_Tree_node@U?$pair@$$CBV?$basic_string@DU?$char_traits@D@std@@V?$allocator@D@2@@std@@V?$unique_ptr@VIReporterFactory@Catch@@@Detail@Catch@@@std@@PEAX@std@@_N@1@$$QEAV?$basic_string@DU?$char_traits@D@std@@V?$allocator@D@2@@1@@Z
	??$_Try_emplace@VStringRef@Catch@@$$V@?$map@VStringRef@Catch@@V?$vector@PEBU?$Node@UTestCaseStats@Catch@@USectionNode@CumulativeReporterBase@2@@CumulativeReporterBase@Catch@@V?$allocator@PEBU?$Node@UTestCaseStats@Catch@@USectionNode@CumulativeReporterBase@2@@CumulativeReporterBase@Catch@@@std@@@std@@U?$less@VStringRef@Catch@@@4@V?$allocator@U?$pair@$$CBVStringRef@Catch@@V?$vector@PEBU?$Node@UTestCaseStats@Catch@@USectionNode@CumulativeReporterBase@2@@CumulativeReporterBase@Catch@@V?$allocator@PEBU?$Node@UTestCaseStats@Catch@@USectionNode@CumulativeReporterBase@2@@CumulativeReporterBase@Catch@@@std@@@std@@@std@@@4@@std@@AEAA?AU?$pair@PEAU?$_Tree_node@U?$pair@$$CBVStringRef@Catch@@V?$vector@PEBU?$Node@UTestCaseStats@Catch@@USectionNode@CumulativeReporterBase@2@@CumulativeReporterBase@Catch@@V?$allocator@PEBU?$Node@UTestCaseStats@Catch@@USectionNode@CumulativeReporterBase@2@@CumulativeReporterBase@Catch@@@std@@@std@@@std@@PEAX@std@@_N@1@$$QEAVStringRef@Catch@@@Z
	??$_Tuple_get@$0A@$$QEAV?$basic_string@DU?$char_traits@D@std@@V?$allocator@D@2@@std@@@std@@YA$$QEA_P$$QEAV?$tuple@$$QEAV?$basic_string@DU?$char_traits@D@std@@V?$allocator@D@2@@std@@@0@@Z
	??$_Tuple_get@$0A@$$QEAVStringRef@Catch@@@std@@YA$$QEA_P$$QEAV?$tuple@$$QEAVStringRef@Catch@@@0@@Z
	??$_UIntegral_to_buff@D_K@std@@YAPEADPEAD_K@Z
	??$_UIntegral_to_string@D_K@std@@YA?AV?$basic_string@DU?$char_traits@D@std@@V?$allocator@D@2@@0@_K@Z
	??$_Unchecked_popcount@_K@std@@YAH_K@Z
	??$_Unfancy@$$CBD@std@@YAPEBDPEBD@Z
	??$_Unfancy@D@std@@YAPEADPEAD@Z
	??$_Unfancy@I@std@@YAPEAIPEAI@Z
	??$_Unfancy@N@std@@YAPEANPEAN@Z
	??$_Unfancy@PEAUISingleton@Catch@@@std@@YAPEAPEAUISingleton@Catch@@PEAPEAU12@@Z
	??$_Unfancy@PEAUSectionNode@CumulativeReporterBase@Catch@@@std@@YAPEAPEAUSectionNode@CumulativeReporterBase@Catch@@PEAPEAU123@@Z
	??$_Unfancy@PEAUTestCaseInfo@Catch@@@std@@YAPEAPEAUTestCaseInfo@Catch@@PEAPEAU12@@Z
	??$_Unfancy@PEAVITracker@TestCaseTracking@Catch@@@std@@YAPEAPEAVITracker@TestCaseTracking@Catch@@PEAPEAV123@@Z
	??$_Unfancy@PEAX@std@@YAPEAPEAXPEAPEAX@Z
	??$_Unfancy@PEBU?$Node@UTestCaseStats@Catch@@USectionNode@CumulativeReporterBase@2@@CumulativeReporterBase@Catch@@@std@@YAPEAPEBU?$Node@UTestCaseStats@Catch@@USectionNode@CumulativeReporterBase@2@@CumulativeReporterBase@Catch@@PEAPEBU123@@Z
	??$_Unfancy@PEBVTestCaseHandle@Catch@@@std@@YAPEAPEBVTestCaseHandle@Catch@@PEAPEBV12@@Z
	??$_Unfancy@U?$pair@HVStringRef@Catch@@@std@@@std@@YAPEAU?$pair@HVStringRef@Catch@@@0@PEAU10@@Z
	??$_Unfancy@U?$pair@_KVTestCaseHandle@Catch@@@std@@@std@@YAPEAU?$pair@_KVTestCaseHandle@Catch@@@0@PEAU10@@Z
	??$_Unfancy@UFilter@TestSpec@Catch@@@std@@YAPEAUFilter@TestSpec@Catch@@PEAU123@@Z
	??$_Unfancy@UFilterMatch@TestSpec@Catch@@@std@@YAPEAUFilterMatch@TestSpec@Catch@@PEAU123@@Z
	??$_Unfancy@UHelpColumns@Detail@Clara@Catch@@@std@@YAPEAUHelpColumns@Detail@Clara@Catch@@PEAU1234@@Z
	??$_Unfancy@UListenerDescription@Catch@@@std@@YAPEAUListenerDescription@Catch@@PEAU12@@Z
	??$_Unfancy@UMessageInfo@Catch@@@std@@YAPEAUMessageInfo@Catch@@PEAU12@@Z
	??$_Unfancy@UProcessedReporterSpec@Catch@@@std@@YAPEAUProcessedReporterSpec@Catch@@PEAU12@@Z
	??$_Unfancy@UReporterDescription@Catch@@@std@@YAPEAUReporterDescription@Catch@@PEAU12@@Z
	??$_Unfancy@USectionEndInfo@Catch@@@std@@YAPEAUSectionEndInfo@Catch@@PEAU12@@Z
	??$_Unfancy@USectionInfo@Catch@@@std@@YAPEAUSectionInfo@Catch@@PEAU12@@Z
	??$_Unfancy@UTag@Catch@@@std@@YAPEAUTag@Catch@@PEAU12@@Z
	??$_Unfancy@UTagInfo@Catch@@@std@@YAPEAUTagInfo@Catch@@PEAU12@@Z
	??$_Unfancy@UToken@Detail@Clara@Catch@@@std@@YAPEAUToken@Detail@Clara@Catch@@PEAU1234@@Z
	??$_Unfancy@U_Container_proxy@std@@@std@@YAPEAU_Container_proxy@0@PEAU10@@Z
	??$_Unfancy@U_Grp_t@?$_Tgt_state_t@PEBD@std@@@std@@YAPEAU_Grp_t@?$_Tgt_state_t@PEBD@0@PEAU120@@Z
	??$_Unfancy@U_Loop_vals_t@std@@@std@@YAPEAU_Loop_vals_t@0@PEAU10@@Z
	??$_Unfancy@V?$basic_string@DU?$char_traits@D@std@@V?$allocator@D@2@@std@@@std@@YAPEAV?$basic_string@DU?$char_traits@D@std@@V?$allocator@D@2@@0@PEAV10@@Z
	??$_Unfancy@V?$duration@NU?$ratio@$00$0DLJKMKAA@@std@@@chrono@std@@@std@@YAPEAV?$duration@NU?$ratio@$00$0DLJKMKAA@@std@@@chrono@0@PEAV120@@Z
	??$_Unfancy@V?$sub_match@PEBD@std@@@std@@YAPEAV?$sub_match@PEBD@0@PEAV10@@Z
	??$_Unfancy@V?$unique_ptr@$$CBVIExceptionTranslator@Catch@@@Detail@Catch@@@std@@YAPEAV?$unique_ptr@$$CBVIExceptionTranslator@Catch@@@Detail@Catch@@PEAV123@@Z
	??$_Unfancy@V?$unique_ptr@U?$Node@UTestCaseStats@Catch@@USectionNode@CumulativeReporterBase@2@@CumulativeReporterBase@Catch@@@Detail@Catch@@@std@@YAPEAV?$unique_ptr@U?$Node@UTestCaseStats@Catch@@USectionNode@CumulativeReporterBase@2@@CumulativeReporterBase@Catch@@@Detail@Catch@@PEAV123@@Z
	??$_Unfancy@V?$unique_ptr@UEnumInfo@Detail@Catch@@@Detail@Catch@@@std@@YAPEAV?$unique_ptr@UEnumInfo@Detail@Catch@@@Detail@Catch@@PEAV123@@Z
	??$_Unfancy@V?$unique_ptr@USectionNode@CumulativeReporterBase@Catch@@@Detail@Catch@@@std@@YAPEAV?$unique_ptr@USectionNode@CumulativeReporterBase@Catch@@@Detail@Catch@@PEAV123@@Z
	??$_Unfancy@V?$unique_ptr@UTestCaseInfo@Catch@@@Detail@Catch@@@std@@YAPEAV?$unique_ptr@UTestCaseInfo@Catch@@@Detail@Catch@@PEAV123@@Z
	??$_Unfancy@V?$unique_ptr@V?$basic_ostringstream@DU?$char_traits@D@std@@V?$allocator@D@2@@std@@@Detail@Catch@@@std@@YAPEAV?$unique_ptr@V?$basic_ostringstream@DU?$char_traits@D@std@@V?$allocator@D@2@@std@@@Detail@Catch@@PEAV123@@Z
	??$_Unfancy@V?$unique_ptr@VEventListenerFactory@Catch@@@Detail@Catch@@@std@@YAPEAV?$unique_ptr@VEventListenerFactory@Catch@@@Detail@Catch@@PEAV123@@Z
	??$_Unfancy@V?$unique_ptr@VIEventListener@Catch@@@Detail@Catch@@@std@@YAPEAV?$unique_ptr@VIEventListener@Catch@@@Detail@Catch@@PEAV123@@Z
	??$_Unfancy@V?$unique_ptr@VITestInvoker@Catch@@@Detail@Catch@@@std@@YAPEAV?$unique_ptr@VITestInvoker@Catch@@@Detail@Catch@@PEAV123@@Z
	??$_Unfancy@V?$unique_ptr@VITracker@TestCaseTracking@Catch@@@Detail@Catch@@@std@@YAPEAV?$unique_ptr@VITracker@TestCaseTracking@Catch@@@Detail@Catch@@PEAV123@@Z
	??$_Unfancy@V?$unique_ptr@VPattern@TestSpec@Catch@@@Detail@Catch@@@std@@YAPEAV?$unique_ptr@VPattern@TestSpec@Catch@@@Detail@Catch@@PEAV123@@Z
	??$_Unfancy@VArg@Clara@Catch@@@std@@YAPEAVArg@Clara@Catch@@PEAV123@@Z
	??$_Unfancy@VAssertionOrBenchmarkResult@Detail@Catch@@@std@@YAPEAVAssertionOrBenchmarkResult@Detail@Catch@@PEAV123@@Z
	??$_Unfancy@VColumn@TextFlow@Catch@@@std@@YAPEAVColumn@TextFlow@Catch@@PEAV123@@Z
	??$_Unfancy@VOpt@Clara@Catch@@@std@@YAPEAVOpt@Clara@Catch@@PEAV123@@Z
	??$_Unfancy@VReporterSpec@Catch@@@std@@YAPEAVReporterSpec@Catch@@PEAV12@@Z
	??$_Unfancy@VScopedMessage@Catch@@@std@@YAPEAVScopedMessage@Catch@@PEAV12@@Z
	??$_Unfancy@VStringRef@Catch@@@std@@YAPEAVStringRef@Catch@@PEAV12@@Z
	??$_Unfancy@VTestCaseHandle@Catch@@@std@@YAPEAVTestCaseHandle@Catch@@PEAV12@@Z
	??$_Unfancy@Vconst_iterator@Column@TextFlow@Catch@@@std@@YAPEAVconst_iterator@Column@TextFlow@Catch@@PEAV1234@@Z
	??$_Unfancy@Vexception_ptr@std@@@std@@YAPEAVexception_ptr@0@PEAV10@@Z
	??$_Unfancy@_K@std@@YAPEA_KPEA_K@Z
	??$_Unfancy@_W@std@@YAPEA_WPEA_W@Z
	??$_Unfancy_maybe_null@$$CBD@std@@YAPEBDPEBD@Z
	??$_Unfancy_maybe_null@D@std@@YAPEADPEAD@Z
	??$_Unfancy_maybe_null@H@std@@YAPEAHPEAH@Z
	??$_Unfancy_maybe_null@I@std@@YAPEAIPEAI@Z
	??$_Unfancy_maybe_null@N@std@@YAPEANPEAN@Z
	??$_Unfancy_maybe_null@PEAUISingleton@Catch@@@std@@YAPEAPEAUISingleton@Catch@@PEAPEAU12@@Z
	??$_Unfancy_maybe_null@PEAUTestCaseInfo@Catch@@@std@@YAPEAPEAUTestCaseInfo@Catch@@PEAPEAU12@@Z
	??$_Unfancy_maybe_null@PEBU?$Node@UTestCaseStats@Catch@@USectionNode@CumulativeReporterBase@2@@CumulativeReporterBase@Catch@@@std@@YAPEAPEBU?$Node@UTestCaseStats@Catch@@USectionNode@CumulativeReporterBase@2@@CumulativeReporterBase@Catch@@PEAPEBU123@@Z
	??$_Unfancy_maybe_null@PEBVTestCaseHandle@Catch@@@std@@YAPEAPEBVTestCaseHandle@Catch@@PEAPEBV12@@Z
	??$_Unfancy_maybe_null@U?$pair@HVStringRef@Catch@@@std@@@std@@YAPEAU?$pair@HVStringRef@Catch@@@0@PEAU10@@Z
	??$_Unfancy_maybe_null@U?$pair@_KVTestCaseHandle@Catch@@@std@@@std@@YAPEAU?$pair@_KVTestCaseHandle@Catch@@@0@PEAU10@@Z
	??$_Unfancy_maybe_null@UFilter@TestSpec@Catch@@@std@@YAPEAUFilter@TestSpec@Catch@@PEAU123@@Z
	??$_Unfancy_maybe_null@UFilterMatch@TestSpec@Catch@@@std@@YAPEAUFilterMatch@TestSpec@Catch@@PEAU123@@Z
	??$_Unfancy_maybe_null@UHelpColumns@Detail@Clara@Catch@@@std@@YAPEAUHelpColumns@Detail@Clara@Catch@@PEAU1234@@Z
	??$_Unfancy_maybe_null@UListenerDescription@Catch@@@std@@YAPEAUListenerDescription@Catch@@PEAU12@@Z
	??$_Unfancy_maybe_null@UMessageInfo@Catch@@@std@@YAPEAUMessageInfo@Catch@@PEAU12@@Z
	??$_Unfancy_maybe_null@UProcessedReporterSpec@Catch@@@std@@YAPEAUProcessedReporterSpec@Catch@@PEAU12@@Z
	??$_Unfancy_maybe_null@UReporterDescription@Catch@@@std@@YAPEAUReporterDescription@Catch@@PEAU12@@Z
	??$_Unfancy_maybe_null@UTag@Catch@@@std@@YAPEAUTag@Catch@@PEAU12@@Z
	??$_Unfancy_maybe_null@UTagInfo@Catch@@@std@@YAPEAUTagInfo@Catch@@PEAU12@@Z
	??$_Unfancy_maybe_null@V?$basic_string@DU?$char_traits@D@std@@V?$allocator@D@2@@std@@@std@@YAPEAV?$basic_string@DU?$char_traits@D@std@@V?$allocator@D@2@@0@PEAV10@@Z
	??$_Unfancy_maybe_null@V?$unique_ptr@U?$Node@UTestCaseStats@Catch@@USectionNode@CumulativeReporterBase@2@@CumulativeReporterBase@Catch@@@Detail@Catch@@@std@@YAPEAV?$unique_ptr@U?$Node@UTestCaseStats@Catch@@USectionNode@CumulativeReporterBase@2@@CumulativeReporterBase@Catch@@@Detail@Catch@@PEAV123@@Z
	??$_Unfancy_maybe_null@V?$unique_ptr@USectionNode@CumulativeReporterBase@Catch@@@Detail@Catch@@@std@@YAPEAV?$unique_ptr@USectionNode@CumulativeReporterBase@Catch@@@Detail@Catch@@PEAV123@@Z
	??$_Unfancy_maybe_null@V?$unique_ptr@VEventListenerFactory@Catch@@@Detail@Catch@@@std@@YAPEAV?$unique_ptr@VEventListenerFactory@Catch@@@Detail@Catch@@PEAV123@@Z
	??$_Unfancy_maybe_null@V?$unique_ptr@VIEventListener@Catch@@@Detail@Catch@@@std@@YAPEAV?$unique_ptr@VIEventListener@Catch@@@Detail@Catch@@PEAV123@@Z
	??$_Unfancy_maybe_null@V?$unique_ptr@VITracker@TestCaseTracking@Catch@@@Detail@Catch@@@std@@YAPEAV?$unique_ptr@VITracker@TestCaseTracking@Catch@@@Detail@Catch@@PEAV123@@Z
	??$_Unfancy_maybe_null@V?$unique_ptr@VPattern@TestSpec@Catch@@@Detail@Catch@@@std@@YAPEAV?$unique_ptr@VPattern@TestSpec@Catch@@@Detail@Catch@@PEAV123@@Z
	??$_Unfancy_maybe_null@VArg@Clara@Catch@@@std@@YAPEAVArg@Clara@Catch@@PEAV123@@Z
	??$_Unfancy_maybe_null@VAssertionOrBenchmarkResult@Detail@Catch@@@std@@YAPEAVAssertionOrBenchmarkResult@Detail@Catch@@PEAV123@@Z
	??$_Unfancy_maybe_null@VColumn@TextFlow@Catch@@@std@@YAPEAVColumn@TextFlow@Catch@@PEAV123@@Z
	??$_Unfancy_maybe_null@VOpt@Clara@Catch@@@std@@YAPEAVOpt@Clara@Catch@@PEAV123@@Z
	??$_Unfancy_maybe_null@VReporterSpec@Catch@@@std@@YAPEAVReporterSpec@Catch@@PEAV12@@Z
	??$_Unfancy_maybe_null@VStringRef@Catch@@@std@@YAPEAVStringRef@Catch@@PEAV12@@Z
	??$_Unfancy_maybe_null@VTestCaseHandle@Catch@@@std@@YAPEAVTestCaseHandle@Catch@@PEAV12@@Z
	??$_Unfancy_maybe_null@Vconst_iterator@Column@TextFlow@Catch@@@std@@YAPEAVconst_iterator@Column@TextFlow@Catch@@PEAV1234@@Z
	??$_Unfancy_maybe_null@Vexception_ptr@std@@@std@@YAPEAVexception_ptr@0@PEAV10@@Z
	??$_Ungetc@D@std@@YA_NAEBDPEAU_iobuf@@@Z
	??$_Uninitialized_copy@PEADPEADV?$allocator@D@std@@@std@@YAPEADPEAD00AEAV?$allocator@D@0@@Z
	??$_Uninitialized_copy@PEAIPEAIV?$allocator@I@std@@@std@@YAPEAIPEAI00AEAV?$allocator@I@0@@Z
	??$_Uninitialized_copy@PEAPEAXPEAPEAXV?$allocator@PEAX@std@@@std@@YAPEAPEAXPEAPEAX00AEAV?$allocator@PEAX@0@@Z
	??$_Uninitialized_copy@PEAPEBVTestCaseHandle@Catch@@PEAPEBV12@V?$allocator@PEBVTestCaseHandle@Catch@@@std@@@std@@YAPEAPEBVTestCaseHandle@Catch@@PEAPEBV12@00AEAV?$allocator@PEBVTestCaseHandle@Catch@@@0@@Z
	??$_Uninitialized_copy@PEAUMessageInfo@Catch@@PEAU12@V?$allocator@UMessageInfo@Catch@@@std@@@std@@YAPEAUMessageInfo@Catch@@PEAU12@00AEAV?$allocator@UMessageInfo@Catch@@@0@@Z
	??$_Uninitialized_copy@PEAUProcessedReporterSpec@Catch@@PEAU12@V?$allocator@UProcessedReporterSpec@Catch@@@std@@@std@@YAPEAUProcessedReporterSpec@Catch@@PEAU12@00AEAV?$allocator@UProcessedReporterSpec@Catch@@@0@@Z
	??$_Uninitialized_copy@PEAUTagInfo@Catch@@PEAU12@V?$allocator@UTagInfo@Catch@@@std@@@std@@YAPEAUTagInfo@Catch@@PEAU12@00AEAV?$allocator@UTagInfo@Catch@@@0@@Z
	??$_Uninitialized_copy@PEAUToken@Detail@Clara@Catch@@PEAU1234@V?$allocator@UToken@Detail@Clara@Catch@@@std@@@std@@YAPEAUToken@Detail@Clara@Catch@@PEAU1234@00AEAV?$allocator@UToken@Detail@Clara@Catch@@@0@@Z
	??$_Uninitialized_copy@PEAU_Grp_t@?$_Tgt_state_t@PEBD@std@@PEAU123@V?$allocator@U_Grp_t@?$_Tgt_state_t@PEBD@std@@@3@@std@@YAPEAU_Grp_t@?$_Tgt_state_t@PEBD@0@PEAU120@00AEAV?$allocator@U_Grp_t@?$_Tgt_state_t@PEBD@std@@@0@@Z
	??$_Uninitialized_copy@PEAV?$basic_string@DU?$char_traits@D@std@@V?$allocator@D@2@@std@@PEAV12@V?$allocator@V?$basic_string@DU?$char_traits@D@std@@V?$allocator@D@2@@std@@@2@@std@@YAPEAV?$basic_string@DU?$char_traits@D@std@@V?$allocator@D@2@@0@PEAV10@00AEAV?$allocator@V?$basic_string@DU?$char_traits@D@std@@V?$allocator@D@2@@std@@@0@@Z
	??$_Uninitialized_copy@PEAV?$duration@NU?$ratio@$00$0DLJKMKAA@@std@@@chrono@std@@PEAV123@V?$allocator@V?$duration@NU?$ratio@$00$0DLJKMKAA@@std@@@chrono@std@@@3@@std@@YAPEAV?$duration@NU?$ratio@$00$0DLJKMKAA@@std@@@chrono@0@PEAV120@00AEAV?$allocator@V?$duration@NU?$ratio@$00$0DLJKMKAA@@std@@@chrono@std@@@0@@Z
	??$_Uninitialized_copy@PEAVArg@Clara@Catch@@PEAV123@V?$allocator@VArg@Clara@Catch@@@std@@@std@@YAPEAVArg@Clara@Catch@@PEAV123@00AEAV?$allocator@VArg@Clara@Catch@@@0@@Z
	??$_Uninitialized_copy@PEAVAssertionOrBenchmarkResult@Detail@Catch@@PEAV123@V?$allocator@VAssertionOrBenchmarkResult@Detail@Catch@@@std@@@std@@YAPEAVAssertionOrBenchmarkResult@Detail@Catch@@PEAV123@00AEAV?$allocator@VAssertionOrBenchmarkResult@Detail@Catch@@@0@@Z
	??$_Uninitialized_copy@PEAVColumn@TextFlow@Catch@@PEAV123@V?$allocator@VColumn@TextFlow@Catch@@@std@@@std@@YAPEAVColumn@TextFlow@Catch@@PEAV123@00AEAV?$allocator@VColumn@TextFlow@Catch@@@0@@Z
	??$_Uninitialized_copy@PEAVOpt@Clara@Catch@@PEAV123@V?$allocator@VOpt@Clara@Catch@@@std@@@std@@YAPEAVOpt@Clara@Catch@@PEAV123@00AEAV?$allocator@VOpt@Clara@Catch@@@0@@Z
	??$_Uninitialized_copy@PEAVReporterSpec@Catch@@PEAV12@V?$allocator@VReporterSpec@Catch@@@std@@@std@@YAPEAVReporterSpec@Catch@@PEAV12@00AEAV?$allocator@VReporterSpec@Catch@@@0@@Z
	??$_Uninitialized_copy@PEAVTestCaseHandle@Catch@@PEAV12@V?$allocator@VTestCaseHandle@Catch@@@std@@@std@@YAPEAVTestCaseHandle@Catch@@PEAV12@00AEAV?$allocator@VTestCaseHandle@Catch@@@0@@Z
	??$_Uninitialized_copy@PEAVconst_iterator@Column@TextFlow@Catch@@PEAV1234@V?$allocator@Vconst_iterator@Column@TextFlow@Catch@@@std@@@std@@YAPEAVconst_iterator@Column@TextFlow@Catch@@PEAV1234@00AEAV?$allocator@Vconst_iterator@Column@TextFlow@Catch@@@0@@Z
	??$_Uninitialized_copy@PEBDPEBDV?$allocator@D@std@@@std@@YAPEADPEBD0PEADAEAV?$allocator@D@0@@Z
	??$_Uninitialized_copy@PEBNPEBNV?$allocator@N@std@@@std@@YAPEANPEBN0PEANAEAV?$allocator@N@0@@Z
	??$_Uninitialized_copy@PEBQEBDPEBQEBDV?$allocator@V?$basic_string@DU?$char_traits@D@std@@V?$allocator@D@2@@std@@@std@@@std@@YAPEAV?$basic_string@DU?$char_traits@D@std@@V?$allocator@D@2@@0@PEBQEBD0PEAV10@AEAV?$allocator@V?$basic_string@DU?$char_traits@D@std@@V?$allocator@D@2@@std@@@0@@Z
	??$_Uninitialized_copy@PEBUHelpColumns@Detail@Clara@Catch@@PEBU1234@V?$allocator@UHelpColumns@Detail@Clara@Catch@@@std@@@std@@YAPEAUHelpColumns@Detail@Clara@Catch@@PEBU1234@0PEAU1234@AEAV?$allocator@UHelpColumns@Detail@Clara@Catch@@@0@@Z
	??$_Uninitialized_copy@PEBV?$basic_string@DU?$char_traits@D@std@@V?$allocator@D@2@@std@@PEBV12@V?$allocator@V?$basic_string@DU?$char_traits@D@std@@V?$allocator@D@2@@std@@@2@@std@@YAPEAV?$basic_string@DU?$char_traits@D@std@@V?$allocator@D@2@@0@PEBV10@0PEAV10@AEAV?$allocator@V?$basic_string@DU?$char_traits@D@std@@V?$allocator@D@2@@std@@@0@@Z
	??$_Uninitialized_copy@PEBVTestCaseHandle@Catch@@PEBV12@V?$allocator@VTestCaseHandle@Catch@@@std@@@std@@YAPEAVTestCaseHandle@Catch@@PEBV12@0PEAV12@AEAV?$allocator@VTestCaseHandle@Catch@@@0@@Z
	??$_Uninitialized_copy_n@PEAIV?$allocator@I@std@@@std@@YAPEAIPEAI_K0AEAV?$allocator@I@0@@Z
	??$_Uninitialized_copy_n@PEAPEAXV?$allocator@PEAX@std@@@std@@YAPEAPEAXPEAPEAX_K0AEAV?$allocator@PEAX@0@@Z
	??$_Uninitialized_copy_n@PEAUHelpColumns@Detail@Clara@Catch@@V?$allocator@UHelpColumns@Detail@Clara@Catch@@@std@@@std@@YAPEAUHelpColumns@Detail@Clara@Catch@@PEAU1234@_K0AEAV?$allocator@UHelpColumns@Detail@Clara@Catch@@@0@@Z
	??$_Uninitialized_copy_n@PEAU_Grp_t@?$_Tgt_state_t@PEBD@std@@V?$allocator@U_Grp_t@?$_Tgt_state_t@PEBD@std@@@3@@std@@YAPEAU_Grp_t@?$_Tgt_state_t@PEBD@0@PEAU120@_K0AEAV?$allocator@U_Grp_t@?$_Tgt_state_t@PEBD@std@@@0@@Z
	??$_Uninitialized_copy_n@PEAV?$basic_string@DU?$char_traits@D@std@@V?$allocator@D@2@@std@@V?$allocator@V?$basic_string@DU?$char_traits@D@std@@V?$allocator@D@2@@std@@@2@@std@@YAPEAV?$basic_string@DU?$char_traits@D@std@@V?$allocator@D@2@@0@PEAV10@_K0AEAV?$allocator@V?$basic_string@DU?$char_traits@D@std@@V?$allocator@D@2@@std@@@0@@Z
	??$_Uninitialized_copy_n@PEAVArg@Clara@Catch@@V?$allocator@VArg@Clara@Catch@@@std@@@std@@YAPEAVArg@Clara@Catch@@PEAV123@_K0AEAV?$allocator@VArg@Clara@Catch@@@0@@Z
	??$_Uninitialized_copy_n@PEAVOpt@Clara@Catch@@V?$allocator@VOpt@Clara@Catch@@@std@@@std@@YAPEAVOpt@Clara@Catch@@PEAV123@_K0AEAV?$allocator@VOpt@Clara@Catch@@@0@@Z
	??$_Uninitialized_copy_n@PEAVReporterSpec@Catch@@V?$allocator@VReporterSpec@Catch@@@std@@@std@@YAPEAVReporterSpec@Catch@@PEAV12@_K0AEAV?$allocator@VReporterSpec@Catch@@@0@@Z
	??$_Uninitialized_copy_n@PEBV?$basic_string@DU?$char_traits@D@std@@V?$allocator@D@2@@std@@V?$allocator@VStringRef@Catch@@@2@@std@@YAPEAVStringRef@Catch@@PEBV?$basic_string@DU?$char_traits@D@std@@V?$allocator@D@2@@0@_KPEAV12@AEAV?$allocator@VStringRef@Catch@@@0@@Z
	??$_Uninitialized_copy_n@PEBVArg@Clara@Catch@@V?$allocator@VArg@Clara@Catch@@@std@@@std@@YAPEAVArg@Clara@Catch@@PEBV123@_KPEAV123@AEAV?$allocator@VArg@Clara@Catch@@@0@@Z
	??$_Uninitialized_copy_n@PEBVOpt@Clara@Catch@@V?$allocator@VOpt@Clara@Catch@@@std@@@std@@YAPEAVOpt@Clara@Catch@@PEBV123@_KPEAV123@AEAV?$allocator@VOpt@Clara@Catch@@@0@@Z
	??$_Uninitialized_copy_n@PEBVStringRef@Catch@@V?$allocator@VStringRef@Catch@@@std@@@std@@YAPEAVStringRef@Catch@@PEBV12@_KPEAV12@AEAV?$allocator@VStringRef@Catch@@@0@@Z
	??$_Uninitialized_copy_unchecked@PEAPEADPEAPEAD@std@@YAPEAPEADPEAPEADQEAPEAD0@Z
	??$_Uninitialized_fill_n@V?$allocator@I@std@@@std@@YAPEAIPEAI_KAEBIAEAV?$allocator@I@0@@Z
	??$_Uninitialized_move@PEAIV?$allocator@I@std@@@std@@YAPEAIQEAI0PEAIAEAV?$allocator@I@0@@Z
	??$_Uninitialized_move@PEANV?$allocator@N@std@@@std@@YAPEANQEAN0PEANAEAV?$allocator@N@0@@Z
	??$_Uninitialized_move@PEAPEAUISingleton@Catch@@V?$allocator@PEAUISingleton@Catch@@@std@@@std@@YAPEAPEAUISingleton@Catch@@QEAPEAU12@0PEAPEAU12@AEAV?$allocator@PEAUISingleton@Catch@@@0@@Z
	??$_Uninitialized_move@PEAPEAUSectionNode@CumulativeReporterBase@Catch@@V?$allocator@PEAUSectionNode@CumulativeReporterBase@Catch@@@std@@@std@@YAPEAPEAUSectionNode@CumulativeReporterBase@Catch@@QEAPEAU123@0PEAPEAU123@AEAV?$allocator@PEAUSectionNode@CumulativeReporterBase@Catch@@@0@@Z
	??$_Uninitialized_move@PEAPEAUTestCaseInfo@Catch@@V?$allocator@PEAUTestCaseInfo@Catch@@@std@@@std@@YAPEAPEAUTestCaseInfo@Catch@@QEAPEAU12@0PEAPEAU12@AEAV?$allocator@PEAUTestCaseInfo@Catch@@@0@@Z
	??$_Uninitialized_move@PEAPEAVITracker@TestCaseTracking@Catch@@V?$allocator@PEAVITracker@TestCaseTracking@Catch@@@std@@@std@@YAPEAPEAVITracker@TestCaseTracking@Catch@@QEAPEAV123@0PEAPEAV123@AEAV?$allocator@PEAVITracker@TestCaseTracking@Catch@@@0@@Z
	??$_Uninitialized_move@PEAPEAXV?$allocator@PEAX@std@@@std@@YAPEAPEAXQEAPEAX0PEAPEAXAEAV?$allocator@PEAX@0@@Z
	??$_Uninitialized_move@PEAPEBU?$Node@UTestCaseStats@Catch@@USectionNode@CumulativeReporterBase@2@@CumulativeReporterBase@Catch@@V?$allocator@PEBU?$Node@UTestCaseStats@Catch@@USectionNode@CumulativeReporterBase@2@@CumulativeReporterBase@Catch@@@std@@@std@@YAPEAPEBU?$Node@UTestCaseStats@Catch@@USectionNode@CumulativeReporterBase@2@@CumulativeReporterBase@Catch@@QEAPEBU123@0PEAPEBU123@AEAV?$allocator@PEBU?$Node@UTestCaseStats@Catch@@USectionNode@CumulativeReporterBase@2@@CumulativeReporterBase@Catch@@@0@@Z
	??$_Uninitialized_move@PEAPEBVTestCaseHandle@Catch@@V?$allocator@PEBVTestCaseHandle@Catch@@@std@@@std@@YAPEAPEBVTestCaseHandle@Catch@@QEAPEBV12@0PEAPEBV12@AEAV?$allocator@PEBVTestCaseHandle@Catch@@@0@@Z
	??$_Uninitialized_move@PEAU?$pair@HVStringRef@Catch@@@std@@V?$allocator@U?$pair@HVStringRef@Catch@@@std@@@2@@std@@YAPEAU?$pair@HVStringRef@Catch@@@0@QEAU10@0PEAU10@AEAV?$allocator@U?$pair@HVStringRef@Catch@@@std@@@0@@Z
	??$_Uninitialized_move@PEAU?$pair@_KVTestCaseHandle@Catch@@@std@@V?$allocator@U?$pair@_KVTestCaseHandle@Catch@@@std@@@2@@std@@YAPEAU?$pair@_KVTestCaseHandle@Catch@@@0@QEAU10@0PEAU10@AEAV?$allocator@U?$pair@_KVTestCaseHandle@Catch@@@std@@@0@@Z
	??$_Uninitialized_move@PEAUFilter@TestSpec@Catch@@V?$allocator@UFilter@TestSpec@Catch@@@std@@@std@@YAPEAUFilter@TestSpec@Catch@@QEAU123@0PEAU123@AEAV?$allocator@UFilter@TestSpec@Catch@@@0@@Z
	??$_Uninitialized_move@PEAUFilterMatch@TestSpec@Catch@@V?$allocator@UFilterMatch@TestSpec@Catch@@@std@@@std@@YAPEAUFilterMatch@TestSpec@Catch@@QEAU123@0PEAU123@AEAV?$allocator@UFilterMatch@TestSpec@Catch@@@0@@Z
	??$_Uninitialized_move@PEAUHelpColumns@Detail@Clara@Catch@@V?$allocator@UHelpColumns@Detail@Clara@Catch@@@std@@@std@@YAPEAUHelpColumns@Detail@Clara@Catch@@QEAU1234@0PEAU1234@AEAV?$allocator@UHelpColumns@Detail@Clara@Catch@@@0@@Z
	??$_Uninitialized_move@PEAUListenerDescription@Catch@@V?$allocator@UListenerDescription@Catch@@@std@@@std@@YAPEAUListenerDescription@Catch@@QEAU12@0PEAU12@AEAV?$allocator@UListenerDescription@Catch@@@0@@Z
	??$_Uninitialized_move@PEAUMessageInfo@Catch@@V?$allocator@UMessageInfo@Catch@@@std@@@std@@YAPEAUMessageInfo@Catch@@QEAU12@0PEAU12@AEAV?$allocator@UMessageInfo@Catch@@@0@@Z
	??$_Uninitialized_move@PEAUProcessedReporterSpec@Catch@@V?$allocator@UProcessedReporterSpec@Catch@@@std@@@std@@YAPEAUProcessedReporterSpec@Catch@@QEAU12@0PEAU12@AEAV?$allocator@UProcessedReporterSpec@Catch@@@0@@Z
	??$_Uninitialized_move@PEAUReporterDescription@Catch@@V?$allocator@UReporterDescription@Catch@@@std@@@std@@YAPEAUReporterDescription@Catch@@QEAU12@0PEAU12@AEAV?$allocator@UReporterDescription@Catch@@@0@@Z
	??$_Uninitialized_move@PEAUSectionEndInfo@Catch@@V?$allocator@USectionEndInfo@Catch@@@std@@@std@@YAPEAUSectionEndInfo@Catch@@QEAU12@0PEAU12@AEAV?$allocator@USectionEndInfo@Catch@@@0@@Z
	??$_Uninitialized_move@PEAUSectionInfo@Catch@@V?$allocator@USectionInfo@Catch@@@std@@@std@@YAPEAUSectionInfo@Catch@@QEAU12@0PEAU12@AEAV?$allocator@USectionInfo@Catch@@@0@@Z
	??$_Uninitialized_move@PEAUTag@Catch@@V?$allocator@UTag@Catch@@@std@@@std@@YAPEAUTag@Catch@@QEAU12@0PEAU12@AEAV?$allocator@UTag@Catch@@@0@@Z
	??$_Uninitialized_move@PEAUTagInfo@Catch@@V?$allocator@UTagInfo@Catch@@@std@@@std@@YAPEAUTagInfo@Catch@@QEAU12@0PEAU12@AEAV?$allocator@UTagInfo@Catch@@@0@@Z
	??$_Uninitialized_move@PEAUToken@Detail@Clara@Catch@@V?$allocator@UToken@Detail@Clara@Catch@@@std@@@std@@YAPEAUToken@Detail@Clara@Catch@@QEAU1234@0PEAU1234@AEAV?$allocator@UToken@Detail@Clara@Catch@@@0@@Z
	??$_Uninitialized_move@PEAU_Grp_t@?$_Tgt_state_t@PEBD@std@@V?$allocator@U_Grp_t@?$_Tgt_state_t@PEBD@std@@@3@@std@@YAPEAU_Grp_t@?$_Tgt_state_t@PEBD@0@QEAU120@0PEAU120@AEAV?$allocator@U_Grp_t@?$_Tgt_state_t@PEBD@std@@@0@@Z
	??$_Uninitialized_move@PEAU_Loop_vals_t@std@@V?$allocator@U_Loop_vals_t@std@@@2@@std@@YAPEAU_Loop_vals_t@0@QEAU10@0PEAU10@AEAV?$allocator@U_Loop_vals_t@std@@@0@@Z
	??$_Uninitialized_move@PEAV?$basic_string@DU?$char_traits@D@std@@V?$allocator@D@2@@std@@V?$allocator@V?$basic_string@DU?$char_traits@D@std@@V?$allocator@D@2@@std@@@2@@std@@YAPEAV?$basic_string@DU?$char_traits@D@std@@V?$allocator@D@2@@0@QEAV10@0PEAV10@AEAV?$allocator@V?$basic_string@DU?$char_traits@D@std@@V?$allocator@D@2@@std@@@0@@Z
	??$_Uninitialized_move@PEAV?$sub_match@PEBD@std@@V?$allocator@V?$sub_match@PEBD@std@@@2@@std@@YAPEAV?$sub_match@PEBD@0@QEAV10@0PEAV10@AEAV?$allocator@V?$sub_match@PEBD@std@@@0@@Z
	??$_Uninitialized_move@PEAV?$unique_ptr@$$CBVIExceptionTranslator@Catch@@@Detail@Catch@@V?$allocator@V?$unique_ptr@$$CBVIExceptionTranslator@Catch@@@Detail@Catch@@@std@@@std@@YAPEAV?$unique_ptr@$$CBVIExceptionTranslator@Catch@@@Detail@Catch@@QEAV123@0PEAV123@AEAV?$allocator@V?$unique_ptr@$$CBVIExceptionTranslator@Catch@@@Detail@Catch@@@0@@Z
	??$_Uninitialized_move@PEAV?$unique_ptr@U?$Node@UTestCaseStats@Catch@@USectionNode@CumulativeReporterBase@2@@CumulativeReporterBase@Catch@@@Detail@Catch@@V?$allocator@V?$unique_ptr@U?$Node@UTestCaseStats@Catch@@USectionNode@CumulativeReporterBase@2@@CumulativeReporterBase@Catch@@@Detail@Catch@@@std@@@std@@YAPEAV?$unique_ptr@U?$Node@UTestCaseStats@Catch@@USectionNode@CumulativeReporterBase@2@@CumulativeReporterBase@Catch@@@Detail@Catch@@QEAV123@0PEAV123@AEAV?$allocator@V?$unique_ptr@U?$Node@UTestCaseStats@Catch@@USectionNode@CumulativeReporterBase@2@@CumulativeReporterBase@Catch@@@Detail@Catch@@@0@@Z
	??$_Uninitialized_move@PEAV?$unique_ptr@UEnumInfo@Detail@Catch@@@Detail@Catch@@V?$allocator@V?$unique_ptr@UEnumInfo@Detail@Catch@@@Detail@Catch@@@std@@@std@@YAPEAV?$unique_ptr@UEnumInfo@Detail@Catch@@@Detail@Catch@@QEAV123@0PEAV123@AEAV?$allocator@V?$unique_ptr@UEnumInfo@Detail@Catch@@@Detail@Catch@@@0@@Z
	??$_Uninitialized_move@PEAV?$unique_ptr@USectionNode@CumulativeReporterBase@Catch@@@Detail@Catch@@V?$allocator@V?$unique_ptr@USectionNode@CumulativeReporterBase@Catch@@@Detail@Catch@@@std@@@std@@YAPEAV?$unique_ptr@USectionNode@CumulativeReporterBase@Catch@@@Detail@Catch@@QEAV123@0PEAV123@AEAV?$allocator@V?$unique_ptr@USectionNode@CumulativeReporterBase@Catch@@@Detail@Catch@@@0@@Z
	??$_Uninitialized_move@PEAV?$unique_ptr@UTestCaseInfo@Catch@@@Detail@Catch@@V?$allocator@V?$unique_ptr@UTestCaseInfo@Catch@@@Detail@Catch@@@std@@@std@@YAPEAV?$unique_ptr@UTestCaseInfo@Catch@@@Detail@Catch@@QEAV123@0PEAV123@AEAV?$allocator@V?$unique_ptr@UTestCaseInfo@Catch@@@Detail@Catch@@@0@@Z
	??$_Uninitialized_move@PEAV?$unique_ptr@V?$basic_ostringstream@DU?$char_traits@D@std@@V?$allocator@D@2@@std@@@Detail@Catch@@V?$allocator@V?$unique_ptr@V?$basic_ostringstream@DU?$char_traits@D@std@@V?$allocator@D@2@@std@@@Detail@Catch@@@std@@@std@@YAPEAV?$unique_ptr@V?$basic_ostringstream@DU?$char_traits@D@std@@V?$allocator@D@2@@std@@@Detail@Catch@@QEAV123@0PEAV123@AEAV?$allocator@V?$unique_ptr@V?$basic_ostringstream@DU?$char_traits@D@std@@V?$allocator@D@2@@std@@@Detail@Catch@@@0@@Z
	??$_Uninitialized_move@PEAV?$unique_ptr@VEventListenerFactory@Catch@@@Detail@Catch@@V?$allocator@V?$unique_ptr@VEventListenerFactory@Catch@@@Detail@Catch@@@std@@@std@@YAPEAV?$unique_ptr@VEventListenerFactory@Catch@@@Detail@Catch@@QEAV123@0PEAV123@AEAV?$allocator@V?$unique_ptr@VEventListenerFactory@Catch@@@Detail@Catch@@@0@@Z
	??$_Uninitialized_move@PEAV?$unique_ptr@VIEventListener@Catch@@@Detail@Catch@@V?$allocator@V?$unique_ptr@VIEventListener@Catch@@@Detail@Catch@@@std@@@std@@YAPEAV?$unique_ptr@VIEventListener@Catch@@@Detail@Catch@@QEAV123@0PEAV123@AEAV?$allocator@V?$unique_ptr@VIEventListener@Catch@@@Detail@Catch@@@0@@Z
	??$_Uninitialized_move@PEAV?$unique_ptr@VITestInvoker@Catch@@@Detail@Catch@@V?$allocator@V?$unique_ptr@VITestInvoker@Catch@@@Detail@Catch@@@std@@@std@@YAPEAV?$unique_ptr@VITestInvoker@Catch@@@Detail@Catch@@QEAV123@0PEAV123@AEAV?$allocator@V?$unique_ptr@VITestInvoker@Catch@@@Detail@Catch@@@0@@Z
	??$_Uninitialized_move@PEAV?$unique_ptr@VITracker@TestCaseTracking@Catch@@@Detail@Catch@@V?$allocator@V?$unique_ptr@VITracker@TestCaseTracking@Catch@@@Detail@Catch@@@std@@@std@@YAPEAV?$unique_ptr@VITracker@TestCaseTracking@Catch@@@Detail@Catch@@QEAV123@0PEAV123@AEAV?$allocator@V?$unique_ptr@VITracker@TestCaseTracking@Catch@@@Detail@Catch@@@0@@Z
	??$_Uninitialized_move@PEAV?$unique_ptr@VPattern@TestSpec@Catch@@@Detail@Catch@@V?$allocator@V?$unique_ptr@VPattern@TestSpec@Catch@@@Detail@Catch@@@std@@@std@@YAPEAV?$unique_ptr@VPattern@TestSpec@Catch@@@Detail@Catch@@QEAV123@0PEAV123@AEAV?$allocator@V?$unique_ptr@VPattern@TestSpec@Catch@@@Detail@Catch@@@0@@Z
	??$_Uninitialized_move@PEAVArg@Clara@Catch@@V?$allocator@VArg@Clara@Catch@@@std@@@std@@YAPEAVArg@Clara@Catch@@QEAV123@0PEAV123@AEAV?$allocator@VArg@Clara@Catch@@@0@@Z
	??$_Uninitialized_move@PEAVAssertionOrBenchmarkResult@Detail@Catch@@V?$allocator@VAssertionOrBenchmarkResult@Detail@Catch@@@std@@@std@@YAPEAVAssertionOrBenchmarkResult@Detail@Catch@@QEAV123@0PEAV123@AEAV?$allocator@VAssertionOrBenchmarkResult@Detail@Catch@@@0@@Z
	??$_Uninitialized_move@PEAVColumn@TextFlow@Catch@@V?$allocator@VColumn@TextFlow@Catch@@@std@@@std@@YAPEAVColumn@TextFlow@Catch@@QEAV123@0PEAV123@AEAV?$allocator@VColumn@TextFlow@Catch@@@0@@Z
	??$_Uninitialized_move@PEAVOpt@Clara@Catch@@V?$allocator@VOpt@Clara@Catch@@@std@@@std@@YAPEAVOpt@Clara@Catch@@QEAV123@0PEAV123@AEAV?$allocator@VOpt@Clara@Catch@@@0@@Z
	??$_Uninitialized_move@PEAVReporterSpec@Catch@@V?$allocator@VReporterSpec@Catch@@@std@@@std@@YAPEAVReporterSpec@Catch@@QEAV12@0PEAV12@AEAV?$allocator@VReporterSpec@Catch@@@0@@Z
	??$_Uninitialized_move@PEAVScopedMessage@Catch@@V?$allocator@VScopedMessage@Catch@@@std@@@std@@YAPEAVScopedMessage@Catch@@QEAV12@0PEAV12@AEAV?$allocator@VScopedMessage@Catch@@@0@@Z
	??$_Uninitialized_move@PEAVStringRef@Catch@@V?$allocator@VStringRef@Catch@@@std@@@std@@YAPEAVStringRef@Catch@@QEAV12@0PEAV12@AEAV?$allocator@VStringRef@Catch@@@0@@Z
	??$_Uninitialized_move@PEAVTestCaseHandle@Catch@@V?$allocator@VTestCaseHandle@Catch@@@std@@@std@@YAPEAVTestCaseHandle@Catch@@QEAV12@0PEAV12@AEAV?$allocator@VTestCaseHandle@Catch@@@0@@Z
	??$_Uninitialized_move@PEAVconst_iterator@Column@TextFlow@Catch@@V?$allocator@Vconst_iterator@Column@TextFlow@Catch@@@std@@@std@@YAPEAVconst_iterator@Column@TextFlow@Catch@@QEAV1234@0PEAV1234@AEAV?$allocator@Vconst_iterator@Column@TextFlow@Catch@@@0@@Z
	??$_Uninitialized_move@PEAVexception_ptr@std@@V?$allocator@Vexception_ptr@std@@@2@@std@@YAPEAVexception_ptr@0@QEAV10@0PEAV10@AEAV?$allocator@Vexception_ptr@std@@@0@@Z
	??$_Uninitialized_move@PEA_KV?$allocator@_K@std@@@std@@YAPEA_KQEA_K0PEA_KAEAV?$allocator@_K@0@@Z
	??$_Uninitialized_value_construct_n@V?$allocator@PEAX@std@@@std@@YAPEAPEAXPEAPEAX_KAEAV?$allocator@PEAX@0@@Z
	??$_Uninitialized_value_construct_n@V?$allocator@U_Grp_t@?$_Tgt_state_t@PEBD@std@@@std@@@std@@YAPEAU_Grp_t@?$_Tgt_state_t@PEBD@0@PEAU120@_KAEAV?$allocator@U_Grp_t@?$_Tgt_state_t@PEBD@std@@@0@@Z
	??$_Uninitialized_value_construct_n@V?$allocator@U_Loop_vals_t@std@@@std@@@std@@YAPEAU_Loop_vals_t@0@PEAU10@_KAEAV?$allocator@U_Loop_vals_t@std@@@0@@Z
	??$_Uninitialized_value_construct_n@V?$allocator@V?$sub_match@PEBD@std@@@std@@@std@@YAPEAV?$sub_match@PEBD@0@PEAV10@_KAEAV?$allocator@V?$sub_match@PEBD@std@@@0@@Z
	??$_Uninitialized_value_construct_n_unchecked1@PEAPEAD_K@std@@YAPEAPEADPEAPEAD_K@Z
	??$_Unwrapped@V?$_String_const_iterator@V?$_String_val@U?$_Simple_types@D@std@@@std@@@std@@$0A@@?$reverse_iterator@V?$_String_const_iterator@V?$_String_val@U?$_Simple_types@D@std@@@std@@@std@@@std@@QEGBA?AV?$reverse_iterator@PEBD@1@XZ
	??$_Verify_offset@V?$_String_const_iterator@V?$_String_val@U?$_Simple_types@D@std@@@std@@@std@@$0A@@?$reverse_iterator@V?$_String_const_iterator@V?$_String_val@U?$_Simple_types@D@std@@@std@@@std@@@std@@QEBAX_J@Z
	??$_Verify_range@D@std@@YAXQEBD0@Z
	??$_Verify_range@PEBD$0A@@std@@YAXAEBV?$reverse_iterator@PEBD@0@0@Z
	??$_Verify_range@V?$_String_const_iterator@V?$_String_val@U?$_Simple_types@D@std@@@std@@@std@@$0A@@std@@YAXAEBV?$reverse_iterator@V?$_String_const_iterator@V?$_String_val@U?$_Simple_types@D@std@@@std@@@std@@@0@0@Z
	??$_Weakly_construct_from@U?$_Task_impl@E@details@Concurrency@@@?$_Ptr_base@U_Task_impl_base@details@Concurrency@@@std@@IEAAXAEBV?$_Ptr_base@U?$_Task_impl@E@details@Concurrency@@@1@@Z
	??$_Weakly_construct_from@U_Task_impl_base@details@Concurrency@@@?$_Ptr_base@U_Task_impl_base@details@Concurrency@@@std@@IEAAXAEBV01@@Z
	??$_Zero_range@PEAPEAD@std@@YAPEAPEADQEAPEAD0@Z
	??$_Zero_range@PEAPEAX@std@@YAPEAPEAXQEAPEAX0@Z
	??$addressof@$$CBD@std@@YAPEBDAEBD@Z
	??$addressof@$$CBU?$pair@$$CBV?$basic_string@DU?$char_traits@D@std@@V?$allocator@D@2@@std@@UTagAlias@Catch@@@std@@@std@@YAPEBU?$pair@$$CBV?$basic_string@DU?$char_traits@D@std@@V?$allocator@D@2@@std@@UTagAlias@Catch@@@0@AEBU10@@Z
	??$addressof@$$CBU?$pair@$$CBV?$basic_string@DU?$char_traits@D@std@@V?$allocator@D@2@@std@@V?$unique_ptr@VIReporterFactory@Catch@@@Detail@Catch@@@std@@@std@@YAPEBU?$pair@$$CBV?$basic_string@DU?$char_traits@D@std@@V?$allocator@D@2@@std@@V?$unique_ptr@VIReporterFactory@Catch@@@Detail@Catch@@@0@AEBU10@@Z
	??$addressof@$$CBV<lambda_1>@?1??_MakeVoidToUnitFunc@details@Concurrency@@YA?AV?$function@$$A6AEXZ@std@@AEBV?$function@$$A6AXXZ@6@@Z@@std@@YAPEBV<lambda_1>@?1??_MakeVoidToUnitFunc@details@Concurrency@@YA?AV?$function@$$A6AEXZ@0@AEBV?$function@$$A6AXXZ@0@@Z@AEBV1?1??234@YA?AV50@0@Z@@Z
	??$addressof@$$CBV<lambda_1>@?4??_ScheduleContinuationTask@_Task_impl_base@details@Concurrency@@QEAAXPEAU_ContinuationTaskHandleBase@45@@Z@@std@@YAPEBV<lambda_1>@?4??_ScheduleContinuationTask@_Task_impl_base@details@Concurrency@@QEAAXPEAU_ContinuationTaskHandleBase@45@@Z@AEBV1?4??2345@QEAAX0@Z@@Z
	??$addressof@$$CBV<lambda_1>@?7???R1?4??_ScheduleContinuationTask@_Task_impl_base@details@Concurrency@@QEAAXPEAU_ContinuationTaskHandleBase@45@@Z@QEBA@XZ@@std@@YAPEBV<lambda_1>@?7???R1?4??_ScheduleContinuationTask@_Task_impl_base@details@Concurrency@@QEAAXPEAU_ContinuationTaskHandleBase@45@@Z@QEBA@XZ@AEBV1?7???R1?4??2345@QEAAX0@Z@QEBA@XZ@@Z
	??$addressof@$$CBV<lambda_1>@?CC@??_CancelAndRunContinuations@?$_Task_impl@E@details@Concurrency@@UEAA_N_N00AEBV?$shared_ptr@U_ExceptionHolder@details@Concurrency@@@std@@@Z@@std@@YAPEBV<lambda_1>@?CC@??_CancelAndRunContinuations@?$_Task_impl@E@details@Concurrency@@UEAA_N_N00AEBV?$shared_ptr@U_ExceptionHolder@details@Concurrency@@@0@@Z@AEBV1?CC@??2345@UEAA_N0001@Z@@Z
	??$addressof@$$CBV?$_String_val@U?$_Simple_types@D@std@@@std@@@std@@YAPEBV?$_String_val@U?$_Simple_types@D@std@@@0@AEBV10@@Z
	??$addressof@$$CBV?$_Tree@V?$_Tmap_traits@V?$basic_string@DU?$char_traits@D@std@@V?$allocator@D@2@@std@@V12@U?$less@V?$basic_string@DU?$char_traits@D@std@@V?$allocator@D@2@@std@@@2@V?$allocator@U?$pair@$$CBV?$basic_string@DU?$char_traits@D@std@@V?$allocator@D@2@@std@@V12@@std@@@2@$0A@@std@@@std@@@std@@YAPEBV?$_Tree@V?$_Tmap_traits@V?$basic_string@DU?$char_traits@D@std@@V?$allocator@D@2@@std@@V12@U?$less@V?$basic_string@DU?$char_traits@D@std@@V?$allocator@D@2@@std@@@2@V?$allocator@U?$pair@$$CBV?$basic_string@DU?$char_traits@D@std@@V?$allocator@D@2@@std@@V12@@std@@@2@$0A@@std@@@0@AEBV10@@Z
	??$addressof@$$CBV?$_Tree_val@U?$_Tree_simple_types@PEBUTestCaseInfo@Catch@@@std@@@std@@@std@@YAPEBV?$_Tree_val@U?$_Tree_simple_types@PEBUTestCaseInfo@Catch@@@std@@@0@AEBV10@@Z
	??$addressof@$$CBV?$_Tree_val@U?$_Tree_simple_types@PEBVTestCaseHandle@Catch@@@std@@@std@@@std@@YAPEBV?$_Tree_val@U?$_Tree_simple_types@PEBVTestCaseHandle@Catch@@@std@@@0@AEBV10@@Z
	??$addressof@$$CBV?$_Tree_val@U?$_Tree_simple_types@U?$pair@$$CBV?$basic_string@DU?$char_traits@D@std@@V?$allocator@D@2@@std@@UTagAlias@Catch@@@std@@@std@@@std@@@std@@YAPEBV?$_Tree_val@U?$_Tree_simple_types@U?$pair@$$CBV?$basic_string@DU?$char_traits@D@std@@V?$allocator@D@2@@std@@UTagAlias@Catch@@@std@@@std@@@0@AEBV10@@Z
	??$addressof@$$CBV?$_Tree_val@U?$_Tree_simple_types@U?$pair@$$CBV?$basic_string@DU?$char_traits@D@std@@V?$allocator@D@2@@std@@V12@@std@@@std@@@std@@@std@@YAPEBV?$_Tree_val@U?$_Tree_simple_types@U?$pair@$$CBV?$basic_string@DU?$char_traits@D@std@@V?$allocator@D@2@@std@@V12@@std@@@std@@@0@AEBV10@@Z
	??$addressof@$$CBV?$_Tree_val@U?$_Tree_simple_types@U?$pair@$$CBV?$basic_string@DU?$char_traits@D@std@@V?$allocator@D@2@@std@@V?$unique_ptr@VIReporterFactory@Catch@@@Detail@Catch@@@std@@@std@@@std@@@std@@YAPEBV?$_Tree_val@U?$_Tree_simple_types@U?$pair@$$CBV?$basic_string@DU?$char_traits@D@std@@V?$allocator@D@2@@std@@V?$unique_ptr@VIReporterFactory@Catch@@@Detail@Catch@@@std@@@std@@@0@AEBV10@@Z
	??$addressof@$$CBV?$_Tree_val@U?$_Tree_simple_types@U?$pair@$$CBVStringRef@Catch@@UTagInfo@2@@std@@@std@@@std@@@std@@YAPEBV?$_Tree_val@U?$_Tree_simple_types@U?$pair@$$CBVStringRef@Catch@@UTagInfo@2@@std@@@std@@@0@AEBV10@@Z
	??$addressof@$$CBV?$_Tree_val@U?$_Tree_simple_types@U?$pair@$$CBVStringRef@Catch@@V?$vector@PEBU?$Node@UTestCaseStats@Catch@@USectionNode@CumulativeReporterBase@2@@CumulativeReporterBase@Catch@@V?$allocator@PEBU?$Node@UTestCaseStats@Catch@@USectionNode@CumulativeReporterBase@2@@CumulativeReporterBase@Catch@@@std@@@std@@@std@@@std@@@std@@@std@@YAPEBV?$_Tree_val@U?$_Tree_simple_types@U?$pair@$$CBVStringRef@Catch@@V?$vector@PEBU?$Node@UTestCaseStats@Catch@@USectionNode@CumulativeReporterBase@2@@CumulativeReporterBase@Catch@@V?$allocator@PEBU?$Node@UTestCaseStats@Catch@@USectionNode@CumulativeReporterBase@2@@CumulativeReporterBase@Catch@@@std@@@std@@@std@@@std@@@0@AEBV10@@Z
	??$addressof@$$CBV?$_Tree_val@U?$_Tree_simple_types@VStringRef@Catch@@@std@@@std@@@std@@YAPEBV?$_Tree_val@U?$_Tree_simple_types@VStringRef@Catch@@@std@@@0@AEBV10@@Z
	??$addressof@$$CBV?$_Vector_val@U?$_Simple_types@N@std@@@std@@@std@@YAPEBV?$_Vector_val@U?$_Simple_types@N@std@@@0@AEBV10@@Z
	??$addressof@$$CBV?$_Vector_val@U?$_Simple_types@PEBVTestCaseHandle@Catch@@@std@@@std@@@std@@YAPEBV?$_Vector_val@U?$_Simple_types@PEBVTestCaseHandle@Catch@@@std@@@0@AEBV10@@Z
	??$addressof@$$CBV?$_Vector_val@U?$_Simple_types@UFilter@TestSpec@Catch@@@std@@@std@@@std@@YAPEBV?$_Vector_val@U?$_Simple_types@UFilter@TestSpec@Catch@@@std@@@0@AEBV10@@Z
	??$addressof@$$CBV?$_Vector_val@U?$_Simple_types@UListenerDescription@Catch@@@std@@@std@@@std@@YAPEBV?$_Vector_val@U?$_Simple_types@UListenerDescription@Catch@@@std@@@0@AEBV10@@Z
	??$addressof@$$CBV?$_Vector_val@U?$_Simple_types@UMessageInfo@Catch@@@std@@@std@@@std@@YAPEBV?$_Vector_val@U?$_Simple_types@UMessageInfo@Catch@@@std@@@0@AEBV10@@Z
	??$addressof@$$CBV?$_Vector_val@U?$_Simple_types@UReporterDescription@Catch@@@std@@@std@@@std@@YAPEBV?$_Vector_val@U?$_Simple_types@UReporterDescription@Catch@@@std@@@0@AEBV10@@Z
	??$addressof@$$CBV?$_Vector_val@U?$_Simple_types@UTag@Catch@@@std@@@std@@@std@@YAPEBV?$_Vector_val@U?$_Simple_types@UTag@Catch@@@std@@@0@AEBV10@@Z
	??$addressof@$$CBV?$_Vector_val@U?$_Simple_types@V?$basic_string@DU?$char_traits@D@std@@V?$allocator@D@2@@std@@@std@@@std@@@std@@YAPEBV?$_Vector_val@U?$_Simple_types@V?$basic_string@DU?$char_traits@D@std@@V?$allocator@D@2@@std@@@std@@@0@AEBV10@@Z
	??$addressof@$$CBV?$_Vector_val@U?$_Simple_types@V?$unique_ptr@$$CBVIExceptionTranslator@Catch@@@Detail@Catch@@@std@@@std@@@std@@YAPEBV?$_Vector_val@U?$_Simple_types@V?$unique_ptr@$$CBVIExceptionTranslator@Catch@@@Detail@Catch@@@std@@@0@AEBV10@@Z
	??$addressof@$$CBV?$_Vector_val@U?$_Simple_types@VArg@Clara@Catch@@@std@@@std@@@std@@YAPEBV?$_Vector_val@U?$_Simple_types@VArg@Clara@Catch@@@std@@@0@AEBV10@@Z
	??$addressof@$$CBV?$_Vector_val@U?$_Simple_types@VAssertionOrBenchmarkResult@Detail@Catch@@@std@@@std@@@std@@YAPEBV?$_Vector_val@U?$_Simple_types@VAssertionOrBenchmarkResult@Detail@Catch@@@std@@@0@AEBV10@@Z
	??$addressof@$$CBV?$_Vector_val@U?$_Simple_types@VOpt@Clara@Catch@@@std@@@std@@@std@@YAPEBV?$_Vector_val@U?$_Simple_types@VOpt@Clara@Catch@@@std@@@0@AEBV10@@Z
	??$addressof@$$CBV?$_Vector_val@U?$_Simple_types@VStringRef@Catch@@@std@@@std@@@std@@YAPEBV?$_Vector_val@U?$_Simple_types@VStringRef@Catch@@@std@@@0@AEBV10@@Z
	??$addressof@$$CBV?$_Vector_val@U?$_Simple_types@VTestCaseHandle@Catch@@@std@@@std@@@std@@YAPEBV?$_Vector_val@U?$_Simple_types@VTestCaseHandle@Catch@@@std@@@0@AEBV10@@Z
	??$addressof@$$CBV?$basic_string@DU?$char_traits@D@std@@V?$allocator@D@2@@std@@@std@@YAPEBV?$basic_string@DU?$char_traits@D@std@@V?$allocator@D@2@@0@AEBV10@@Z
	??$addressof@$$CBV?$codecvt@DDU_Mbstatet@@@std@@@std@@YAPEBV?$codecvt@DDU_Mbstatet@@@0@AEBV10@@Z
	??$addressof@$$CBV?$collate@D@std@@@std@@YAPEBV?$collate@D@0@AEBV10@@Z
	??$addressof@$$CBV?$ctype@D@std@@@std@@YAPEBV?$ctype@D@0@AEBV10@@Z
	??$addressof@$$CBV?$vector@IV?$allocator@I@std@@@std@@@std@@YAPEBV?$vector@IV?$allocator@I@std@@@0@AEBV10@@Z
	??$addressof@$$CBV?$vector@PEAXV?$allocator@PEAX@std@@@std@@@std@@YAPEBV?$vector@PEAXV?$allocator@PEAX@std@@@0@AEBV10@@Z
	??$addressof@$$CBV?$vector@U_Grp_t@?$_Tgt_state_t@PEBD@std@@V?$allocator@U_Grp_t@?$_Tgt_state_t@PEBD@std@@@3@@std@@@std@@YAPEBV?$vector@U_Grp_t@?$_Tgt_state_t@PEBD@std@@V?$allocator@U_Grp_t@?$_Tgt_state_t@PEBD@std@@@3@@0@AEBV10@@Z
	??$addressof@$$CBV?$vector@V?$basic_string@DU?$char_traits@D@std@@V?$allocator@D@2@@std@@V?$allocator@V?$basic_string@DU?$char_traits@D@std@@V?$allocator@D@2@@std@@@2@@std@@@std@@YAPEBV?$vector@V?$basic_string@DU?$char_traits@D@std@@V?$allocator@D@2@@std@@V?$allocator@V?$basic_string@DU?$char_traits@D@std@@V?$allocator@D@2@@std@@@2@@0@AEBV10@@Z
	??$addressof@$$CBV?$vector@VArg@Clara@Catch@@V?$allocator@VArg@Clara@Catch@@@std@@@std@@@std@@YAPEBV?$vector@VArg@Clara@Catch@@V?$allocator@VArg@Clara@Catch@@@std@@@0@AEBV10@@Z
	??$addressof@$$CBV?$vector@VOpt@Clara@Catch@@V?$allocator@VOpt@Clara@Catch@@@std@@@std@@@std@@YAPEBV?$vector@VOpt@Clara@Catch@@V?$allocator@VOpt@Clara@Catch@@@std@@@0@AEBV10@@Z
	??$addressof@$$CBV?$vector@VReporterSpec@Catch@@V?$allocator@VReporterSpec@Catch@@@std@@@std@@@std@@YAPEBV?$vector@VReporterSpec@Catch@@V?$allocator@VReporterSpec@Catch@@@std@@@0@AEBV10@@Z
	??$addressof@$$CBV?$vector@_NV?$allocator@_N@std@@@std@@@std@@YAPEBV?$vector@_NV?$allocator@_N@std@@@0@AEBV10@@Z
	??$addressof@D@std@@YAPEADAEAD@Z
	??$addressof@J@std@@YAPEAJAEAJ@Z
	??$addressof@N@std@@YAPEANAEAN@Z
	??$addressof@PEAD@std@@YAPEAPEADAEAPEAD@Z
	??$addressof@PEAU?$_Sequence@D@std@@@std@@YAPEAPEAU?$_Sequence@D@0@AEAPEAU10@@Z
	??$addressof@PEAU?$_Tree_node@PEBUTestCaseInfo@Catch@@PEAX@std@@@std@@YAPEAPEAU?$_Tree_node@PEBUTestCaseInfo@Catch@@PEAX@0@AEAPEAU10@@Z
	??$addressof@PEAU?$_Tree_node@PEBVTestCaseHandle@Catch@@PEAX@std@@@std@@YAPEAPEAU?$_Tree_node@PEBVTestCaseHandle@Catch@@PEAX@0@AEAPEAU10@@Z
	??$addressof@PEAU?$_Tree_node@U?$pair@$$CBV?$basic_string@DU?$char_traits@D@std@@V?$allocator@D@2@@std@@UTagAlias@Catch@@@std@@PEAX@std@@@std@@YAPEAPEAU?$_Tree_node@U?$pair@$$CBV?$basic_string@DU?$char_traits@D@std@@V?$allocator@D@2@@std@@UTagAlias@Catch@@@std@@PEAX@0@AEAPEAU10@@Z
	??$addressof@PEAU?$_Tree_node@U?$pair@$$CBV?$basic_string@DU?$char_traits@D@std@@V?$allocator@D@2@@std@@V12@@std@@PEAX@std@@@std@@YAPEAPEAU?$_Tree_node@U?$pair@$$CBV?$basic_string@DU?$char_traits@D@std@@V?$allocator@D@2@@std@@V12@@std@@PEAX@0@AEAPEAU10@@Z
	??$addressof@PEAU?$_Tree_node@U?$pair@$$CBV?$basic_string@DU?$char_traits@D@std@@V?$allocator@D@2@@std@@V?$unique_ptr@VIReporterFactory@Catch@@@Detail@Catch@@@std@@PEAX@std@@@std@@YAPEAPEAU?$_Tree_node@U?$pair@$$CBV?$basic_string@DU?$char_traits@D@std@@V?$allocator@D@2@@std@@V?$unique_ptr@VIReporterFactory@Catch@@@Detail@Catch@@@std@@PEAX@0@AEAPEAU10@@Z
	??$addressof@PEAU?$_Tree_node@U?$pair@$$CBVStringRef@Catch@@UTagInfo@2@@std@@PEAX@std@@@std@@YAPEAPEAU?$_Tree_node@U?$pair@$$CBVStringRef@Catch@@UTagInfo@2@@std@@PEAX@0@AEAPEAU10@@Z
	??$addressof@PEAU?$_Tree_node@U?$pair@$$CBVStringRef@Catch@@V?$vector@PEBU?$Node@UTestCaseStats@Catch@@USectionNode@CumulativeReporterBase@2@@CumulativeReporterBase@Catch@@V?$allocator@PEBU?$Node@UTestCaseStats@Catch@@USectionNode@CumulativeReporterBase@2@@CumulativeReporterBase@Catch@@@std@@@std@@@std@@PEAX@std@@@std@@YAPEAPEAU?$_Tree_node@U?$pair@$$CBVStringRef@Catch@@V?$vector@PEBU?$Node@UTestCaseStats@Catch@@USectionNode@CumulativeReporterBase@2@@CumulativeReporterBase@Catch@@V?$allocator@PEBU?$Node@UTestCaseStats@Catch@@USectionNode@CumulativeReporterBase@2@@CumulativeReporterBase@Catch@@@std@@@std@@@std@@PEAX@0@AEAPEAU10@@Z
	??$addressof@PEAU?$_Tree_node@VStringRef@Catch@@PEAX@std@@@std@@YAPEAPEAU?$_Tree_node@VStringRef@Catch@@PEAX@0@AEAPEAU10@@Z
	??$addressof@PEAUISingleton@Catch@@@std@@YAPEAPEAUISingleton@Catch@@AEAPEAU12@@Z
	??$addressof@PEAUSectionNode@CumulativeReporterBase@Catch@@@std@@YAPEAPEAUSectionNode@CumulativeReporterBase@Catch@@AEAPEAU123@@Z
	??$addressof@PEAUTestCaseInfo@Catch@@@std@@YAPEAPEAUTestCaseInfo@Catch@@AEAPEAU12@@Z
	??$addressof@PEAVITracker@TestCaseTracking@Catch@@@std@@YAPEAPEAVITracker@TestCaseTracking@Catch@@AEAPEAV123@@Z
	??$addressof@PEA_W@std@@YAPEAPEA_WAEAPEA_W@Z
	??$addressof@PEBD@std@@YAPEAPEBDAEAPEBD@Z
	??$addressof@PEBU?$Node@UTestCaseStats@Catch@@USectionNode@CumulativeReporterBase@2@@CumulativeReporterBase@Catch@@@std@@YAPEAPEBU?$Node@UTestCaseStats@Catch@@USectionNode@CumulativeReporterBase@2@@CumulativeReporterBase@Catch@@AEAPEBU123@@Z
	??$addressof@PEBUTestCaseInfo@Catch@@@std@@YAPEAPEBUTestCaseInfo@Catch@@AEAPEBU12@@Z
	??$addressof@PEBVTestCaseHandle@Catch@@@std@@YAPEAPEBVTestCaseHandle@Catch@@AEAPEBV12@@Z
	??$addressof@U?$BoundValueRef@I@Detail@Clara@Catch@@@std@@YAPEAU?$BoundValueRef@I@Detail@Clara@Catch@@AEAU1234@@Z
	??$addressof@U?$BoundValueRef@N@Detail@Clara@Catch@@@std@@YAPEAU?$BoundValueRef@N@Detail@Clara@Catch@@AEAU1234@@Z
	??$addressof@U?$BoundValueRef@V?$basic_string@DU?$char_traits@D@std@@V?$allocator@D@2@@std@@@Detail@Clara@Catch@@@std@@YAPEAU?$BoundValueRef@V?$basic_string@DU?$char_traits@D@std@@V?$allocator@D@2@@std@@@Detail@Clara@Catch@@AEAU1234@@Z
	??$addressof@U?$BoundValueRef@V?$vector@V?$basic_string@DU?$char_traits@D@std@@V?$allocator@D@2@@std@@V?$allocator@V?$basic_string@DU?$char_traits@D@std@@V?$allocator@D@2@@std@@@2@@std@@@Detail@Clara@Catch@@@std@@YAPEAU?$BoundValueRef@V?$vector@V?$basic_string@DU?$char_traits@D@std@@V?$allocator@D@2@@std@@V?$allocator@V?$basic_string@DU?$char_traits@D@std@@V?$allocator@D@2@@std@@@2@@std@@@Detail@Clara@Catch@@AEAU1234@@Z
	??$addressof@U?$BoundValueRef@_J@Detail@Clara@Catch@@@std@@YAPEAU?$BoundValueRef@_J@Detail@Clara@Catch@@AEAU1234@@Z
	??$addressof@U?$_Task_impl@E@details@Concurrency@@@std@@YAPEAU?$_Task_impl@E@details@Concurrency@@AEAU123@@Z
	??$addressof@U?$pair@$$CBV?$basic_string@DU?$char_traits@D@std@@V?$allocator@D@2@@std@@UTagAlias@Catch@@@std@@@std@@YAPEAU?$pair@$$CBV?$basic_string@DU?$char_traits@D@std@@V?$allocator@D@2@@std@@UTagAlias@Catch@@@0@AEAU10@@Z
	??$addressof@U?$pair@$$CBV?$basic_string@DU?$char_traits@D@std@@V?$allocator@D@2@@std@@V12@@std@@@std@@YAPEAU?$pair@$$CBV?$basic_string@DU?$char_traits@D@std@@V?$allocator@D@2@@std@@V12@@0@AEAU10@@Z
	??$addressof@U?$pair@$$CBV?$basic_string@DU?$char_traits@D@std@@V?$allocator@D@2@@std@@V?$unique_ptr@VIReporterFactory@Catch@@@Detail@Catch@@@std@@@std@@YAPEAU?$pair@$$CBV?$basic_string@DU?$char_traits@D@std@@V?$allocator@D@2@@std@@V?$unique_ptr@VIReporterFactory@Catch@@@Detail@Catch@@@0@AEAU10@@Z
	??$addressof@U?$pair@$$CBVStringRef@Catch@@UTagInfo@2@@std@@@std@@YAPEAU?$pair@$$CBVStringRef@Catch@@UTagInfo@2@@0@AEAU10@@Z
	??$addressof@U?$pair@$$CBVStringRef@Catch@@V?$vector@PEBU?$Node@UTestCaseStats@Catch@@USectionNode@CumulativeReporterBase@2@@CumulativeReporterBase@Catch@@V?$allocator@PEBU?$Node@UTestCaseStats@Catch@@USectionNode@CumulativeReporterBase@2@@CumulativeReporterBase@Catch@@@std@@@std@@@std@@@std@@YAPEAU?$pair@$$CBVStringRef@Catch@@V?$vector@PEBU?$Node@UTestCaseStats@Catch@@USectionNode@CumulativeReporterBase@2@@CumulativeReporterBase@Catch@@V?$allocator@PEBU?$Node@UTestCaseStats@Catch@@USectionNode@CumulativeReporterBase@2@@CumulativeReporterBase@Catch@@@std@@@std@@@0@AEAU10@@Z
	??$addressof@U?$pair@HVStringRef@Catch@@@std@@@std@@YAPEAU?$pair@HVStringRef@Catch@@@0@AEAU10@@Z
	??$addressof@U?$pair@_KVTestCaseHandle@Catch@@@std@@@std@@YAPEAU?$pair@_KVTestCaseHandle@Catch@@@0@AEAU10@@Z
	??$addressof@UBoundFlagRef@Detail@Clara@Catch@@@std@@YAPEAUBoundFlagRef@Detail@Clara@Catch@@AEAU1234@@Z
	??$addressof@UFilter@TestSpec@Catch@@@std@@YAPEAUFilter@TestSpec@Catch@@AEAU123@@Z
	??$addressof@UFilterMatch@TestSpec@Catch@@@std@@YAPEAUFilterMatch@TestSpec@Catch@@AEAU123@@Z
	??$addressof@UListenerDescription@Catch@@@std@@YAPEAUListenerDescription@Catch@@AEAU12@@Z
	??$addressof@UMessageInfo@Catch@@@std@@YAPEAUMessageInfo@Catch@@AEAU12@@Z
	??$addressof@UReporterDescription@Catch@@@std@@YAPEAUReporterDescription@Catch@@AEAU12@@Z
	??$addressof@USectionEndInfo@Catch@@@std@@YAPEAUSectionEndInfo@Catch@@AEAU12@@Z
	??$addressof@UToken@Detail@Clara@Catch@@@std@@YAPEAUToken@Detail@Clara@Catch@@AEAU1234@@Z
	??$addressof@U_Container_base12@std@@@std@@YAPEAU_Container_base12@0@AEAU10@@Z
	??$addressof@U_Container_proxy@std@@@std@@YAPEAU_Container_proxy@0@AEAU10@@Z
	??$addressof@U_ExceptionHolder@details@Concurrency@@@std@@YAPEAU_ExceptionHolder@details@Concurrency@@AEAU123@@Z
	??$addressof@V?$_Builder@PEBDDV?$regex_traits@D@std@@@std@@@std@@YAPEAV?$_Builder@PEBDDV?$regex_traits@D@std@@@0@AEAV10@@Z
	??$addressof@V?$_String_val@U?$_Simple_types@D@std@@@std@@@std@@YAPEAV?$_String_val@U?$_Simple_types@D@std@@@0@AEAV10@@Z
	??$addressof@V?$_Tree@V?$_Tset_traits@PEBVTestCaseHandle@Catch@@U?$less@PEBVTestCaseHandle@Catch@@@std@@V?$allocator@PEBVTestCaseHandle@Catch@@@4@$0A@@std@@@std@@@std@@YAPEAV?$_Tree@V?$_Tset_traits@PEBVTestCaseHandle@Catch@@U?$less@PEBVTestCaseHandle@Catch@@@std@@V?$allocator@PEBVTestCaseHandle@Catch@@@4@$0A@@std@@@0@AEAV10@@Z
	??$addressof@V?$_Tree_val@U?$_Tree_simple_types@PEBUTestCaseInfo@Catch@@@std@@@std@@@std@@YAPEAV?$_Tree_val@U?$_Tree_simple_types@PEBUTestCaseInfo@Catch@@@std@@@0@AEAV10@@Z
	??$addressof@V?$_Tree_val@U?$_Tree_simple_types@PEBVTestCaseHandle@Catch@@@std@@@std@@@std@@YAPEAV?$_Tree_val@U?$_Tree_simple_types@PEBVTestCaseHandle@Catch@@@std@@@0@AEAV10@@Z
	??$addressof@V?$_Tree_val@U?$_Tree_simple_types@U?$pair@$$CBV?$basic_string@DU?$char_traits@D@std@@V?$allocator@D@2@@std@@UTagAlias@Catch@@@std@@@std@@@std@@@std@@YAPEAV?$_Tree_val@U?$_Tree_simple_types@U?$pair@$$CBV?$basic_string@DU?$char_traits@D@std@@V?$allocator@D@2@@std@@UTagAlias@Catch@@@std@@@std@@@0@AEAV10@@Z
	??$addressof@V?$_Tree_val@U?$_Tree_simple_types@U?$pair@$$CBV?$basic_string@DU?$char_traits@D@std@@V?$allocator@D@2@@std@@V12@@std@@@std@@@std@@@std@@YAPEAV?$_Tree_val@U?$_Tree_simple_types@U?$pair@$$CBV?$basic_string@DU?$char_traits@D@std@@V?$allocator@D@2@@std@@V12@@std@@@std@@@0@AEAV10@@Z
	??$addressof@V?$_Tree_val@U?$_Tree_simple_types@U?$pair@$$CBV?$basic_string@DU?$char_traits@D@std@@V?$allocator@D@2@@std@@V?$unique_ptr@VIReporterFactory@Catch@@@Detail@Catch@@@std@@@std@@@std@@@std@@YAPEAV?$_Tree_val@U?$_Tree_simple_types@U?$pair@$$CBV?$basic_string@DU?$char_traits@D@std@@V?$allocator@D@2@@std@@V?$unique_ptr@VIReporterFactory@Catch@@@Detail@Catch@@@std@@@std@@@0@AEAV10@@Z
	??$addressof@V?$_Tree_val@U?$_Tree_simple_types@U?$pair@$$CBVStringRef@Catch@@UTagInfo@2@@std@@@std@@@std@@@std@@YAPEAV?$_Tree_val@U?$_Tree_simple_types@U?$pair@$$CBVStringRef@Catch@@UTagInfo@2@@std@@@std@@@0@AEAV10@@Z
	??$addressof@V?$_Tree_val@U?$_Tree_simple_types@U?$pair@$$CBVStringRef@Catch@@V?$vector@PEBU?$Node@UTestCaseStats@Catch@@USectionNode@CumulativeReporterBase@2@@CumulativeReporterBase@Catch@@V?$allocator@PEBU?$Node@UTestCaseStats@Catch@@USectionNode@CumulativeReporterBase@2@@CumulativeReporterBase@Catch@@@std@@@std@@@std@@@std@@@std@@@std@@YAPEAV?$_Tree_val@U?$_Tree_simple_types@U?$pair@$$CBVStringRef@Catch@@V?$vector@PEBU?$Node@UTestCaseStats@Catch@@USectionNode@CumulativeReporterBase@2@@CumulativeReporterBase@Catch@@V?$allocator@PEBU?$Node@UTestCaseStats@Catch@@USectionNode@CumulativeReporterBase@2@@CumulativeReporterBase@Catch@@@std@@@std@@@std@@@std@@@0@AEAV10@@Z
	??$addressof@V?$_Tree_val@U?$_Tree_simple_types@VStringRef@Catch@@@std@@@std@@@std@@YAPEAV?$_Tree_val@U?$_Tree_simple_types@VStringRef@Catch@@@std@@@0@AEAV10@@Z
	??$addressof@V?$_Vector_val@U?$_Simple_types@I@std@@@std@@@std@@YAPEAV?$_Vector_val@U?$_Simple_types@I@std@@@0@AEAV10@@Z
	??$addressof@V?$_Vector_val@U?$_Simple_types@N@std@@@std@@@std@@YAPEAV?$_Vector_val@U?$_Simple_types@N@std@@@0@AEAV10@@Z
	??$addressof@V?$_Vector_val@U?$_Simple_types@U?$pair@_KVTestCaseHandle@Catch@@@std@@@std@@@std@@@std@@YAPEAV?$_Vector_val@U?$_Simple_types@U?$pair@_KVTestCaseHandle@Catch@@@std@@@std@@@0@AEAV10@@Z
	??$addressof@V?$_Vector_val@U?$_Simple_types@UHelpColumns@Detail@Clara@Catch@@@std@@@std@@@std@@YAPEAV?$_Vector_val@U?$_Simple_types@UHelpColumns@Detail@Clara@Catch@@@std@@@0@AEAV10@@Z
	??$addressof@V?$_Vector_val@U?$_Simple_types@UMessageInfo@Catch@@@std@@@std@@@std@@YAPEAV?$_Vector_val@U?$_Simple_types@UMessageInfo@Catch@@@std@@@0@AEAV10@@Z
	??$addressof@V?$_Vector_val@U?$_Simple_types@USectionEndInfo@Catch@@@std@@@std@@@std@@YAPEAV?$_Vector_val@U?$_Simple_types@USectionEndInfo@Catch@@@std@@@0@AEAV10@@Z
	??$addressof@V?$_Vector_val@U?$_Simple_types@USectionInfo@Catch@@@std@@@std@@@std@@YAPEAV?$_Vector_val@U?$_Simple_types@USectionInfo@Catch@@@std@@@0@AEAV10@@Z
	??$addressof@V?$_Vector_val@U?$_Simple_types@UTag@Catch@@@std@@@std@@@std@@YAPEAV?$_Vector_val@U?$_Simple_types@UTag@Catch@@@std@@@0@AEAV10@@Z
	??$addressof@V?$_Vector_val@U?$_Simple_types@UToken@Detail@Clara@Catch@@@std@@@std@@@std@@YAPEAV?$_Vector_val@U?$_Simple_types@UToken@Detail@Clara@Catch@@@std@@@0@AEAV10@@Z
	??$addressof@V?$_Vector_val@U?$_Simple_types@V?$basic_string@DU?$char_traits@D@std@@V?$allocator@D@2@@std@@@std@@@std@@@std@@YAPEAV?$_Vector_val@U?$_Simple_types@V?$basic_string@DU?$char_traits@D@std@@V?$allocator@D@2@@std@@@std@@@0@AEAV10@@Z
	??$addressof@V?$_Vector_val@U?$_Simple_types@V?$unique_ptr@USectionNode@CumulativeReporterBase@Catch@@@Detail@Catch@@@std@@@std@@@std@@YAPEAV?$_Vector_val@U?$_Simple_types@V?$unique_ptr@USectionNode@CumulativeReporterBase@Catch@@@Detail@Catch@@@std@@@0@AEAV10@@Z
	??$addressof@V?$_Vector_val@U?$_Simple_types@V?$unique_ptr@VIEventListener@Catch@@@Detail@Catch@@@std@@@std@@@std@@YAPEAV?$_Vector_val@U?$_Simple_types@V?$unique_ptr@VIEventListener@Catch@@@Detail@Catch@@@std@@@0@AEAV10@@Z
	??$addressof@V?$_Vector_val@U?$_Simple_types@V?$unique_ptr@VITracker@TestCaseTracking@Catch@@@Detail@Catch@@@std@@@std@@@std@@YAPEAV?$_Vector_val@U?$_Simple_types@V?$unique_ptr@VITracker@TestCaseTracking@Catch@@@Detail@Catch@@@std@@@0@AEAV10@@Z
	??$addressof@V?$_Vector_val@U?$_Simple_types@VArg@Clara@Catch@@@std@@@std@@@std@@YAPEAV?$_Vector_val@U?$_Simple_types@VArg@Clara@Catch@@@std@@@0@AEAV10@@Z
	??$addressof@V?$_Vector_val@U?$_Simple_types@VOpt@Clara@Catch@@@std@@@std@@@std@@YAPEAV?$_Vector_val@U?$_Simple_types@VOpt@Clara@Catch@@@std@@@0@AEAV10@@Z
	??$addressof@V?$_Vector_val@U?$_Simple_types@VStringRef@Catch@@@std@@@std@@@std@@YAPEAV?$_Vector_val@U?$_Simple_types@VStringRef@Catch@@@std@@@0@AEAV10@@Z
	??$addressof@V?$_Vector_val@U?$_Simple_types@VTestCaseHandle@Catch@@@std@@@std@@@std@@YAPEAV?$_Vector_val@U?$_Simple_types@VTestCaseHandle@Catch@@@std@@@0@AEAV10@@Z
	??$addressof@V?$basic_filebuf@DU?$char_traits@D@std@@@std@@@std@@YAPEAV?$basic_filebuf@DU?$char_traits@D@std@@@0@AEAV10@@Z
	??$addressof@V?$basic_ostream@DU?$char_traits@D@std@@@std@@@std@@YAPEAV?$basic_ostream@DU?$char_traits@D@std@@@0@AEAV10@@Z
	??$addressof@V?$basic_string@DU?$char_traits@D@std@@V?$allocator@D@2@@std@@@std@@YAPEAV?$basic_string@DU?$char_traits@D@std@@V?$allocator@D@2@@0@AEAV10@@Z
	??$addressof@V?$basic_stringbuf@DU?$char_traits@D@std@@V?$allocator@D@2@@std@@@std@@YAPEAV?$basic_stringbuf@DU?$char_traits@D@std@@V?$allocator@D@2@@0@AEAV10@@Z
	??$addressof@V?$unique_ptr@$$CBVIExceptionTranslator@Catch@@@Detail@Catch@@@std@@YAPEAV?$unique_ptr@$$CBVIExceptionTranslator@Catch@@@Detail@Catch@@AEAV123@@Z
	??$addressof@V?$unique_ptr@U?$Node@UTestCaseStats@Catch@@USectionNode@CumulativeReporterBase@2@@CumulativeReporterBase@Catch@@@Detail@Catch@@@std@@YAPEAV?$unique_ptr@U?$Node@UTestCaseStats@Catch@@USectionNode@CumulativeReporterBase@2@@CumulativeReporterBase@Catch@@@Detail@Catch@@AEAV123@@Z
	??$addressof@V?$unique_ptr@UEnumInfo@Detail@Catch@@@Detail@Catch@@@std@@YAPEAV?$unique_ptr@UEnumInfo@Detail@Catch@@@Detail@Catch@@AEAV123@@Z
	??$addressof@V?$unique_ptr@USectionNode@CumulativeReporterBase@Catch@@@Detail@Catch@@@std@@YAPEAV?$unique_ptr@USectionNode@CumulativeReporterBase@Catch@@@Detail@Catch@@AEAV123@@Z
	??$addressof@V?$unique_ptr@UTestCaseInfo@Catch@@@Detail@Catch@@@std@@YAPEAV?$unique_ptr@UTestCaseInfo@Catch@@@Detail@Catch@@AEAV123@@Z
	??$addressof@V?$unique_ptr@V?$basic_ostringstream@DU?$char_traits@D@std@@V?$allocator@D@2@@std@@@Detail@Catch@@@std@@YAPEAV?$unique_ptr@V?$basic_ostringstream@DU?$char_traits@D@std@@V?$allocator@D@2@@std@@@Detail@Catch@@AEAV123@@Z
	??$addressof@V?$unique_ptr@VEventListenerFactory@Catch@@@Detail@Catch@@@std@@YAPEAV?$unique_ptr@VEventListenerFactory@Catch@@@Detail@Catch@@AEAV123@@Z
	??$addressof@V?$unique_ptr@VIEventListener@Catch@@@Detail@Catch@@@std@@YAPEAV?$unique_ptr@VIEventListener@Catch@@@Detail@Catch@@AEAV123@@Z
	??$addressof@V?$unique_ptr@VITestInvoker@Catch@@@Detail@Catch@@@std@@YAPEAV?$unique_ptr@VITestInvoker@Catch@@@Detail@Catch@@AEAV123@@Z
	??$addressof@V?$unique_ptr@VITracker@TestCaseTracking@Catch@@@Detail@Catch@@@std@@YAPEAV?$unique_ptr@VITracker@TestCaseTracking@Catch@@@Detail@Catch@@AEAV123@@Z
	??$addressof@V?$vector@UFilter@TestSpec@Catch@@V?$allocator@UFilter@TestSpec@Catch@@@std@@@std@@@std@@YAPEAV?$vector@UFilter@TestSpec@Catch@@V?$allocator@UFilter@TestSpec@Catch@@@std@@@0@AEAV10@@Z
	??$addressof@V?$vector@UFilterMatch@TestSpec@Catch@@V?$allocator@UFilterMatch@TestSpec@Catch@@@std@@@std@@@std@@YAPEAV?$vector@UFilterMatch@TestSpec@Catch@@V?$allocator@UFilterMatch@TestSpec@Catch@@@std@@@0@AEAV10@@Z
	??$addressof@V?$vector@V?$basic_string@DU?$char_traits@D@std@@V?$allocator@D@2@@std@@V?$allocator@V?$basic_string@DU?$char_traits@D@std@@V?$allocator@D@2@@std@@@2@@std@@@std@@YAPEAV?$vector@V?$basic_string@DU?$char_traits@D@std@@V?$allocator@D@2@@std@@V?$allocator@V?$basic_string@DU?$char_traits@D@std@@V?$allocator@D@2@@std@@@2@@0@AEAV10@@Z
	??$addressof@V?$vector@V?$unique_ptr@U?$Node@UTestCaseStats@Catch@@USectionNode@CumulativeReporterBase@2@@CumulativeReporterBase@Catch@@@Detail@Catch@@V?$allocator@V?$unique_ptr@U?$Node@UTestCaseStats@Catch@@USectionNode@CumulativeReporterBase@2@@CumulativeReporterBase@Catch@@@Detail@Catch@@@std@@@std@@@std@@YAPEAV?$vector@V?$unique_ptr@U?$Node@UTestCaseStats@Catch@@USectionNode@CumulativeReporterBase@2@@CumulativeReporterBase@Catch@@@Detail@Catch@@V?$allocator@V?$unique_ptr@U?$Node@UTestCaseStats@Catch@@USectionNode@CumulativeReporterBase@2@@CumulativeReporterBase@Catch@@@Detail@Catch@@@std@@@0@AEAV10@@Z
	??$addressof@V?$vector@V?$unique_ptr@VPattern@TestSpec@Catch@@@Detail@Catch@@V?$allocator@V?$unique_ptr@VPattern@TestSpec@Catch@@@Detail@Catch@@@std@@@std@@@std@@YAPEAV?$vector@V?$unique_ptr@VPattern@TestSpec@Catch@@@Detail@Catch@@V?$allocator@V?$unique_ptr@VPattern@TestSpec@Catch@@@Detail@Catch@@@std@@@0@AEAV10@@Z
	??$addressof@V?$vector@VArg@Clara@Catch@@V?$allocator@VArg@Clara@Catch@@@std@@@std@@@std@@YAPEAV?$vector@VArg@Clara@Catch@@V?$allocator@VArg@Clara@Catch@@@std@@@0@AEAV10@@Z
	??$addressof@V?$vector@VOpt@Clara@Catch@@V?$allocator@VOpt@Clara@Catch@@@std@@@std@@@std@@YAPEAV?$vector@VOpt@Clara@Catch@@V?$allocator@VOpt@Clara@Catch@@@std@@@0@AEAV10@@Z
	??$addressof@V?$vector@VTestCaseHandle@Catch@@V?$allocator@VTestCaseHandle@Catch@@@std@@@std@@@std@@YAPEAV?$vector@VTestCaseHandle@Catch@@V?$allocator@VTestCaseHandle@Catch@@@std@@@0@AEAV10@@Z
	??$addressof@VStringRef@Catch@@@std@@YAPEAVStringRef@Catch@@AEAV12@@Z
	??$addressof@VTestCaseHandle@Catch@@@std@@YAPEAVTestCaseHandle@Catch@@AEAV12@@Z
	??$addressof@Vconst_iterator@Column@TextFlow@Catch@@@std@@YAPEAVconst_iterator@Column@TextFlow@Catch@@AEAV1234@@Z
	??$addressof@Vexception_ptr@std@@@std@@YAPEAVexception_ptr@0@AEAV10@@Z
	??$addressof@Vmutex@std@@@std@@YAPEAVmutex@0@AEAV10@@Z
	??$addressof@_K@std@@YAPEA_KAEA_K@Z
	??$advance@V?$_Tree_const_iterator@V?$_Tree_val@U?$_Tree_simple_types@PEBVTestCaseHandle@Catch@@@std@@@std@@@std@@_J@std@@YAXAEAV?$_Tree_const_iterator@V?$_Tree_val@U?$_Tree_simple_types@PEBVTestCaseHandle@Catch@@@std@@@std@@@0@_J@Z
	??$advance@V?$_Vector_const_iterator@V?$_Vector_val@U?$_Simple_types@VTestCaseHandle@Catch@@@std@@@std@@@std@@_J@std@@YAXAEAV?$_Vector_const_iterator@V?$_Vector_val@U?$_Simple_types@VTestCaseHandle@Catch@@@std@@@std@@@0@_J@Z
	??$assign@PEBD$0A@@?$basic_string@DU?$char_traits@D@std@@V?$allocator@D@2@@std@@QEAAAEAV01@QEBD0@Z
	??$atomic_compare_exchange@J@details@Concurrency@@YAJAEAU?$atomic@J@std@@JJ@Z
	??$atomic_exchange@J@details@Concurrency@@YAJAEAU?$atomic@J@std@@J@Z
	??$begin@V?$vector@UTag@Catch@@V?$allocator@UTag@Catch@@@std@@@std@@@std@@YA?AV?$_Vector_const_iterator@V?$_Vector_val@U?$_Simple_types@UTag@Catch@@@std@@@std@@@0@AEBV?$vector@UTag@Catch@@V?$allocator@UTag@Catch@@@std@@@0@@Z
	??$begin@V?$vector@UTag@Catch@@V?$allocator@UTag@Catch@@@std@@@std@@@std@@YA?AV?$_Vector_iterator@V?$_Vector_val@U?$_Simple_types@UTag@Catch@@@std@@@std@@@0@AEAV?$vector@UTag@Catch@@V?$allocator@UTag@Catch@@@std@@@0@@Z
	??$bootstrap@AEBQ6ANV?$_Vector_const_iterator@V?$_Vector_val@U?$_Simple_types@N@std@@@std@@@std@@0@Z@Detail@Benchmark@Catch@@YA?AU?$Estimate@N@12@NV?$_Vector_iterator@V?$_Vector_val@U?$_Simple_types@N@std@@@std@@@std@@0AEBV?$vector@NV?$allocator@N@std@@@5@AEBQ6ANV?$_Vector_const_iterator@V?$_Vector_val@U?$_Simple_types@N@std@@@std@@@5@2@Z@Z
	??$call_once@V<lambda_1>@?1??_GetStaticAmbientSchedulerRef@details@Concurrency@@YAAEAV?$shared_ptr@Uscheduler_interface@Concurrency@@@std@@XZ@$$V@std@@YAXAEAUonce_flag@0@$$QEAV<lambda_1>@?1??_GetStaticAmbientSchedulerRef@details@Concurrency@@YAAEAV?$shared_ptr@Uscheduler_interface@Concurrency@@@0@XZ@@Z
	??$construct@DAEAD@?$_Default_allocator_traits@V?$allocator@D@std@@@std@@SAXAEAV?$allocator@D@1@QEADAEAD@Z
	??$construct@DAEBD@?$_Default_allocator_traits@V?$allocator@D@std@@@std@@SAXAEAV?$allocator@D@1@QEADAEBD@Z
	??$construct@IAEAI@?$_Default_allocator_traits@V?$allocator@I@std@@@std@@SAXAEAV?$allocator@I@1@QEAIAEAI@Z
	??$construct@IAEBI@?$_Default_allocator_traits@V?$allocator@I@std@@@std@@SAXAEAV?$allocator@I@1@QEAIAEBI@Z
	??$construct@II@?$_Default_allocator_traits@V?$allocator@I@std@@@std@@SAXAEAV?$allocator@I@1@QEAI$$QEAI@Z
	??$construct@NAEBN@?$_Default_allocator_traits@V?$allocator@N@std@@@std@@SAXAEAV?$allocator@N@1@QEANAEBN@Z
	??$construct@NN@?$_Default_allocator_traits@V?$allocator@N@std@@@std@@SAXAEAV?$allocator@N@1@QEAN$$QEAN@Z
	??$construct@PEAUISingleton@Catch@@AEBQEAU12@@?$_Default_allocator_traits@V?$allocator@PEAUISingleton@Catch@@@std@@@std@@SAXAEAV?$allocator@PEAUISingleton@Catch@@@1@QEAPEAUISingleton@Catch@@AEBQEAU34@@Z
	??$construct@PEAUISingleton@Catch@@PEAU12@@?$_Default_allocator_traits@V?$allocator@PEAUISingleton@Catch@@@std@@@std@@SAXAEAV?$allocator@PEAUISingleton@Catch@@@1@QEAPEAUISingleton@Catch@@$$QEAPEAU34@@Z
	??$construct@PEAUSectionNode@CumulativeReporterBase@Catch@@AEBQEAU123@@?$_Default_allocator_traits@V?$allocator@PEAUSectionNode@CumulativeReporterBase@Catch@@@std@@@std@@SAXAEAV?$allocator@PEAUSectionNode@CumulativeReporterBase@Catch@@@1@QEAPEAUSectionNode@CumulativeReporterBase@Catch@@AEBQEAU345@@Z
	??$construct@PEAUSectionNode@CumulativeReporterBase@Catch@@PEAU123@@?$_Default_allocator_traits@V?$allocator@PEAUSectionNode@CumulativeReporterBase@Catch@@@std@@@std@@SAXAEAV?$allocator@PEAUSectionNode@CumulativeReporterBase@Catch@@@1@QEAPEAUSectionNode@CumulativeReporterBase@Catch@@$$QEAPEAU345@@Z
	??$construct@PEAUTestCaseInfo@Catch@@PEAU12@@?$_Default_allocator_traits@V?$allocator@PEAUTestCaseInfo@Catch@@@std@@@std@@SAXAEAV?$allocator@PEAUTestCaseInfo@Catch@@@1@QEAPEAUTestCaseInfo@Catch@@$$QEAPEAU34@@Z
	??$construct@PEAVITracker@TestCaseTracking@Catch@@PEAV123@@?$_Default_allocator_traits@V?$allocator@PEAVITracker@TestCaseTracking@Catch@@@std@@@std@@SAXAEAV?$allocator@PEAVITracker@TestCaseTracking@Catch@@@1@QEAPEAVITracker@TestCaseTracking@Catch@@$$QEAPEAV345@@Z
	??$construct@PEAX$$V@?$_Default_allocator_traits@V?$allocator@PEAX@std@@@std@@SAXAEAV?$allocator@PEAX@1@QEAPEAX@Z
	??$construct@PEAXAEAPEAX@?$_Default_allocator_traits@V?$allocator@PEAX@std@@@std@@SAXAEAV?$allocator@PEAX@1@QEAPEAXAEAPEAX@Z
	??$construct@PEAXPEAX@?$_Default_allocator_traits@V?$allocator@PEAX@std@@@std@@SAXAEAV?$allocator@PEAX@1@QEAPEAX$$QEAPEAX@Z
	??$construct@PEBU?$Node@UTestCaseStats@Catch@@USectionNode@CumulativeReporterBase@2@@CumulativeReporterBase@Catch@@PEBU123@@?$_Default_allocator_traits@V?$allocator@PEBU?$Node@UTestCaseStats@Catch@@USectionNode@CumulativeReporterBase@2@@CumulativeReporterBase@Catch@@@std@@@std@@SAXAEAV?$allocator@PEBU?$Node@UTestCaseStats@Catch@@USectionNode@CumulativeReporterBase@2@@CumulativeReporterBase@Catch@@@1@QEAPEBU?$Node@UTestCaseStats@Catch@@USectionNode@CumulativeReporterBase@2@@CumulativeReporterBase@Catch@@$$QEAPEBU345@@Z
	??$construct@PEBUTestCaseInfo@Catch@@AEBQEBU12@@?$_Default_allocator_traits@V?$allocator@U?$_Tree_node@PEBUTestCaseInfo@Catch@@PEAX@std@@@std@@@std@@SAXAEAV?$allocator@U?$_Tree_node@PEBUTestCaseInfo@Catch@@PEAX@std@@@1@QEAPEBUTestCaseInfo@Catch@@AEBQEBU34@@Z
	??$construct@PEBVTestCaseHandle@Catch@@AEAPEBV12@@?$_Default_allocator_traits@V?$allocator@PEBVTestCaseHandle@Catch@@@std@@@std@@SAXAEAV?$allocator@PEBVTestCaseHandle@Catch@@@1@QEAPEBVTestCaseHandle@Catch@@AEAPEBV34@@Z
	??$construct@PEBVTestCaseHandle@Catch@@AEAPEBV12@@?$_Default_allocator_traits@V?$allocator@U?$_Tree_node@PEBVTestCaseHandle@Catch@@PEAX@std@@@std@@@std@@SAXAEAV?$allocator@U?$_Tree_node@PEBVTestCaseHandle@Catch@@PEAX@std@@@1@QEAPEBVTestCaseHandle@Catch@@AEAPEBV34@@Z
	??$construct@PEBVTestCaseHandle@Catch@@AEBQEBV12@@?$_Default_allocator_traits@V?$allocator@U?$_Tree_node@PEBVTestCaseHandle@Catch@@PEAX@std@@@std@@@std@@SAXAEAV?$allocator@U?$_Tree_node@PEBVTestCaseHandle@Catch@@PEAX@std@@@1@QEAPEBVTestCaseHandle@Catch@@AEBQEBV34@@Z
	??$construct@PEBVTestCaseHandle@Catch@@PEBV12@@?$_Default_allocator_traits@V?$allocator@PEBVTestCaseHandle@Catch@@@std@@@std@@SAXAEAV?$allocator@PEBVTestCaseHandle@Catch@@@1@QEAPEBVTestCaseHandle@Catch@@$$QEAPEBV34@@Z
	??$construct@PEBVTestCaseHandle@Catch@@PEBV12@@?$_Default_allocator_traits@V?$allocator@U?$_Tree_node@PEBVTestCaseHandle@Catch@@PEAX@std@@@std@@@std@@SAXAEAV?$allocator@U?$_Tree_node@PEBVTestCaseHandle@Catch@@PEAX@std@@@1@QEAPEBVTestCaseHandle@Catch@@$$QEAPEBV34@@Z
	??$construct@U?$pair@$$CBV?$basic_string@DU?$char_traits@D@std@@V?$allocator@D@2@@std@@UTagAlias@Catch@@@std@@U?$pair@V?$basic_string@DU?$char_traits@D@std@@V?$allocator@D@2@@std@@UTagAlias@Catch@@@2@@?$_Default_allocator_traits@V?$allocator@U?$_Tree_node@U?$pair@$$CBV?$basic_string@DU?$char_traits@D@std@@V?$allocator@D@2@@std@@UTagAlias@Catch@@@std@@PEAX@std@@@std@@@std@@SAXAEAV?$allocator@U?$_Tree_node@U?$pair@$$CBV?$basic_string@DU?$char_traits@D@std@@V?$allocator@D@2@@std@@UTagAlias@Catch@@@std@@PEAX@std@@@1@QEAU?$pair@$$CBV?$basic_string@DU?$char_traits@D@std@@V?$allocator@D@2@@std@@UTagAlias@Catch@@@1@$$QEAU?$pair@V?$basic_string@DU?$char_traits@D@std@@V?$allocator@D@2@@std@@UTagAlias@Catch@@@1@@Z
	??$construct@U?$pair@$$CBV?$basic_string@DU?$char_traits@D@std@@V?$allocator@D@2@@std@@V12@@std@@AEAU12@@?$_Default_allocator_traits@V?$allocator@U?$_Tree_node@U?$pair@$$CBV?$basic_string@DU?$char_traits@D@std@@V?$allocator@D@2@@std@@V12@@std@@PEAX@std@@@std@@@std@@SAXAEAV?$allocator@U?$_Tree_node@U?$pair@$$CBV?$basic_string@DU?$char_traits@D@std@@V?$allocator@D@2@@std@@V12@@std@@PEAX@std@@@1@QEAU?$pair@$$CBV?$basic_string@DU?$char_traits@D@std@@V?$allocator@D@2@@std@@V12@@1@AEAU31@@Z
	??$construct@U?$pair@$$CBV?$basic_string@DU?$char_traits@D@std@@V?$allocator@D@2@@std@@V12@@std@@V?$basic_string@DU?$char_traits@D@std@@V?$allocator@D@2@@2@V32@@?$_Default_allocator_traits@V?$allocator@U?$_Tree_node@U?$pair@$$CBV?$basic_string@DU?$char_traits@D@std@@V?$allocator@D@2@@std@@V12@@std@@PEAX@std@@@std@@@std@@SAXAEAV?$allocator@U?$_Tree_node@U?$pair@$$CBV?$basic_string@DU?$char_traits@D@std@@V?$allocator@D@2@@std@@V12@@std@@PEAX@std@@@1@QEAU?$pair@$$CBV?$basic_string@DU?$char_traits@D@std@@V?$allocator@D@2@@std@@V12@@1@$$QEAV?$basic_string@DU?$char_traits@D@std@@V?$allocator@D@2@@1@2@Z
	??$construct@U?$pair@$$CBV?$basic_string@DU?$char_traits@D@std@@V?$allocator@D@2@@std@@V?$unique_ptr@VIReporterFactory@Catch@@@Detail@Catch@@@std@@AEBUpiecewise_construct_t@2@V?$tuple@$$QEAV?$basic_string@DU?$char_traits@D@std@@V?$allocator@D@2@@std@@@2@V?$tuple@$$V@2@@?$_Default_allocator_traits@V?$allocator@U?$_Tree_node@U?$pair@$$CBV?$basic_string@DU?$char_traits@D@std@@V?$allocator@D@2@@std@@V?$unique_ptr@VIReporterFactory@Catch@@@Detail@Catch@@@std@@PEAX@std@@@std@@@std@@SAXAEAV?$allocator@U?$_Tree_node@U?$pair@$$CBV?$basic_string@DU?$char_traits@D@std@@V?$allocator@D@2@@std@@V?$unique_ptr@VIReporterFactory@Catch@@@Detail@Catch@@@std@@PEAX@std@@@1@QEAU?$pair@$$CBV?$basic_string@DU?$char_traits@D@std@@V?$allocator@D@2@@std@@V?$unique_ptr@VIReporterFactory@Catch@@@Detail@Catch@@@1@AEBUpiecewise_construct_t@1@$$QEAV?$tuple@$$QEAV?$basic_string@DU?$char_traits@D@std@@V?$allocator@D@2@@std@@@1@$$QEAV?$tuple@$$V@1@@Z
	??$construct@U?$pair@$$CBV?$basic_string@DU?$char_traits@D@std@@V?$allocator@D@2@@std@@V?$unique_ptr@VIReporterFactory@Catch@@@Detail@Catch@@@std@@AEBV?$basic_string@DU?$char_traits@D@std@@V?$allocator@D@2@@2@V?$unique_ptr@VIReporterFactory@Catch@@@Detail@Catch@@@?$_Default_allocator_traits@V?$allocator@U?$_Tree_node@U?$pair@$$CBV?$basic_string@DU?$char_traits@D@std@@V?$allocator@D@2@@std@@V?$unique_ptr@VIReporterFactory@Catch@@@Detail@Catch@@@std@@PEAX@std@@@std@@@std@@SAXAEAV?$allocator@U?$_Tree_node@U?$pair@$$CBV?$basic_string@DU?$char_traits@D@std@@V?$allocator@D@2@@std@@V?$unique_ptr@VIReporterFactory@Catch@@@Detail@Catch@@@std@@PEAX@std@@@1@QEAU?$pair@$$CBV?$basic_string@DU?$char_traits@D@std@@V?$allocator@D@2@@std@@V?$unique_ptr@VIReporterFactory@Catch@@@Detail@Catch@@@1@AEBV?$basic_string@DU?$char_traits@D@std@@V?$allocator@D@2@@1@$$QEAV?$unique_ptr@VIReporterFactory@Catch@@@Detail@Catch@@@Z
	??$construct@U?$pair@$$CBVStringRef@Catch@@UTagInfo@2@@std@@U?$pair@VStringRef@Catch@@UTagInfo@2@@2@@?$_Default_allocator_traits@V?$allocator@U?$_Tree_node@U?$pair@$$CBVStringRef@Catch@@UTagInfo@2@@std@@PEAX@std@@@std@@@std@@SAXAEAV?$allocator@U?$_Tree_node@U?$pair@$$CBVStringRef@Catch@@UTagInfo@2@@std@@PEAX@std@@@1@QEAU?$pair@$$CBVStringRef@Catch@@UTagInfo@2@@1@$$QEAU?$pair@VStringRef@Catch@@UTagInfo@2@@1@@Z
	??$construct@U?$pair@$$CBVStringRef@Catch@@V?$vector@PEBU?$Node@UTestCaseStats@Catch@@USectionNode@CumulativeReporterBase@2@@CumulativeReporterBase@Catch@@V?$allocator@PEBU?$Node@UTestCaseStats@Catch@@USectionNode@CumulativeReporterBase@2@@CumulativeReporterBase@Catch@@@std@@@std@@@std@@AEBUpiecewise_construct_t@2@V?$tuple@$$QEAVStringRef@Catch@@@2@V?$tuple@$$V@2@@?$_Default_allocator_traits@V?$allocator@U?$_Tree_node@U?$pair@$$CBVStringRef@Catch@@V?$vector@PEBU?$Node@UTestCaseStats@Catch@@USectionNode@CumulativeReporterBase@2@@CumulativeReporterBase@Catch@@V?$allocator@PEBU?$Node@UTestCaseStats@Catch@@USectionNode@CumulativeReporterBase@2@@CumulativeReporterBase@Catch@@@std@@@std@@@std@@PEAX@std@@@std@@@std@@SAXAEAV?$allocator@U?$_Tree_node@U?$pair@$$CBVStringRef@Catch@@V?$vector@PEBU?$Node@UTestCaseStats@Catch@@USectionNode@CumulativeReporterBase@2@@CumulativeReporterBase@Catch@@V?$allocator@PEBU?$Node@UTestCaseStats@Catch@@USectionNode@CumulativeReporterBase@2@@CumulativeReporterBase@Catch@@@std@@@std@@@std@@PEAX@std@@@1@QEAU?$pair@$$CBVStringRef@Catch@@V?$vector@PEBU?$Node@UTestCaseStats@Catch@@USectionNode@CumulativeReporterBase@2@@CumulativeReporterBase@Catch@@V?$allocator@PEBU?$Node@UTestCaseStats@Catch@@USectionNode@CumulativeReporterBase@2@@CumulativeReporterBase@Catch@@@std@@@std@@@1@AEBUpiecewise_construct_t@1@$$QEAV?$tuple@$$QEAVStringRef@Catch@@@1@$$QEAV?$tuple@$$V@1@@Z
	??$construct@U?$pair@HVStringRef@Catch@@@std@@AEAHAEBVStringRef@Catch@@@?$_Default_allocator_traits@V?$allocator@U?$pair@HVStringRef@Catch@@@std@@@std@@@std@@SAXAEAV?$allocator@U?$pair@HVStringRef@Catch@@@std@@@1@QEAU?$pair@HVStringRef@Catch@@@1@AEAHAEBVStringRef@Catch@@@Z
	??$construct@U?$pair@HVStringRef@Catch@@@std@@U12@@?$_Default_allocator_traits@V?$allocator@U?$pair@HVStringRef@Catch@@@std@@@std@@@std@@SAXAEAV?$allocator@U?$pair@HVStringRef@Catch@@@std@@@1@QEAU?$pair@HVStringRef@Catch@@@1@$$QEAU31@@Z
	??$construct@U?$pair@_KVTestCaseHandle@Catch@@@std@@IAEBVTestCaseHandle@Catch@@@?$_Default_allocator_traits@V?$allocator@U?$pair@_KVTestCaseHandle@Catch@@@std@@@std@@@std@@SAXAEAV?$allocator@U?$pair@_KVTestCaseHandle@Catch@@@std@@@1@QEAU?$pair@_KVTestCaseHandle@Catch@@@1@$$QEAIAEBVTestCaseHandle@Catch@@@Z
	??$construct@U?$pair@_KVTestCaseHandle@Catch@@@std@@U12@@?$_Default_allocator_traits@V?$allocator@U?$pair@_KVTestCaseHandle@Catch@@@std@@@std@@@std@@SAXAEAV?$allocator@U?$pair@_KVTestCaseHandle@Catch@@@std@@@1@QEAU?$pair@_KVTestCaseHandle@Catch@@@1@$$QEAU31@@Z
	??$construct@UFilter@TestSpec@Catch@@U123@@?$_Default_allocator_traits@V?$allocator@UFilter@TestSpec@Catch@@@std@@@std@@SAXAEAV?$allocator@UFilter@TestSpec@Catch@@@1@QEAUFilter@TestSpec@Catch@@$$QEAU345@@Z
	??$construct@UFilterMatch@TestSpec@Catch@@U123@@?$_Default_allocator_traits@V?$allocator@UFilterMatch@TestSpec@Catch@@@std@@@std@@SAXAEAV?$allocator@UFilterMatch@TestSpec@Catch@@@1@QEAUFilterMatch@TestSpec@Catch@@$$QEAU345@@Z
	??$construct@UHelpColumns@Detail@Clara@Catch@@AEAU1234@@?$_Default_allocator_traits@V?$allocator@UHelpColumns@Detail@Clara@Catch@@@std@@@std@@SAXAEAV?$allocator@UHelpColumns@Detail@Clara@Catch@@@1@QEAUHelpColumns@Detail@Clara@Catch@@AEAU3456@@Z
	??$construct@UHelpColumns@Detail@Clara@Catch@@AEBU1234@@?$_Default_allocator_traits@V?$allocator@UHelpColumns@Detail@Clara@Catch@@@std@@@std@@SAXAEAV?$allocator@UHelpColumns@Detail@Clara@Catch@@@1@QEAUHelpColumns@Detail@Clara@Catch@@AEBU3456@@Z
	??$construct@UHelpColumns@Detail@Clara@Catch@@U1234@@?$_Default_allocator_traits@V?$allocator@UHelpColumns@Detail@Clara@Catch@@@std@@@std@@SAXAEAV?$allocator@UHelpColumns@Detail@Clara@Catch@@@1@QEAUHelpColumns@Detail@Clara@Catch@@$$QEAU3456@@Z
	??$construct@UListenerDescription@Catch@@U12@@?$_Default_allocator_traits@V?$allocator@UListenerDescription@Catch@@@std@@@std@@SAXAEAV?$allocator@UListenerDescription@Catch@@@1@QEAUListenerDescription@Catch@@$$QEAU34@@Z
	??$construct@UMessageInfo@Catch@@AEAU12@@?$_Default_allocator_traits@V?$allocator@UMessageInfo@Catch@@@std@@@std@@SAXAEAV?$allocator@UMessageInfo@Catch@@@1@QEAUMessageInfo@Catch@@AEAU34@@Z
	??$construct@UMessageInfo@Catch@@AEAVStringRef@2@AEBUSourceLineInfo@2@AEAW4OfType@ResultWas@2@@?$_Default_allocator_traits@V?$allocator@UMessageInfo@Catch@@@std@@@std@@SAXAEAV?$allocator@UMessageInfo@Catch@@@1@QEAUMessageInfo@Catch@@AEAVStringRef@4@AEBUSourceLineInfo@4@AEAW4OfType@ResultWas@4@@Z
	??$construct@UMessageInfo@Catch@@AEBU12@@?$_Default_allocator_traits@V?$allocator@UMessageInfo@Catch@@@std@@@std@@SAXAEAV?$allocator@UMessageInfo@Catch@@@1@QEAUMessageInfo@Catch@@AEBU34@@Z
	??$construct@UMessageInfo@Catch@@U12@@?$_Default_allocator_traits@V?$allocator@UMessageInfo@Catch@@@std@@@std@@SAXAEAV?$allocator@UMessageInfo@Catch@@@1@QEAUMessageInfo@Catch@@$$QEAU34@@Z
	??$construct@UProcessedReporterSpec@Catch@@AEAU12@@?$_Default_allocator_traits@V?$allocator@UProcessedReporterSpec@Catch@@@std@@@std@@SAXAEAV?$allocator@UProcessedReporterSpec@Catch@@@1@QEAUProcessedReporterSpec@Catch@@AEAU34@@Z
	??$construct@UProcessedReporterSpec@Catch@@U12@@?$_Default_allocator_traits@V?$allocator@UProcessedReporterSpec@Catch@@@std@@@std@@SAXAEAV?$allocator@UProcessedReporterSpec@Catch@@@1@QEAUProcessedReporterSpec@Catch@@$$QEAU34@@Z
	??$construct@UReporterDescription@Catch@@U12@@?$_Default_allocator_traits@V?$allocator@UReporterDescription@Catch@@@std@@@std@@SAXAEAV?$allocator@UReporterDescription@Catch@@@1@QEAUReporterDescription@Catch@@$$QEAU34@@Z
	??$construct@USectionEndInfo@Catch@@U12@@?$_Default_allocator_traits@V?$allocator@USectionEndInfo@Catch@@@std@@@std@@SAXAEAV?$allocator@USectionEndInfo@Catch@@@1@QEAUSectionEndInfo@Catch@@$$QEAU34@@Z
	??$construct@USectionInfo@Catch@@AEBU12@@?$_Default_allocator_traits@V?$allocator@USectionInfo@Catch@@@std@@@std@@SAXAEAV?$allocator@USectionInfo@Catch@@@1@QEAUSectionInfo@Catch@@AEBU34@@Z
	??$construct@USectionInfo@Catch@@U12@@?$_Default_allocator_traits@V?$allocator@USectionInfo@Catch@@@std@@@std@@SAXAEAV?$allocator@USectionInfo@Catch@@@1@QEAUSectionInfo@Catch@@$$QEAU34@@Z
	??$construct@UTag@Catch@@U12@@?$_Default_allocator_traits@V?$allocator@UTag@Catch@@@std@@@std@@SAXAEAV?$allocator@UTag@Catch@@@1@QEAUTag@Catch@@$$QEAU34@@Z
	??$construct@UTag@Catch@@VStringRef@2@@?$_Default_allocator_traits@V?$allocator@UTag@Catch@@@std@@@std@@SAXAEAV?$allocator@UTag@Catch@@@1@QEAUTag@Catch@@$$QEAVStringRef@4@@Z
	??$construct@UTagInfo@Catch@@AEAU12@@?$_Default_allocator_traits@V?$allocator@UTagInfo@Catch@@@std@@@std@@SAXAEAV?$allocator@UTagInfo@Catch@@@1@QEAUTagInfo@Catch@@AEAU34@@Z
	??$construct@UTagInfo@Catch@@U12@@?$_Default_allocator_traits@V?$allocator@UTagInfo@Catch@@@std@@@std@@SAXAEAV?$allocator@UTagInfo@Catch@@@1@QEAUTagInfo@Catch@@$$QEAU34@@Z
	??$construct@UToken@Detail@Clara@Catch@@AEAU1234@@?$_Default_allocator_traits@V?$allocator@UToken@Detail@Clara@Catch@@@std@@@std@@SAXAEAV?$allocator@UToken@Detail@Clara@Catch@@@1@QEAUToken@Detail@Clara@Catch@@AEAU3456@@Z
	??$construct@UToken@Detail@Clara@Catch@@U1234@@?$_Default_allocator_traits@V?$allocator@UToken@Detail@Clara@Catch@@@std@@@std@@SAXAEAV?$allocator@UToken@Detail@Clara@Catch@@@1@QEAUToken@Detail@Clara@Catch@@$$QEAU3456@@Z
	??$construct@U_Grp_t@?$_Tgt_state_t@PEBD@std@@$$V@?$_Default_allocator_traits@V?$allocator@U_Grp_t@?$_Tgt_state_t@PEBD@std@@@std@@@std@@SAXAEAV?$allocator@U_Grp_t@?$_Tgt_state_t@PEBD@std@@@1@QEAU_Grp_t@?$_Tgt_state_t@PEBD@1@@Z
	??$construct@U_Grp_t@?$_Tgt_state_t@PEBD@std@@AEAU123@@?$_Default_allocator_traits@V?$allocator@U_Grp_t@?$_Tgt_state_t@PEBD@std@@@std@@@std@@SAXAEAV?$allocator@U_Grp_t@?$_Tgt_state_t@PEBD@std@@@1@QEAU_Grp_t@?$_Tgt_state_t@PEBD@1@AEAU341@@Z
	??$construct@U_Grp_t@?$_Tgt_state_t@PEBD@std@@U123@@?$_Default_allocator_traits@V?$allocator@U_Grp_t@?$_Tgt_state_t@PEBD@std@@@std@@@std@@SAXAEAV?$allocator@U_Grp_t@?$_Tgt_state_t@PEBD@std@@@1@QEAU_Grp_t@?$_Tgt_state_t@PEBD@1@$$QEAU341@@Z
	??$construct@U_Loop_vals_t@std@@$$V@?$_Default_allocator_traits@V?$allocator@U_Loop_vals_t@std@@@std@@@std@@SAXAEAV?$allocator@U_Loop_vals_t@std@@@1@QEAU_Loop_vals_t@1@@Z
	??$construct@U_Loop_vals_t@std@@U12@@?$_Default_allocator_traits@V?$allocator@U_Loop_vals_t@std@@@std@@@std@@SAXAEAV?$allocator@U_Loop_vals_t@std@@@1@QEAU_Loop_vals_t@1@$$QEAU31@@Z
	??$construct@V?$basic_string@DU?$char_traits@D@std@@V?$allocator@D@2@@std@@$$V@?$_Default_allocator_traits@V?$allocator@V?$basic_string@DU?$char_traits@D@std@@V?$allocator@D@2@@std@@@std@@@std@@SAXAEAV?$allocator@V?$basic_string@DU?$char_traits@D@std@@V?$allocator@D@2@@std@@@1@QEAV?$basic_string@DU?$char_traits@D@std@@V?$allocator@D@2@@1@@Z
	??$construct@V?$basic_string@DU?$char_traits@D@std@@V?$allocator@D@2@@std@@AEAV12@@?$_Default_allocator_traits@V?$allocator@V?$basic_string@DU?$char_traits@D@std@@V?$allocator@D@2@@std@@@std@@@std@@SAXAEAV?$allocator@V?$basic_string@DU?$char_traits@D@std@@V?$allocator@D@2@@std@@@1@QEAV?$basic_string@DU?$char_traits@D@std@@V?$allocator@D@2@@1@AEAV31@@Z
	??$construct@V?$basic_string@DU?$char_traits@D@std@@V?$allocator@D@2@@std@@AEAY01$$CBD@?$_Default_allocator_traits@V?$allocator@V?$basic_string@DU?$char_traits@D@std@@V?$allocator@D@2@@std@@@std@@@std@@SAXAEAV?$allocator@V?$basic_string@DU?$char_traits@D@std@@V?$allocator@D@2@@std@@@1@QEAV?$basic_string@DU?$char_traits@D@std@@V?$allocator@D@2@@1@AEAY01$$CBD@Z
	??$construct@V?$basic_string@DU?$char_traits@D@std@@V?$allocator@D@2@@std@@AEBQEBD@?$_Default_allocator_traits@V?$allocator@V?$basic_string@DU?$char_traits@D@std@@V?$allocator@D@2@@std@@@std@@@std@@SAXAEAV?$allocator@V?$basic_string@DU?$char_traits@D@std@@V?$allocator@D@2@@std@@@1@QEAV?$basic_string@DU?$char_traits@D@std@@V?$allocator@D@2@@1@AEBQEBD@Z
	??$construct@V?$basic_string@DU?$char_traits@D@std@@V?$allocator@D@2@@std@@AEBV12@@?$_Default_allocator_traits@V?$allocator@V?$basic_string@DU?$char_traits@D@std@@V?$allocator@D@2@@std@@@std@@@std@@SAXAEAV?$allocator@V?$basic_string@DU?$char_traits@D@std@@V?$allocator@D@2@@std@@@1@QEAV?$basic_string@DU?$char_traits@D@std@@V?$allocator@D@2@@1@AEBV31@@Z
	??$construct@V?$basic_string@DU?$char_traits@D@std@@V?$allocator@D@2@@std@@V12@@?$_Default_allocator_traits@V?$allocator@V?$basic_string@DU?$char_traits@D@std@@V?$allocator@D@2@@std@@@std@@@std@@SAXAEAV?$allocator@V?$basic_string@DU?$char_traits@D@std@@V?$allocator@D@2@@std@@@1@QEAV?$basic_string@DU?$char_traits@D@std@@V?$allocator@D@2@@1@$$QEAV31@@Z
	??$construct@V?$duration@NU?$ratio@$00$0DLJKMKAA@@std@@@chrono@std@@AEAV123@@?$_Default_allocator_traits@V?$allocator@V?$duration@NU?$ratio@$00$0DLJKMKAA@@std@@@chrono@std@@@std@@@std@@SAXAEAV?$allocator@V?$duration@NU?$ratio@$00$0DLJKMKAA@@std@@@chrono@std@@@1@QEAV?$duration@NU?$ratio@$00$0DLJKMKAA@@std@@@chrono@1@AEAV341@@Z
	??$construct@V?$sub_match@PEBD@std@@$$V@?$_Default_allocator_traits@V?$allocator@V?$sub_match@PEBD@std@@@std@@@std@@SAXAEAV?$allocator@V?$sub_match@PEBD@std@@@1@QEAV?$sub_match@PEBD@1@@Z
	??$construct@V?$sub_match@PEBD@std@@V12@@?$_Default_allocator_traits@V?$allocator@V?$sub_match@PEBD@std@@@std@@@std@@SAXAEAV?$allocator@V?$sub_match@PEBD@std@@@1@QEAV?$sub_match@PEBD@1@$$QEAV31@@Z
	??$construct@V?$unique_ptr@$$CBVIExceptionTranslator@Catch@@@Detail@Catch@@V123@@?$_Default_allocator_traits@V?$allocator@V?$unique_ptr@$$CBVIExceptionTranslator@Catch@@@Detail@Catch@@@std@@@std@@SAXAEAV?$allocator@V?$unique_ptr@$$CBVIExceptionTranslator@Catch@@@Detail@Catch@@@1@QEAV?$unique_ptr@$$CBVIExceptionTranslator@Catch@@@Detail@Catch@@$$QEAV345@@Z
	??$construct@V?$unique_ptr@U?$Node@UTestCaseStats@Catch@@USectionNode@CumulativeReporterBase@2@@CumulativeReporterBase@Catch@@@Detail@Catch@@V123@@?$_Default_allocator_traits@V?$allocator@V?$unique_ptr@U?$Node@UTestCaseStats@Catch@@USectionNode@CumulativeReporterBase@2@@CumulativeReporterBase@Catch@@@Detail@Catch@@@std@@@std@@SAXAEAV?$allocator@V?$unique_ptr@U?$Node@UTestCaseStats@Catch@@USectionNode@CumulativeReporterBase@2@@CumulativeReporterBase@Catch@@@Detail@Catch@@@1@QEAV?$unique_ptr@U?$Node@UTestCaseStats@Catch@@USectionNode@CumulativeReporterBase@2@@CumulativeReporterBase@Catch@@@Detail@Catch@@$$QEAV345@@Z
	??$construct@V?$unique_ptr@UEnumInfo@Detail@Catch@@@Detail@Catch@@V123@@?$_Default_allocator_traits@V?$allocator@V?$unique_ptr@UEnumInfo@Detail@Catch@@@Detail@Catch@@@std@@@std@@SAXAEAV?$allocator@V?$unique_ptr@UEnumInfo@Detail@Catch@@@Detail@Catch@@@1@QEAV?$unique_ptr@UEnumInfo@Detail@Catch@@@Detail@Catch@@$$QEAV345@@Z
	??$construct@V?$unique_ptr@USectionNode@CumulativeReporterBase@Catch@@@Detail@Catch@@V123@@?$_Default_allocator_traits@V?$allocator@V?$unique_ptr@USectionNode@CumulativeReporterBase@Catch@@@Detail@Catch@@@std@@@std@@SAXAEAV?$allocator@V?$unique_ptr@USectionNode@CumulativeReporterBase@Catch@@@Detail@Catch@@@1@QEAV?$unique_ptr@USectionNode@CumulativeReporterBase@Catch@@@Detail@Catch@@$$QEAV345@@Z
	??$construct@V?$unique_ptr@UTestCaseInfo@Catch@@@Detail@Catch@@V123@@?$_Default_allocator_traits@V?$allocator@V?$unique_ptr@UTestCaseInfo@Catch@@@Detail@Catch@@@std@@@std@@SAXAEAV?$allocator@V?$unique_ptr@UTestCaseInfo@Catch@@@Detail@Catch@@@1@QEAV?$unique_ptr@UTestCaseInfo@Catch@@@Detail@Catch@@$$QEAV345@@Z
	??$construct@V?$unique_ptr@V?$basic_ostringstream@DU?$char_traits@D@std@@V?$allocator@D@2@@std@@@Detail@Catch@@V123@@?$_Default_allocator_traits@V?$allocator@V?$unique_ptr@V?$basic_ostringstream@DU?$char_traits@D@std@@V?$allocator@D@2@@std@@@Detail@Catch@@@std@@@std@@SAXAEAV?$allocator@V?$unique_ptr@V?$basic_ostringstream@DU?$char_traits@D@std@@V?$allocator@D@2@@std@@@Detail@Catch@@@1@QEAV?$unique_ptr@V?$basic_ostringstream@DU?$char_traits@D@std@@V?$allocator@D@2@@std@@@Detail@Catch@@$$QEAV345@@Z
	??$construct@V?$unique_ptr@VEventListenerFactory@Catch@@@Detail@Catch@@V123@@?$_Default_allocator_traits@V?$allocator@V?$unique_ptr@VEventListenerFactory@Catch@@@Detail@Catch@@@std@@@std@@SAXAEAV?$allocator@V?$unique_ptr@VEventListenerFactory@Catch@@@Detail@Catch@@@1@QEAV?$unique_ptr@VEventListenerFactory@Catch@@@Detail@Catch@@$$QEAV345@@Z
	??$construct@V?$unique_ptr@VIEventListener@Catch@@@Detail@Catch@@V123@@?$_Default_allocator_traits@V?$allocator@V?$unique_ptr@VIEventListener@Catch@@@Detail@Catch@@@std@@@std@@SAXAEAV?$allocator@V?$unique_ptr@VIEventListener@Catch@@@Detail@Catch@@@1@QEAV?$unique_ptr@VIEventListener@Catch@@@Detail@Catch@@$$QEAV345@@Z
	??$construct@V?$unique_ptr@VITestInvoker@Catch@@@Detail@Catch@@V123@@?$_Default_allocator_traits@V?$allocator@V?$unique_ptr@VITestInvoker@Catch@@@Detail@Catch@@@std@@@std@@SAXAEAV?$allocator@V?$unique_ptr@VITestInvoker@Catch@@@Detail@Catch@@@1@QEAV?$unique_ptr@VITestInvoker@Catch@@@Detail@Catch@@$$QEAV345@@Z
	??$construct@V?$unique_ptr@VITracker@TestCaseTracking@Catch@@@Detail@Catch@@V123@@?$_Default_allocator_traits@V?$allocator@V?$unique_ptr@VITracker@TestCaseTracking@Catch@@@Detail@Catch@@@std@@@std@@SAXAEAV?$allocator@V?$unique_ptr@VITracker@TestCaseTracking@Catch@@@Detail@Catch@@@1@QEAV?$unique_ptr@VITracker@TestCaseTracking@Catch@@@Detail@Catch@@$$QEAV345@@Z
	??$construct@V?$unique_ptr@VPattern@TestSpec@Catch@@@Detail@Catch@@V123@@?$_Default_allocator_traits@V?$allocator@V?$unique_ptr@VPattern@TestSpec@Catch@@@Detail@Catch@@@std@@@std@@SAXAEAV?$allocator@V?$unique_ptr@VPattern@TestSpec@Catch@@@Detail@Catch@@@1@QEAV?$unique_ptr@VPattern@TestSpec@Catch@@@Detail@Catch@@$$QEAV345@@Z
	??$construct@V?$unique_ptr@VPattern@TestSpec@Catch@@@Detail@Catch@@V?$unique_ptr@VNamePattern@TestSpec@Catch@@@23@@?$_Default_allocator_traits@V?$allocator@V?$unique_ptr@VPattern@TestSpec@Catch@@@Detail@Catch@@@std@@@std@@SAXAEAV?$allocator@V?$unique_ptr@VPattern@TestSpec@Catch@@@Detail@Catch@@@1@QEAV?$unique_ptr@VPattern@TestSpec@Catch@@@Detail@Catch@@$$QEAV?$unique_ptr@VNamePattern@TestSpec@Catch@@@45@@Z
	??$construct@V?$unique_ptr@VPattern@TestSpec@Catch@@@Detail@Catch@@V?$unique_ptr@VTagPattern@TestSpec@Catch@@@23@@?$_Default_allocator_traits@V?$allocator@V?$unique_ptr@VPattern@TestSpec@Catch@@@Detail@Catch@@@std@@@std@@SAXAEAV?$allocator@V?$unique_ptr@VPattern@TestSpec@Catch@@@Detail@Catch@@@1@QEAV?$unique_ptr@VPattern@TestSpec@Catch@@@Detail@Catch@@$$QEAV?$unique_ptr@VTagPattern@TestSpec@Catch@@@45@@Z
	??$construct@VArg@Clara@Catch@@AEAV123@@?$_Default_allocator_traits@V?$allocator@VArg@Clara@Catch@@@std@@@std@@SAXAEAV?$allocator@VArg@Clara@Catch@@@1@QEAVArg@Clara@Catch@@AEAV345@@Z
	??$construct@VArg@Clara@Catch@@AEBV123@@?$_Default_allocator_traits@V?$allocator@VArg@Clara@Catch@@@std@@@std@@SAXAEAV?$allocator@VArg@Clara@Catch@@@1@QEAVArg@Clara@Catch@@AEBV345@@Z
	??$construct@VArg@Clara@Catch@@V123@@?$_Default_allocator_traits@V?$allocator@VArg@Clara@Catch@@@std@@@std@@SAXAEAV?$allocator@VArg@Clara@Catch@@@1@QEAVArg@Clara@Catch@@$$QEAV345@@Z
	??$construct@VAssertionOrBenchmarkResult@Detail@Catch@@AEAV123@@?$_Default_allocator_traits@V?$allocator@VAssertionOrBenchmarkResult@Detail@Catch@@@std@@@std@@SAXAEAV?$allocator@VAssertionOrBenchmarkResult@Detail@Catch@@@1@QEAVAssertionOrBenchmarkResult@Detail@Catch@@AEAV345@@Z
	??$construct@VAssertionOrBenchmarkResult@Detail@Catch@@AEBU?$BenchmarkStats@V?$duration@NU?$ratio@$00$0DLJKMKAA@@std@@@chrono@std@@@3@@?$_Default_allocator_traits@V?$allocator@VAssertionOrBenchmarkResult@Detail@Catch@@@std@@@std@@SAXAEAV?$allocator@VAssertionOrBenchmarkResult@Detail@Catch@@@1@QEAVAssertionOrBenchmarkResult@Detail@Catch@@AEBU?$BenchmarkStats@V?$duration@NU?$ratio@$00$0DLJKMKAA@@std@@@chrono@std@@@5@@Z
	??$construct@VAssertionOrBenchmarkResult@Detail@Catch@@AEBUAssertionStats@3@@?$_Default_allocator_traits@V?$allocator@VAssertionOrBenchmarkResult@Detail@Catch@@@std@@@std@@SAXAEAV?$allocator@VAssertionOrBenchmarkResult@Detail@Catch@@@1@QEAVAssertionOrBenchmarkResult@Detail@Catch@@AEBUAssertionStats@5@@Z
	??$construct@VAssertionOrBenchmarkResult@Detail@Catch@@V123@@?$_Default_allocator_traits@V?$allocator@VAssertionOrBenchmarkResult@Detail@Catch@@@std@@@std@@SAXAEAV?$allocator@VAssertionOrBenchmarkResult@Detail@Catch@@@1@QEAVAssertionOrBenchmarkResult@Detail@Catch@@$$QEAV345@@Z
	??$construct@VColumn@TextFlow@Catch@@AEAV123@@?$_Default_allocator_traits@V?$allocator@VColumn@TextFlow@Catch@@@std@@@std@@SAXAEAV?$allocator@VColumn@TextFlow@Catch@@@1@QEAVColumn@TextFlow@Catch@@AEAV345@@Z
	??$construct@VColumn@TextFlow@Catch@@AEBV123@@?$_Default_allocator_traits@V?$allocator@VColumn@TextFlow@Catch@@@std@@@std@@SAXAEAV?$allocator@VColumn@TextFlow@Catch@@@1@QEAVColumn@TextFlow@Catch@@AEBV345@@Z
	??$construct@VColumn@TextFlow@Catch@@V123@@?$_Default_allocator_traits@V?$allocator@VColumn@TextFlow@Catch@@@std@@@std@@SAXAEAV?$allocator@VColumn@TextFlow@Catch@@@1@QEAVColumn@TextFlow@Catch@@$$QEAV345@@Z
	??$construct@VOpt@Clara@Catch@@AEAV123@@?$_Default_allocator_traits@V?$allocator@VOpt@Clara@Catch@@@std@@@std@@SAXAEAV?$allocator@VOpt@Clara@Catch@@@1@QEAVOpt@Clara@Catch@@AEAV345@@Z
	??$construct@VOpt@Clara@Catch@@AEBV123@@?$_Default_allocator_traits@V?$allocator@VOpt@Clara@Catch@@@std@@@std@@SAXAEAV?$allocator@VOpt@Clara@Catch@@@1@QEAVOpt@Clara@Catch@@AEBV345@@Z
	??$construct@VOpt@Clara@Catch@@V123@@?$_Default_allocator_traits@V?$allocator@VOpt@Clara@Catch@@@std@@@std@@SAXAEAV?$allocator@VOpt@Clara@Catch@@@1@QEAVOpt@Clara@Catch@@$$QEAV345@@Z
	??$construct@VReporterSpec@Catch@@AEAV12@@?$_Default_allocator_traits@V?$allocator@VReporterSpec@Catch@@@std@@@std@@SAXAEAV?$allocator@VReporterSpec@Catch@@@1@QEAVReporterSpec@Catch@@AEAV34@@Z
	??$construct@VReporterSpec@Catch@@V12@@?$_Default_allocator_traits@V?$allocator@VReporterSpec@Catch@@@std@@@std@@SAXAEAV?$allocator@VReporterSpec@Catch@@@1@QEAVReporterSpec@Catch@@$$QEAV34@@Z
	??$construct@VScopedMessage@Catch@@UMessageBuilder@2@@?$_Default_allocator_traits@V?$allocator@VScopedMessage@Catch@@@std@@@std@@SAXAEAV?$allocator@VScopedMessage@Catch@@@1@QEAVScopedMessage@Catch@@$$QEAUMessageBuilder@4@@Z
	??$construct@VScopedMessage@Catch@@V12@@?$_Default_allocator_traits@V?$allocator@VScopedMessage@Catch@@@std@@@std@@SAXAEAV?$allocator@VScopedMessage@Catch@@@1@QEAVScopedMessage@Catch@@$$QEAV34@@Z
	??$construct@VStringRef@Catch@@AEAV12@@?$_Default_allocator_traits@V?$allocator@U?$_Tree_node@VStringRef@Catch@@PEAX@std@@@std@@@std@@SAXAEAV?$allocator@U?$_Tree_node@VStringRef@Catch@@PEAX@std@@@1@QEAVStringRef@Catch@@AEAV34@@Z
	??$construct@VStringRef@Catch@@AEBV12@@?$_Default_allocator_traits@V?$allocator@U?$_Tree_node@VStringRef@Catch@@PEAX@std@@@std@@@std@@SAXAEAV?$allocator@U?$_Tree_node@VStringRef@Catch@@PEAX@std@@@1@QEAVStringRef@Catch@@AEBV34@@Z
	??$construct@VStringRef@Catch@@AEBV12@@?$_Default_allocator_traits@V?$allocator@VStringRef@Catch@@@std@@@std@@SAXAEAV?$allocator@VStringRef@Catch@@@1@QEAVStringRef@Catch@@AEBV34@@Z
	??$construct@VStringRef@Catch@@AEBV?$basic_string@DU?$char_traits@D@std@@V?$allocator@D@2@@std@@@?$_Default_allocator_traits@V?$allocator@VStringRef@Catch@@@std@@@std@@SAXAEAV?$allocator@VStringRef@Catch@@@1@QEAVStringRef@Catch@@AEBV?$basic_string@DU?$char_traits@D@std@@V?$allocator@D@2@@1@@Z
	??$construct@VStringRef@Catch@@V12@@?$_Default_allocator_traits@V?$allocator@VStringRef@Catch@@@std@@@std@@SAXAEAV?$allocator@VStringRef@Catch@@@1@QEAVStringRef@Catch@@$$QEAV34@@Z
	??$construct@VTestCaseHandle@Catch@@AEAV12@@?$_Default_allocator_traits@V?$allocator@VTestCaseHandle@Catch@@@std@@@std@@SAXAEAV?$allocator@VTestCaseHandle@Catch@@@1@QEAVTestCaseHandle@Catch@@AEAV34@@Z
	??$construct@VTestCaseHandle@Catch@@AEBV12@@?$_Default_allocator_traits@V?$allocator@VTestCaseHandle@Catch@@@std@@@std@@SAXAEAV?$allocator@VTestCaseHandle@Catch@@@1@QEAVTestCaseHandle@Catch@@AEBV34@@Z
	??$construct@VTestCaseHandle@Catch@@PEAUTestCaseInfo@2@PEAVITestInvoker@2@@?$_Default_allocator_traits@V?$allocator@VTestCaseHandle@Catch@@@std@@@std@@SAXAEAV?$allocator@VTestCaseHandle@Catch@@@1@QEAVTestCaseHandle@Catch@@$$QEAPEAUTestCaseInfo@4@$$QEAPEAVITestInvoker@4@@Z
	??$construct@VTestCaseHandle@Catch@@V12@@?$_Default_allocator_traits@V?$allocator@VTestCaseHandle@Catch@@@std@@@std@@SAXAEAV?$allocator@VTestCaseHandle@Catch@@@1@QEAVTestCaseHandle@Catch@@$$QEAV34@@Z
	??$construct@Vconst_iterator@Column@TextFlow@Catch@@AEAV1234@@?$_Default_allocator_traits@V?$allocator@Vconst_iterator@Column@TextFlow@Catch@@@std@@@std@@SAXAEAV?$allocator@Vconst_iterator@Column@TextFlow@Catch@@@1@QEAVconst_iterator@Column@TextFlow@Catch@@AEAV3456@@Z
	??$construct@Vconst_iterator@Column@TextFlow@Catch@@V1234@@?$_Default_allocator_traits@V?$allocator@Vconst_iterator@Column@TextFlow@Catch@@@std@@@std@@SAXAEAV?$allocator@Vconst_iterator@Column@TextFlow@Catch@@@1@QEAVconst_iterator@Column@TextFlow@Catch@@$$QEAV3456@@Z
	??$construct@Vexception_ptr@std@@AEBV12@@?$_Default_allocator_traits@V?$allocator@Vexception_ptr@std@@@std@@@std@@SAXAEAV?$allocator@Vexception_ptr@std@@@1@QEAVexception_ptr@1@AEBV31@@Z
	??$construct@Vexception_ptr@std@@V12@@?$_Default_allocator_traits@V?$allocator@Vexception_ptr@std@@@std@@@std@@SAXAEAV?$allocator@Vexception_ptr@std@@@1@QEAVexception_ptr@1@$$QEAV31@@Z
	??$construct@_KAEB_K@?$_Default_allocator_traits@V?$allocator@_K@std@@@std@@SAXAEAV?$allocator@_K@1@QEA_KAEB_K@Z
	??$construct@_K_K@?$_Default_allocator_traits@V?$allocator@_K@std@@@std@@SAXAEAV?$allocator@_K@1@QEA_K$$QEA_K@Z
	??$convert@USourceLineInfo@Catch@@@?$StringMaker@USourceLineInfo@Catch@@X@Catch@@SA?AV?$basic_string@DU?$char_traits@D@std@@V?$allocator@D@2@@std@@AEBUSourceLineInfo@1@@Z
	??$convertInto@H@Detail@Clara@Catch@@YA?AV?$BasicResult@W4ParseResultType@Clara@Catch@@@012@AEBV?$basic_string@DU?$char_traits@D@std@@V?$allocator@D@2@@std@@AEAH@Z
	??$convertInto@I@Detail@Clara@Catch@@YA?AV?$BasicResult@W4ParseResultType@Clara@Catch@@@012@AEBV?$basic_string@DU?$char_traits@D@std@@V?$allocator@D@2@@std@@AEAI@Z
	??$convertInto@N@Detail@Clara@Catch@@YA?AV?$BasicResult@W4ParseResultType@Clara@Catch@@@012@AEBV?$basic_string@DU?$char_traits@D@std@@V?$allocator@D@2@@std@@AEAN@Z
	??$convertInto@_J@Detail@Clara@Catch@@YA?AV?$BasicResult@W4ParseResultType@Clara@Catch@@@012@AEBV?$basic_string@DU?$char_traits@D@std@@V?$allocator@D@2@@std@@AEA_J@Z
	??$copy@V?$_Vb_iterator@U?$_Wrap_alloc@V?$allocator@I@std@@@std@@@std@@V12@@std@@YA?AV?$_Vb_iterator@U?$_Wrap_alloc@V?$allocator@I@std@@@std@@@0@V10@00@Z
	??$copy_backward@V?$_Vb_iterator@U?$_Wrap_alloc@V?$allocator@I@std@@@std@@@std@@V12@@std@@YA?AV?$_Vb_iterator@U?$_Wrap_alloc@V?$allocator@I@std@@@std@@@0@V10@00@Z
	??$count_if@V?$_Vector_const_iterator@V?$_Vector_val@U?$_Simple_types@N@std@@@std@@@std@@V<lambda_1>@?1???$bootstrap@AEBQ6ANV?$_Vector_const_iterator@V?$_Vector_val@U?$_Simple_types@N@std@@@std@@@std@@0@Z@Detail@Benchmark@Catch@@YA?AU?$Estimate@N@56@NV?$_Vector_iterator@V?$_Vector_val@U?$_Simple_types@N@std@@@std@@@2@0AEBV?$vector@NV?$allocator@N@std@@@2@AEBQ6ANV12@2@Z@Z@@std@@YA_JV?$_Vector_const_iterator@V?$_Vector_val@U?$_Simple_types@N@std@@@std@@@0@0V<lambda_1>@?1???$bootstrap@AEBQ6ANV?$_Vector_const_iterator@V?$_Vector_val@U?$_Simple_types@N@std@@@std@@@std@@0@Z@Detail@Benchmark@Catch@@YA?AU?$Estimate@N@45@NV?$_Vector_iterator@V?$_Vector_val@U?$_Simple_types@N@std@@@std@@@0@1AEBV?$vector@NV?$allocator@N@std@@@0@AEBQ6AN00@Z@Z@@Z
	??$createShard@V?$set@PEBVTestCaseHandle@Catch@@U?$less@PEBVTestCaseHandle@Catch@@@std@@V?$allocator@PEBVTestCaseHandle@Catch@@@4@@std@@@Catch@@YA?AV?$set@PEBVTestCaseHandle@Catch@@U?$less@PEBVTestCaseHandle@Catch@@@std@@V?$allocator@PEBVTestCaseHandle@Catch@@@4@@std@@AEBV12@_K1@Z
	??$createShard@V?$vector@VTestCaseHandle@Catch@@V?$allocator@VTestCaseHandle@Catch@@@std@@@std@@@Catch@@YA?AV?$vector@VTestCaseHandle@Catch@@V?$allocator@VTestCaseHandle@Catch@@@std@@@std@@AEBV12@_K1@Z
	??$destroy@D@?$_Default_allocator_traits@V?$allocator@D@std@@@std@@SAXAEAV?$allocator@D@1@QEAD@Z
	??$destroy@PEAUSectionNode@CumulativeReporterBase@Catch@@@?$_Default_allocator_traits@V?$allocator@PEAUSectionNode@CumulativeReporterBase@Catch@@@std@@@std@@SAXAEAV?$allocator@PEAUSectionNode@CumulativeReporterBase@Catch@@@1@QEAPEAUSectionNode@CumulativeReporterBase@Catch@@@Z
	??$destroy@PEAVITracker@TestCaseTracking@Catch@@@?$_Default_allocator_traits@V?$allocator@PEAVITracker@TestCaseTracking@Catch@@@std@@@std@@SAXAEAV?$allocator@PEAVITracker@TestCaseTracking@Catch@@@1@QEAPEAVITracker@TestCaseTracking@Catch@@@Z
	??$destroy@PEBUTestCaseInfo@Catch@@@?$_Default_allocator_traits@V?$allocator@U?$_Tree_node@PEBUTestCaseInfo@Catch@@PEAX@std@@@std@@@std@@SAXAEAV?$allocator@U?$_Tree_node@PEBUTestCaseInfo@Catch@@PEAX@std@@@1@QEAPEBUTestCaseInfo@Catch@@@Z
	??$destroy@PEBVTestCaseHandle@Catch@@@?$_Default_allocator_traits@V?$allocator@U?$_Tree_node@PEBVTestCaseHandle@Catch@@PEAX@std@@@std@@@std@@SAXAEAV?$allocator@U?$_Tree_node@PEBVTestCaseHandle@Catch@@PEAX@std@@@1@QEAPEBVTestCaseHandle@Catch@@@Z
	??$destroy@U?$pair@$$CBV?$basic_string@DU?$char_traits@D@std@@V?$allocator@D@2@@std@@UTagAlias@Catch@@@std@@@?$_Default_allocator_traits@V?$allocator@U?$_Tree_node@U?$pair@$$CBV?$basic_string@DU?$char_traits@D@std@@V?$allocator@D@2@@std@@UTagAlias@Catch@@@std@@PEAX@std@@@std@@@std@@SAXAEAV?$allocator@U?$_Tree_node@U?$pair@$$CBV?$basic_string@DU?$char_traits@D@std@@V?$allocator@D@2@@std@@UTagAlias@Catch@@@std@@PEAX@std@@@1@QEAU?$pair@$$CBV?$basic_string@DU?$char_traits@D@std@@V?$allocator@D@2@@std@@UTagAlias@Catch@@@1@@Z
	??$destroy@U?$pair@$$CBV?$basic_string@DU?$char_traits@D@std@@V?$allocator@D@2@@std@@V12@@std@@@?$_Default_allocator_traits@V?$allocator@U?$_Tree_node@U?$pair@$$CBV?$basic_string@DU?$char_traits@D@std@@V?$allocator@D@2@@std@@V12@@std@@PEAX@std@@@std@@@std@@SAXAEAV?$allocator@U?$_Tree_node@U?$pair@$$CBV?$basic_string@DU?$char_traits@D@std@@V?$allocator@D@2@@std@@V12@@std@@PEAX@std@@@1@QEAU?$pair@$$CBV?$basic_string@DU?$char_traits@D@std@@V?$allocator@D@2@@std@@V12@@1@@Z
	??$destroy@U?$pair@$$CBV?$basic_string@DU?$char_traits@D@std@@V?$allocator@D@2@@std@@V?$unique_ptr@VIReporterFactory@Catch@@@Detail@Catch@@@std@@@?$_Default_allocator_traits@V?$allocator@U?$_Tree_node@U?$pair@$$CBV?$basic_string@DU?$char_traits@D@std@@V?$allocator@D@2@@std@@V?$unique_ptr@VIReporterFactory@Catch@@@Detail@Catch@@@std@@PEAX@std@@@std@@@std@@SAXAEAV?$allocator@U?$_Tree_node@U?$pair@$$CBV?$basic_string@DU?$char_traits@D@std@@V?$allocator@D@2@@std@@V?$unique_ptr@VIReporterFactory@Catch@@@Detail@Catch@@@std@@PEAX@std@@@1@QEAU?$pair@$$CBV?$basic_string@DU?$char_traits@D@std@@V?$allocator@D@2@@std@@V?$unique_ptr@VIReporterFactory@Catch@@@Detail@Catch@@@1@@Z
	??$destroy@U?$pair@$$CBVStringRef@Catch@@UTagInfo@2@@std@@@?$_Default_allocator_traits@V?$allocator@U?$_Tree_node@U?$pair@$$CBVStringRef@Catch@@UTagInfo@2@@std@@PEAX@std@@@std@@@std@@SAXAEAV?$allocator@U?$_Tree_node@U?$pair@$$CBVStringRef@Catch@@UTagInfo@2@@std@@PEAX@std@@@1@QEAU?$pair@$$CBVStringRef@Catch@@UTagInfo@2@@1@@Z
	??$destroy@U?$pair@$$CBVStringRef@Catch@@V?$vector@PEBU?$Node@UTestCaseStats@Catch@@USectionNode@CumulativeReporterBase@2@@CumulativeReporterBase@Catch@@V?$allocator@PEBU?$Node@UTestCaseStats@Catch@@USectionNode@CumulativeReporterBase@2@@CumulativeReporterBase@Catch@@@std@@@std@@@std@@@?$_Default_allocator_traits@V?$allocator@U?$_Tree_node@U?$pair@$$CBVStringRef@Catch@@V?$vector@PEBU?$Node@UTestCaseStats@Catch@@USectionNode@CumulativeReporterBase@2@@CumulativeReporterBase@Catch@@V?$allocator@PEBU?$Node@UTestCaseStats@Catch@@USectionNode@CumulativeReporterBase@2@@CumulativeReporterBase@Catch@@@std@@@std@@@std@@PEAX@std@@@std@@@std@@SAXAEAV?$allocator@U?$_Tree_node@U?$pair@$$CBVStringRef@Catch@@V?$vector@PEBU?$Node@UTestCaseStats@Catch@@USectionNode@CumulativeReporterBase@2@@CumulativeReporterBase@Catch@@V?$allocator@PEBU?$Node@UTestCaseStats@Catch@@USectionNode@CumulativeReporterBase@2@@CumulativeReporterBase@Catch@@@std@@@std@@@std@@PEAX@std@@@1@QEAU?$pair@$$CBVStringRef@Catch@@V?$vector@PEBU?$Node@UTestCaseStats@Catch@@USectionNode@CumulativeReporterBase@2@@CumulativeReporterBase@Catch@@V?$allocator@PEBU?$Node@UTestCaseStats@Catch@@USectionNode@CumulativeReporterBase@2@@CumulativeReporterBase@Catch@@@std@@@std@@@1@@Z
	??$destroy@UFilter@TestSpec@Catch@@@?$_Default_allocator_traits@V?$allocator@UFilter@TestSpec@Catch@@@std@@@std@@SAXAEAV?$allocator@UFilter@TestSpec@Catch@@@1@QEAUFilter@TestSpec@Catch@@@Z
	??$destroy@UFilterMatch@TestSpec@Catch@@@?$_Default_allocator_traits@V?$allocator@UFilterMatch@TestSpec@Catch@@@std@@@std@@SAXAEAV?$allocator@UFilterMatch@TestSpec@Catch@@@1@QEAUFilterMatch@TestSpec@Catch@@@Z
	??$destroy@UHelpColumns@Detail@Clara@Catch@@@?$_Default_allocator_traits@V?$allocator@UHelpColumns@Detail@Clara@Catch@@@std@@@std@@SAXAEAV?$allocator@UHelpColumns@Detail@Clara@Catch@@@1@QEAUHelpColumns@Detail@Clara@Catch@@@Z
	??$destroy@UListenerDescription@Catch@@@?$_Default_allocator_traits@V?$allocator@UListenerDescription@Catch@@@std@@@std@@SAXAEAV?$allocator@UListenerDescription@Catch@@@1@QEAUListenerDescription@Catch@@@Z
	??$destroy@UMessageInfo@Catch@@@?$_Default_allocator_traits@V?$allocator@UMessageInfo@Catch@@@std@@@std@@SAXAEAV?$allocator@UMessageInfo@Catch@@@1@QEAUMessageInfo@Catch@@@Z
	??$destroy@UProcessedReporterSpec@Catch@@@?$_Default_allocator_traits@V?$allocator@UProcessedReporterSpec@Catch@@@std@@@std@@SAXAEAV?$allocator@UProcessedReporterSpec@Catch@@@1@QEAUProcessedReporterSpec@Catch@@@Z
	??$destroy@UReporterDescription@Catch@@@?$_Default_allocator_traits@V?$allocator@UReporterDescription@Catch@@@std@@@std@@SAXAEAV?$allocator@UReporterDescription@Catch@@@1@QEAUReporterDescription@Catch@@@Z
	??$destroy@USectionEndInfo@Catch@@@?$_Default_allocator_traits@V?$allocator@USectionEndInfo@Catch@@@std@@@std@@SAXAEAV?$allocator@USectionEndInfo@Catch@@@1@QEAUSectionEndInfo@Catch@@@Z
	??$destroy@USectionInfo@Catch@@@?$_Default_allocator_traits@V?$allocator@USectionInfo@Catch@@@std@@@std@@SAXAEAV?$allocator@USectionInfo@Catch@@@1@QEAUSectionInfo@Catch@@@Z
	??$destroy@UTagInfo@Catch@@@?$_Default_allocator_traits@V?$allocator@UTagInfo@Catch@@@std@@@std@@SAXAEAV?$allocator@UTagInfo@Catch@@@1@QEAUTagInfo@Catch@@@Z
	??$destroy@UToken@Detail@Clara@Catch@@@?$_Default_allocator_traits@V?$allocator@UToken@Detail@Clara@Catch@@@std@@@std@@SAXAEAV?$allocator@UToken@Detail@Clara@Catch@@@1@QEAUToken@Detail@Clara@Catch@@@Z
	??$destroy@V?$basic_string@DU?$char_traits@D@std@@V?$allocator@D@2@@std@@@?$_Default_allocator_traits@V?$allocator@V?$basic_string@DU?$char_traits@D@std@@V?$allocator@D@2@@std@@@std@@@std@@SAXAEAV?$allocator@V?$basic_string@DU?$char_traits@D@std@@V?$allocator@D@2@@std@@@1@QEAV?$basic_string@DU?$char_traits@D@std@@V?$allocator@D@2@@1@@Z
	??$destroy@V?$unique_ptr@$$CBVIExceptionTranslator@Catch@@@Detail@Catch@@@?$_Default_allocator_traits@V?$allocator@V?$unique_ptr@$$CBVIExceptionTranslator@Catch@@@Detail@Catch@@@std@@@std@@SAXAEAV?$allocator@V?$unique_ptr@$$CBVIExceptionTranslator@Catch@@@Detail@Catch@@@1@QEAV?$unique_ptr@$$CBVIExceptionTranslator@Catch@@@Detail@Catch@@@Z
	??$destroy@V?$unique_ptr@U?$Node@UTestCaseStats@Catch@@USectionNode@CumulativeReporterBase@2@@CumulativeReporterBase@Catch@@@Detail@Catch@@@?$_Default_allocator_traits@V?$allocator@V?$unique_ptr@U?$Node@UTestCaseStats@Catch@@USectionNode@CumulativeReporterBase@2@@CumulativeReporterBase@Catch@@@Detail@Catch@@@std@@@std@@SAXAEAV?$allocator@V?$unique_ptr@U?$Node@UTestCaseStats@Catch@@USectionNode@CumulativeReporterBase@2@@CumulativeReporterBase@Catch@@@Detail@Catch@@@1@QEAV?$unique_ptr@U?$Node@UTestCaseStats@Catch@@USectionNode@CumulativeReporterBase@2@@CumulativeReporterBase@Catch@@@Detail@Catch@@@Z
	??$destroy@V?$unique_ptr@UEnumInfo@Detail@Catch@@@Detail@Catch@@@?$_Default_allocator_traits@V?$allocator@V?$unique_ptr@UEnumInfo@Detail@Catch@@@Detail@Catch@@@std@@@std@@SAXAEAV?$allocator@V?$unique_ptr@UEnumInfo@Detail@Catch@@@Detail@Catch@@@1@QEAV?$unique_ptr@UEnumInfo@Detail@Catch@@@Detail@Catch@@@Z
	??$destroy@V?$unique_ptr@USectionNode@CumulativeReporterBase@Catch@@@Detail@Catch@@@?$_Default_allocator_traits@V?$allocator@V?$unique_ptr@USectionNode@CumulativeReporterBase@Catch@@@Detail@Catch@@@std@@@std@@SAXAEAV?$allocator@V?$unique_ptr@USectionNode@CumulativeReporterBase@Catch@@@Detail@Catch@@@1@QEAV?$unique_ptr@USectionNode@CumulativeReporterBase@Catch@@@Detail@Catch@@@Z
	??$destroy@V?$unique_ptr@UTestCaseInfo@Catch@@@Detail@Catch@@@?$_Default_allocator_traits@V?$allocator@V?$unique_ptr@UTestCaseInfo@Catch@@@Detail@Catch@@@std@@@std@@SAXAEAV?$allocator@V?$unique_ptr@UTestCaseInfo@Catch@@@Detail@Catch@@@1@QEAV?$unique_ptr@UTestCaseInfo@Catch@@@Detail@Catch@@@Z
	??$destroy@V?$unique_ptr@V?$basic_ostringstream@DU?$char_traits@D@std@@V?$allocator@D@2@@std@@@Detail@Catch@@@?$_Default_allocator_traits@V?$allocator@V?$unique_ptr@V?$basic_ostringstream@DU?$char_traits@D@std@@V?$allocator@D@2@@std@@@Detail@Catch@@@std@@@std@@SAXAEAV?$allocator@V?$unique_ptr@V?$basic_ostringstream@DU?$char_traits@D@std@@V?$allocator@D@2@@std@@@Detail@Catch@@@1@QEAV?$unique_ptr@V?$basic_ostringstream@DU?$char_traits@D@std@@V?$allocator@D@2@@std@@@Detail@Catch@@@Z
	??$destroy@V?$unique_ptr@VEventListenerFactory@Catch@@@Detail@Catch@@@?$_Default_allocator_traits@V?$allocator@V?$unique_ptr@VEventListenerFactory@Catch@@@Detail@Catch@@@std@@@std@@SAXAEAV?$allocator@V?$unique_ptr@VEventListenerFactory@Catch@@@Detail@Catch@@@1@QEAV?$unique_ptr@VEventListenerFactory@Catch@@@Detail@Catch@@@Z
	??$destroy@V?$unique_ptr@VIEventListener@Catch@@@Detail@Catch@@@?$_Default_allocator_traits@V?$allocator@V?$unique_ptr@VIEventListener@Catch@@@Detail@Catch@@@std@@@std@@SAXAEAV?$allocator@V?$unique_ptr@VIEventListener@Catch@@@Detail@Catch@@@1@QEAV?$unique_ptr@VIEventListener@Catch@@@Detail@Catch@@@Z
	??$destroy@V?$unique_ptr@VITestInvoker@Catch@@@Detail@Catch@@@?$_Default_allocator_traits@V?$allocator@V?$unique_ptr@VITestInvoker@Catch@@@Detail@Catch@@@std@@@std@@SAXAEAV?$allocator@V?$unique_ptr@VITestInvoker@Catch@@@Detail@Catch@@@1@QEAV?$unique_ptr@VITestInvoker@Catch@@@Detail@Catch@@@Z
	??$destroy@V?$unique_ptr@VITracker@TestCaseTracking@Catch@@@Detail@Catch@@@?$_Default_allocator_traits@V?$allocator@V?$unique_ptr@VITracker@TestCaseTracking@Catch@@@Detail@Catch@@@std@@@std@@SAXAEAV?$allocator@V?$unique_ptr@VITracker@TestCaseTracking@Catch@@@Detail@Catch@@@1@QEAV?$unique_ptr@VITracker@TestCaseTracking@Catch@@@Detail@Catch@@@Z
	??$destroy@V?$unique_ptr@VPattern@TestSpec@Catch@@@Detail@Catch@@@?$_Default_allocator_traits@V?$allocator@V?$unique_ptr@VPattern@TestSpec@Catch@@@Detail@Catch@@@std@@@std@@SAXAEAV?$allocator@V?$unique_ptr@VPattern@TestSpec@Catch@@@Detail@Catch@@@1@QEAV?$unique_ptr@VPattern@TestSpec@Catch@@@Detail@Catch@@@Z
	??$destroy@VArg@Clara@Catch@@@?$_Default_allocator_traits@V?$allocator@VArg@Clara@Catch@@@std@@@std@@SAXAEAV?$allocator@VArg@Clara@Catch@@@1@QEAVArg@Clara@Catch@@@Z
	??$destroy@VAssertionOrBenchmarkResult@Detail@Catch@@@?$_Default_allocator_traits@V?$allocator@VAssertionOrBenchmarkResult@Detail@Catch@@@std@@@std@@SAXAEAV?$allocator@VAssertionOrBenchmarkResult@Detail@Catch@@@1@QEAVAssertionOrBenchmarkResult@Detail@Catch@@@Z
	??$destroy@VColumn@TextFlow@Catch@@@?$_Default_allocator_traits@V?$allocator@VColumn@TextFlow@Catch@@@std@@@std@@SAXAEAV?$allocator@VColumn@TextFlow@Catch@@@1@QEAVColumn@TextFlow@Catch@@@Z
	??$destroy@VOpt@Clara@Catch@@@?$_Default_allocator_traits@V?$allocator@VOpt@Clara@Catch@@@std@@@std@@SAXAEAV?$allocator@VOpt@Clara@Catch@@@1@QEAVOpt@Clara@Catch@@@Z
	??$destroy@VReporterSpec@Catch@@@?$_Default_allocator_traits@V?$allocator@VReporterSpec@Catch@@@std@@@std@@SAXAEAV?$allocator@VReporterSpec@Catch@@@1@QEAVReporterSpec@Catch@@@Z
	??$destroy@VScopedMessage@Catch@@@?$_Default_allocator_traits@V?$allocator@VScopedMessage@Catch@@@std@@@std@@SAXAEAV?$allocator@VScopedMessage@Catch@@@1@QEAVScopedMessage@Catch@@@Z
	??$destroy@VStringRef@Catch@@@?$_Default_allocator_traits@V?$allocator@U?$_Tree_node@VStringRef@Catch@@PEAX@std@@@std@@@std@@SAXAEAV?$allocator@U?$_Tree_node@VStringRef@Catch@@PEAX@std@@@1@QEAVStringRef@Catch@@@Z
	??$destroy@Vexception_ptr@std@@@?$_Default_allocator_traits@V?$allocator@Vexception_ptr@std@@@std@@@std@@SAXAEAV?$allocator@Vexception_ptr@std@@@1@QEAVexception_ptr@1@@Z
	??$destroy@_K@?$_Default_allocator_traits@V?$allocator@_K@std@@@std@@SAXAEAV?$allocator@_K@1@QEA_K@Z
	??$distance@PEAD@std@@YA_JPEAD0@Z
	??$distance@PEAUHelpColumns@Detail@Clara@Catch@@@std@@YA_JPEAUHelpColumns@Detail@Clara@Catch@@0@Z
	??$distance@PEBD@std@@YA_JPEBD0@Z
	??$distance@PEBN@std@@YA_JPEBN0@Z
	??$distance@PEBQEBD@std@@YA_JPEBQEBD0@Z
	??$distance@PEBV?$basic_string@DU?$char_traits@D@std@@V?$allocator@D@2@@std@@@std@@YA_JPEBV?$basic_string@DU?$char_traits@D@std@@V?$allocator@D@2@@0@0@Z
	??$distance@PEBVArg@Clara@Catch@@@std@@YA_JPEBVArg@Clara@Catch@@0@Z
	??$distance@PEBVOpt@Clara@Catch@@@std@@YA_JPEBVOpt@Clara@Catch@@0@Z
	??$distance@PEBVStringRef@Catch@@@std@@YA_JPEBVStringRef@Catch@@0@Z
	??$distance@PEBVTestCaseHandle@Catch@@@std@@YA_JPEBVTestCaseHandle@Catch@@0@Z
	??$duration_cast@V?$duration@_JU?$ratio@$00$0DLJKMKAA@@std@@@chrono@std@@_JU?$ratio@$00$0DLJKMKAA@@3@$0A@@chrono@std@@YA?AV?$duration@_JU?$ratio@$00$0DLJKMKAA@@std@@@01@AEBV201@@Z
	??$emplace@AEBV?$basic_string@DU?$char_traits@D@std@@V?$allocator@D@2@@std@@V?$unique_ptr@VIReporterFactory@Catch@@@Detail@Catch@@@?$_Tree@V?$_Tmap_traits@V?$basic_string@DU?$char_traits@D@std@@V?$allocator@D@2@@std@@V?$unique_ptr@VIReporterFactory@Catch@@@Detail@Catch@@UCaseInsensitiveLess@45@V?$allocator@U?$pair@$$CBV?$basic_string@DU?$char_traits@D@std@@V?$allocator@D@2@@std@@V?$unique_ptr@VIReporterFactory@Catch@@@Detail@Catch@@@std@@@2@$0A@@std@@@std@@QEAA?AU?$pair@V?$_Tree_iterator@V?$_Tree_val@U?$_Tree_simple_types@U?$pair@$$CBV?$basic_string@DU?$char_traits@D@std@@V?$allocator@D@2@@std@@V?$unique_ptr@VIReporterFactory@Catch@@@Detail@Catch@@@std@@@std@@@std@@@std@@_N@1@AEBV?$basic_string@DU?$char_traits@D@std@@V?$allocator@D@2@@1@$$QEAV?$unique_ptr@VIReporterFactory@Catch@@@Detail@Catch@@@Z
	??$emplace@PEBVTestCaseHandle@Catch@@@?$_Tree@V?$_Tset_traits@PEBVTestCaseHandle@Catch@@U?$less@PEBVTestCaseHandle@Catch@@@std@@V?$allocator@PEBVTestCaseHandle@Catch@@@4@$0A@@std@@@std@@QEAA?AU?$pair@V?$_Tree_const_iterator@V?$_Tree_val@U?$_Tree_simple_types@PEBVTestCaseHandle@Catch@@@std@@@std@@@std@@_N@1@$$QEAPEBVTestCaseHandle@Catch@@@Z
	??$emplace@U?$pair@V?$basic_string@DU?$char_traits@D@std@@V?$allocator@D@2@@std@@UTagAlias@Catch@@@std@@@?$_Tree@V?$_Tmap_traits@V?$basic_string@DU?$char_traits@D@std@@V?$allocator@D@2@@std@@UTagAlias@Catch@@U?$less@V?$basic_string@DU?$char_traits@D@std@@V?$allocator@D@2@@std@@@2@V?$allocator@U?$pair@$$CBV?$basic_string@DU?$char_traits@D@std@@V?$allocator@D@2@@std@@UTagAlias@Catch@@@std@@@2@$0A@@std@@@std@@QEAA?AU?$pair@V?$_Tree_iterator@V?$_Tree_val@U?$_Tree_simple_types@U?$pair@$$CBV?$basic_string@DU?$char_traits@D@std@@V?$allocator@D@2@@std@@UTagAlias@Catch@@@std@@@std@@@std@@@std@@_N@1@$$QEAU?$pair@V?$basic_string@DU?$char_traits@D@std@@V?$allocator@D@2@@std@@UTagAlias@Catch@@@1@@Z
	??$emplace@U?$pair@VStringRef@Catch@@UTagInfo@2@@std@@@?$_Tree@V?$_Tmap_traits@VStringRef@Catch@@UTagInfo@2@UCaseInsensitiveLess@Detail@2@V?$allocator@U?$pair@$$CBVStringRef@Catch@@UTagInfo@2@@std@@@std@@$0A@@std@@@std@@QEAA?AU?$pair@V?$_Tree_iterator@V?$_Tree_val@U?$_Tree_simple_types@U?$pair@$$CBVStringRef@Catch@@UTagInfo@2@@std@@@std@@@std@@@std@@_N@1@$$QEAU?$pair@VStringRef@Catch@@UTagInfo@2@@1@@Z
	??$emplace@V?$basic_string@DU?$char_traits@D@std@@V?$allocator@D@2@@std@@V12@@?$_Tree@V?$_Tmap_traits@V?$basic_string@DU?$char_traits@D@std@@V?$allocator@D@2@@std@@V12@U?$less@V?$basic_string@DU?$char_traits@D@std@@V?$allocator@D@2@@std@@@2@V?$allocator@U?$pair@$$CBV?$basic_string@DU?$char_traits@D@std@@V?$allocator@D@2@@std@@V12@@std@@@2@$0A@@std@@@std@@QEAA?AU?$pair@V?$_Tree_iterator@V?$_Tree_val@U?$_Tree_simple_types@U?$pair@$$CBV?$basic_string@DU?$char_traits@D@std@@V?$allocator@D@2@@std@@V12@@std@@@std@@@std@@@std@@_N@1@$$QEAV?$basic_string@DU?$char_traits@D@std@@V?$allocator@D@2@@1@0@Z
	??$emplace@V?$unique_ptr@VIEventListener@Catch@@@Detail@Catch@@@?$vector@V?$unique_ptr@VIEventListener@Catch@@@Detail@Catch@@V?$allocator@V?$unique_ptr@VIEventListener@Catch@@@Detail@Catch@@@std@@@std@@QEAA?AV?$_Vector_iterator@V?$_Vector_val@U?$_Simple_types@V?$unique_ptr@VIEventListener@Catch@@@Detail@Catch@@@std@@@std@@@1@V?$_Vector_const_iterator@V?$_Vector_val@U?$_Simple_types@V?$unique_ptr@VIEventListener@Catch@@@Detail@Catch@@@std@@@std@@@1@$$QEAV?$unique_ptr@VIEventListener@Catch@@@Detail@Catch@@@Z
	??$emplace_back@$$V@?$vector@V?$basic_string@DU?$char_traits@D@std@@V?$allocator@D@2@@std@@V?$allocator@V?$basic_string@DU?$char_traits@D@std@@V?$allocator@D@2@@std@@@2@@std@@QEAA?A_TXZ
	??$emplace_back@AEAHAEBVStringRef@Catch@@@?$vector@U?$pair@HVStringRef@Catch@@@std@@V?$allocator@U?$pair@HVStringRef@Catch@@@std@@@2@@std@@QEAA?A_TAEAHAEBVStringRef@Catch@@@Z
	??$emplace_back@AEAVStringRef@Catch@@AEBUSourceLineInfo@2@AEAW4OfType@ResultWas@2@@?$vector@UMessageInfo@Catch@@V?$allocator@UMessageInfo@Catch@@@std@@@std@@QEAA?A_TAEAVStringRef@Catch@@AEBUSourceLineInfo@3@AEAW4OfType@ResultWas@3@@Z
	??$emplace_back@AEAY01$$CBD@?$vector@V?$basic_string@DU?$char_traits@D@std@@V?$allocator@D@2@@std@@V?$allocator@V?$basic_string@DU?$char_traits@D@std@@V?$allocator@D@2@@std@@@2@@std@@QEAA?A_TAEAY01$$CBD@Z
	??$emplace_back@AEBU?$BenchmarkStats@V?$duration@NU?$ratio@$00$0DLJKMKAA@@std@@@chrono@std@@@Catch@@@?$vector@VAssertionOrBenchmarkResult@Detail@Catch@@V?$allocator@VAssertionOrBenchmarkResult@Detail@Catch@@@std@@@std@@QEAA?A_TAEBU?$BenchmarkStats@V?$duration@NU?$ratio@$00$0DLJKMKAA@@std@@@chrono@std@@@Catch@@@Z
	??$emplace_back@AEBUAssertionStats@Catch@@@?$vector@VAssertionOrBenchmarkResult@Detail@Catch@@V?$allocator@VAssertionOrBenchmarkResult@Detail@Catch@@@std@@@std@@QEAA?A_TAEBUAssertionStats@Catch@@@Z
	??$emplace_back@IAEBVTestCaseHandle@Catch@@@?$vector@U?$pair@_KVTestCaseHandle@Catch@@@std@@V?$allocator@U?$pair@_KVTestCaseHandle@Catch@@@std@@@2@@std@@QEAA?A_T$$QEAIAEBVTestCaseHandle@Catch@@@Z
	??$emplace_back@PEAUTestCaseInfo@Catch@@PEAVITestInvoker@2@@?$vector@VTestCaseHandle@Catch@@V?$allocator@VTestCaseHandle@Catch@@@std@@@std@@QEAA?A_T$$QEAPEAUTestCaseInfo@Catch@@$$QEAPEAVITestInvoker@3@@Z
	??$emplace_back@PEBVTestCaseHandle@Catch@@@?$vector@PEBVTestCaseHandle@Catch@@V?$allocator@PEBVTestCaseHandle@Catch@@@std@@@std@@QEAA?A_T$$QEAPEBVTestCaseHandle@Catch@@@Z
	??$emplace_back@UMessageBuilder@Catch@@@?$vector@VScopedMessage@Catch@@V?$allocator@VScopedMessage@Catch@@@std@@@std@@QEAA?A_T$$QEAUMessageBuilder@Catch@@@Z
	??$emplace_back@V?$unique_ptr@VNamePattern@TestSpec@Catch@@@Detail@Catch@@@?$vector@V?$unique_ptr@VPattern@TestSpec@Catch@@@Detail@Catch@@V?$allocator@V?$unique_ptr@VPattern@TestSpec@Catch@@@Detail@Catch@@@std@@@std@@QEAA?A_T$$QEAV?$unique_ptr@VNamePattern@TestSpec@Catch@@@Detail@Catch@@@Z
	??$emplace_back@V?$unique_ptr@VTagPattern@TestSpec@Catch@@@Detail@Catch@@@?$vector@V?$unique_ptr@VPattern@TestSpec@Catch@@@Detail@Catch@@V?$allocator@V?$unique_ptr@VPattern@TestSpec@Catch@@@Detail@Catch@@@std@@@std@@QEAA?A_T$$QEAV?$unique_ptr@VTagPattern@TestSpec@Catch@@@Detail@Catch@@@Z
	??$emplace_back@VStringRef@Catch@@@?$vector@UTag@Catch@@V?$allocator@UTag@Catch@@@std@@@std@@QEAA?A_T$$QEAVStringRef@Catch@@@Z
	??$emplace_back@VStringRef@Catch@@@?$vector@VStringRef@Catch@@V?$allocator@VStringRef@Catch@@@std@@@std@@QEAA?A_T$$QEAVStringRef@Catch@@@Z
	??$end@D$0BF@@std@@YAPEADAEAY0BF@D@Z
	??$end@V?$vector@UTag@Catch@@V?$allocator@UTag@Catch@@@std@@@std@@@std@@YA?AV?$_Vector_const_iterator@V?$_Vector_val@U?$_Simple_types@UTag@Catch@@@std@@@std@@@0@AEBV?$vector@UTag@Catch@@V?$allocator@UTag@Catch@@@std@@@0@@Z
	??$end@V?$vector@UTag@Catch@@V?$allocator@UTag@Catch@@@std@@@std@@@std@@YA?AV?$_Vector_iterator@V?$_Vector_val@U?$_Simple_types@UTag@Catch@@@std@@@std@@@0@AEAV?$vector@UTag@Catch@@V?$allocator@UTag@Catch@@@std@@@0@@Z
	??$equal@PEBDPEBDU?$_Cmp_icase@V?$_Regex_traits@D@std@@@std@@@std@@YA_NQEBD000U?$_Cmp_icase@V?$_Regex_traits@D@std@@@0@@Z
	??$equal@PEBDPEBDU?$_Cmp_icase@V?$_Regex_traits@D@std@@@std@@@std@@YA_NQEBD00U?$_Cmp_icase@V?$_Regex_traits@D@std@@@0@@Z
	??$equal@PEBVconst_iterator@Column@TextFlow@Catch@@PEBV1234@@std@@YA_NQEBVconst_iterator@Column@TextFlow@Catch@@00@Z
	??$equal@PEBVconst_iterator@Column@TextFlow@Catch@@PEBV1234@U?$equal_to@X@std@@@std@@YA_NQEBVconst_iterator@Column@TextFlow@Catch@@00U?$equal_to@X@0@@Z
	??$equal@V?$_String_const_iterator@V?$_String_val@U?$_Simple_types@D@std@@@std@@@std@@V12@@std@@YA_NV?$_String_const_iterator@V?$_String_val@U?$_Simple_types@D@std@@@std@@@0@00@Z
	??$equal@V?$_String_const_iterator@V?$_String_val@U?$_Simple_types@D@std@@@std@@@std@@V12@U?$equal_to@X@2@@std@@YA_NV?$_String_const_iterator@V?$_String_val@U?$_Simple_types@D@std@@@std@@@0@00U?$equal_to@X@0@@Z
	??$equal@V?$_Tree_unchecked_const_iterator@V?$_Tree_val@U?$_Tree_simple_types@U?$pair@$$CBV?$basic_string@DU?$char_traits@D@std@@V?$allocator@D@2@@std@@V12@@std@@@std@@@std@@U_Iterator_base0@2@@std@@V12@@std@@YA_NV?$_Tree_unchecked_const_iterator@V?$_Tree_val@U?$_Tree_simple_types@U?$pair@$$CBV?$basic_string@DU?$char_traits@D@std@@V?$allocator@D@2@@std@@V12@@std@@@std@@@std@@U_Iterator_base0@2@@0@00@Z
	??$equal@V?$_Tree_unchecked_const_iterator@V?$_Tree_val@U?$_Tree_simple_types@U?$pair@$$CBV?$basic_string@DU?$char_traits@D@std@@V?$allocator@D@2@@std@@V12@@std@@@std@@@std@@U_Iterator_base0@2@@std@@V12@U?$equal_to@X@2@@std@@YA_NV?$_Tree_unchecked_const_iterator@V?$_Tree_val@U?$_Tree_simple_types@U?$pair@$$CBV?$basic_string@DU?$char_traits@D@std@@V?$allocator@D@2@@std@@V12@@std@@@std@@@std@@U_Iterator_base0@2@@0@00U?$equal_to@X@0@@Z
	??$equal@V?$reverse_iterator@V?$_String_const_iterator@V?$_String_val@U?$_Simple_types@D@std@@@std@@@std@@@std@@V12@@std@@YA_NV?$reverse_iterator@V?$_String_const_iterator@V?$_String_val@U?$_Simple_types@D@std@@@std@@@std@@@0@00@Z
	??$equal@V?$reverse_iterator@V?$_String_const_iterator@V?$_String_val@U?$_Simple_types@D@std@@@std@@@std@@@std@@V12@U?$equal_to@X@2@@std@@YA_NV?$reverse_iterator@V?$_String_const_iterator@V?$_String_val@U?$_Simple_types@D@std@@@std@@@std@@@0@00U?$equal_to@X@0@@Z
	??$exchange@PEAPEBVTestCaseHandle@Catch@@$$T@std@@YAPEAPEBVTestCaseHandle@Catch@@AEAPEAPEBV12@$$QEA$$T@Z
	??$exchange@PEAU?$_Tree_node@PEBUTestCaseInfo@Catch@@PEAX@std@@$$T@std@@YAPEAU?$_Tree_node@PEBUTestCaseInfo@Catch@@PEAX@0@AEAPEAU10@$$QEA$$T@Z
	??$exchange@PEAU?$_Tree_node@PEBUTestCaseInfo@Catch@@PEAX@std@@AEAPEAU12@@std@@YAPEAU?$_Tree_node@PEBUTestCaseInfo@Catch@@PEAX@0@AEAPEAU10@0@Z
	??$exchange@PEAU?$_Tree_node@PEBVTestCaseHandle@Catch@@PEAX@std@@$$T@std@@YAPEAU?$_Tree_node@PEBVTestCaseHandle@Catch@@PEAX@0@AEAPEAU10@$$QEA$$T@Z
	??$exchange@PEAU?$_Tree_node@PEBVTestCaseHandle@Catch@@PEAX@std@@AEAPEAU12@@std@@YAPEAU?$_Tree_node@PEBVTestCaseHandle@Catch@@PEAX@0@AEAPEAU10@0@Z
	??$exchange@PEAU?$_Tree_node@U?$pair@$$CBV?$basic_string@DU?$char_traits@D@std@@V?$allocator@D@2@@std@@UTagAlias@Catch@@@std@@PEAX@std@@$$T@std@@YAPEAU?$_Tree_node@U?$pair@$$CBV?$basic_string@DU?$char_traits@D@std@@V?$allocator@D@2@@std@@UTagAlias@Catch@@@std@@PEAX@0@AEAPEAU10@$$QEA$$T@Z
	??$exchange@PEAU?$_Tree_node@U?$pair@$$CBV?$basic_string@DU?$char_traits@D@std@@V?$allocator@D@2@@std@@UTagAlias@Catch@@@std@@PEAX@std@@AEAPEAU12@@std@@YAPEAU?$_Tree_node@U?$pair@$$CBV?$basic_string@DU?$char_traits@D@std@@V?$allocator@D@2@@std@@UTagAlias@Catch@@@std@@PEAX@0@AEAPEAU10@0@Z
	??$exchange@PEAU?$_Tree_node@U?$pair@$$CBV?$basic_string@DU?$char_traits@D@std@@V?$allocator@D@2@@std@@V12@@std@@PEAX@std@@$$T@std@@YAPEAU?$_Tree_node@U?$pair@$$CBV?$basic_string@DU?$char_traits@D@std@@V?$allocator@D@2@@std@@V12@@std@@PEAX@0@AEAPEAU10@$$QEA$$T@Z
	??$exchange@PEAU?$_Tree_node@U?$pair@$$CBV?$basic_string@DU?$char_traits@D@std@@V?$allocator@D@2@@std@@V12@@std@@PEAX@std@@AEAPEAU12@@std@@YAPEAU?$_Tree_node@U?$pair@$$CBV?$basic_string@DU?$char_traits@D@std@@V?$allocator@D@2@@std@@V12@@std@@PEAX@0@AEAPEAU10@0@Z
	??$exchange@PEAU?$_Tree_node@U?$pair@$$CBV?$basic_string@DU?$char_traits@D@std@@V?$allocator@D@2@@std@@V?$unique_ptr@VIReporterFactory@Catch@@@Detail@Catch@@@std@@PEAX@std@@$$T@std@@YAPEAU?$_Tree_node@U?$pair@$$CBV?$basic_string@DU?$char_traits@D@std@@V?$allocator@D@2@@std@@V?$unique_ptr@VIReporterFactory@Catch@@@Detail@Catch@@@std@@PEAX@0@AEAPEAU10@$$QEA$$T@Z
	??$exchange@PEAU?$_Tree_node@U?$pair@$$CBV?$basic_string@DU?$char_traits@D@std@@V?$allocator@D@2@@std@@V?$unique_ptr@VIReporterFactory@Catch@@@Detail@Catch@@@std@@PEAX@std@@AEAPEAU12@@std@@YAPEAU?$_Tree_node@U?$pair@$$CBV?$basic_string@DU?$char_traits@D@std@@V?$allocator@D@2@@std@@V?$unique_ptr@VIReporterFactory@Catch@@@Detail@Catch@@@std@@PEAX@0@AEAPEAU10@0@Z
	??$exchange@PEAU?$_Tree_node@U?$pair@$$CBVStringRef@Catch@@UTagInfo@2@@std@@PEAX@std@@$$T@std@@YAPEAU?$_Tree_node@U?$pair@$$CBVStringRef@Catch@@UTagInfo@2@@std@@PEAX@0@AEAPEAU10@$$QEA$$T@Z
	??$exchange@PEAU?$_Tree_node@U?$pair@$$CBVStringRef@Catch@@UTagInfo@2@@std@@PEAX@std@@AEAPEAU12@@std@@YAPEAU?$_Tree_node@U?$pair@$$CBVStringRef@Catch@@UTagInfo@2@@std@@PEAX@0@AEAPEAU10@0@Z
	??$exchange@PEAU?$_Tree_node@U?$pair@$$CBVStringRef@Catch@@V?$vector@PEBU?$Node@UTestCaseStats@Catch@@USectionNode@CumulativeReporterBase@2@@CumulativeReporterBase@Catch@@V?$allocator@PEBU?$Node@UTestCaseStats@Catch@@USectionNode@CumulativeReporterBase@2@@CumulativeReporterBase@Catch@@@std@@@std@@@std@@PEAX@std@@$$T@std@@YAPEAU?$_Tree_node@U?$pair@$$CBVStringRef@Catch@@V?$vector@PEBU?$Node@UTestCaseStats@Catch@@USectionNode@CumulativeReporterBase@2@@CumulativeReporterBase@Catch@@V?$allocator@PEBU?$Node@UTestCaseStats@Catch@@USectionNode@CumulativeReporterBase@2@@CumulativeReporterBase@Catch@@@std@@@std@@@std@@PEAX@0@AEAPEAU10@$$QEA$$T@Z
	??$exchange@PEAU?$_Tree_node@U?$pair@$$CBVStringRef@Catch@@V?$vector@PEBU?$Node@UTestCaseStats@Catch@@USectionNode@CumulativeReporterBase@2@@CumulativeReporterBase@Catch@@V?$allocator@PEBU?$Node@UTestCaseStats@Catch@@USectionNode@CumulativeReporterBase@2@@CumulativeReporterBase@Catch@@@std@@@std@@@std@@PEAX@std@@AEAPEAU12@@std@@YAPEAU?$_Tree_node@U?$pair@$$CBVStringRef@Catch@@V?$vector@PEBU?$Node@UTestCaseStats@Catch@@USectionNode@CumulativeReporterBase@2@@CumulativeReporterBase@Catch@@V?$allocator@PEBU?$Node@UTestCaseStats@Catch@@USectionNode@CumulativeReporterBase@2@@CumulativeReporterBase@Catch@@@std@@@std@@@std@@PEAX@0@AEAPEAU10@0@Z
	??$exchange@PEAU?$_Tree_node@VStringRef@Catch@@PEAX@std@@$$T@std@@YAPEAU?$_Tree_node@VStringRef@Catch@@PEAX@0@AEAPEAU10@$$QEA$$T@Z
	??$exchange@PEAU?$_Tree_node@VStringRef@Catch@@PEAX@std@@AEAPEAU12@@std@@YAPEAU?$_Tree_node@VStringRef@Catch@@PEAX@0@AEAPEAU10@0@Z
	??$exchange@PEAUFilter@TestSpec@Catch@@$$T@std@@YAPEAUFilter@TestSpec@Catch@@AEAPEAU123@$$QEA$$T@Z
	??$exchange@PEAUMessageInfo@Catch@@$$T@std@@YAPEAUMessageInfo@Catch@@AEAPEAU12@$$QEA$$T@Z
	??$exchange@PEAU_Container_proxy@std@@$$T@std@@YAPEAU_Container_proxy@0@AEAPEAU10@$$QEA$$T@Z
	??$exchange@PEAU_Iterator_base12@std@@$$T@std@@YAPEAU_Iterator_base12@0@AEAPEAU10@$$QEA$$T@Z
	??$exchange@PEAV?$_Associated_state@U?$Estimate@N@Benchmark@Catch@@@std@@$$T@std@@YAPEAV?$_Associated_state@U?$Estimate@N@Benchmark@Catch@@@0@AEAPEAV10@$$QEA$$T@Z
	??$exchange@PEAV?$basic_string@DU?$char_traits@D@std@@V?$allocator@D@2@@std@@$$T@std@@YAPEAV?$basic_string@DU?$char_traits@D@std@@V?$allocator@D@2@@0@AEAPEAV10@$$QEA$$T@Z
	??$exchange@PEAV?$duration@NU?$ratio@$00$0DLJKMKAA@@std@@@chrono@std@@$$T@std@@YAPEAV?$duration@NU?$ratio@$00$0DLJKMKAA@@std@@@chrono@0@AEAPEAV120@$$QEA$$T@Z
	??$exchange@PEAV?$unique_ptr@VPattern@TestSpec@Catch@@@Detail@Catch@@$$T@std@@YAPEAV?$unique_ptr@VPattern@TestSpec@Catch@@@Detail@Catch@@AEAPEAV123@$$QEA$$T@Z
	??$exchange@PEAVTestCaseHandle@Catch@@$$T@std@@YAPEAVTestCaseHandle@Catch@@AEAPEAV12@$$QEA$$T@Z
	??$exchange@PEAV_Facet_base@std@@$$T@std@@YAPEAV_Facet_base@0@AEAPEAV10@$$QEA$$T@Z
	??$exchange@PEAV_Node_assert@std@@$$T@std@@YAPEAV_Node_assert@0@AEAPEAV10@$$QEA$$T@Z
	??$exchange@PEAX$$T@std@@YAPEAXAEAPEAX$$QEA$$T@Z
	??$fill_n@V?$_Vb_iterator@U?$_Wrap_alloc@V?$allocator@I@std@@@std@@@std@@_K_N@std@@YA?AV?$_Vb_iterator@U?$_Wrap_alloc@V?$allocator@I@std@@@std@@@0@V10@_KAEB_N@Z
	??$find@PEBDD@std@@YAPEBDPEBDQEBDAEBD@Z
	??$find@PEBDE@std@@YAPEBDPEBDQEBDAEBE@Z
	??$find@V?$_Vector_const_iterator@V?$_Vector_val@U?$_Simple_types@UTag@Catch@@@std@@@std@@@std@@UTag@Catch@@@std@@YA?AV?$_Vector_const_iterator@V?$_Vector_val@U?$_Simple_types@UTag@Catch@@@std@@@std@@@0@V10@V10@AEBUTag@Catch@@@Z
	??$find@V?$_Vector_const_iterator@V?$_Vector_val@U?$_Simple_types@VStringRef@Catch@@@std@@@std@@@std@@VStringRef@Catch@@@std@@YA?AV?$_Vector_const_iterator@V?$_Vector_val@U?$_Simple_types@VStringRef@Catch@@@std@@@std@@@0@V10@V10@AEBVStringRef@Catch@@@Z
	??$find@V?$reverse_iterator@PEBD@std@@D@std@@YA?AV?$reverse_iterator@PEBD@0@V10@V10@AEBD@Z
	??$flush@DU?$char_traits@D@std@@@std@@YAAEAV?$basic_ostream@DU?$char_traits@D@std@@@0@AEAV10@@Z
	??$forward_as_tuple@$$V@std@@YA?AV?$tuple@$$V@0@XZ
	??$forward_as_tuple@V?$basic_string@DU?$char_traits@D@std@@V?$allocator@D@2@@std@@@std@@YA?AV?$tuple@$$QEAV?$basic_string@DU?$char_traits@D@std@@V?$allocator@D@2@@std@@@0@$$QEAV?$basic_string@DU?$char_traits@D@std@@V?$allocator@D@2@@0@@Z
	??$forward_as_tuple@VStringRef@Catch@@@std@@YA?AV?$tuple@$$QEAVStringRef@Catch@@@0@$$QEAVStringRef@Catch@@@Z
	??$getline@DU?$char_traits@D@std@@V?$allocator@D@2@@std@@YAAEAV?$basic_istream@DU?$char_traits@D@std@@@0@$$QEAV10@AEAV?$basic_string@DU?$char_traits@D@std@@V?$allocator@D@2@@0@D@Z
	??$getline@DU?$char_traits@D@std@@V?$allocator@D@2@@std@@YAAEAV?$basic_istream@DU?$char_traits@D@std@@@0@AEAV10@AEAV?$basic_string@DU?$char_traits@D@std@@V?$allocator@D@2@@0@@Z
	??$insert@$0A@$0A@@?$_Tree@V?$_Tset_traits@VStringRef@Catch@@U?$less@VStringRef@Catch@@@std@@V?$allocator@VStringRef@Catch@@@4@$0A@@std@@@std@@QEAA?AU?$pair@V?$_Tree_const_iterator@V?$_Tree_val@U?$_Tree_simple_types@VStringRef@Catch@@@std@@@std@@@std@@_N@1@AEBVStringRef@Catch@@@Z
	??$insert@U?$pair@V?$basic_string@DU?$char_traits@D@std@@V?$allocator@D@2@@std@@UTagAlias@Catch@@@std@@$0A@@?$map@V?$basic_string@DU?$char_traits@D@std@@V?$allocator@D@2@@std@@UTagAlias@Catch@@U?$less@V?$basic_string@DU?$char_traits@D@std@@V?$allocator@D@2@@std@@@2@V?$allocator@U?$pair@$$CBV?$basic_string@DU?$char_traits@D@std@@V?$allocator@D@2@@std@@UTagAlias@Catch@@@std@@@2@@std@@QEAA?AU?$pair@V?$_Tree_iterator@V?$_Tree_val@U?$_Tree_simple_types@U?$pair@$$CBV?$basic_string@DU?$char_traits@D@std@@V?$allocator@D@2@@std@@UTagAlias@Catch@@@std@@@std@@@std@@@std@@_N@1@$$QEAU?$pair@V?$basic_string@DU?$char_traits@D@std@@V?$allocator@D@2@@std@@UTagAlias@Catch@@@1@@Z
	??$insert@U?$pair@VStringRef@Catch@@UTagInfo@2@@std@@$0A@@?$map@VStringRef@Catch@@UTagInfo@2@UCaseInsensitiveLess@Detail@2@V?$allocator@U?$pair@$$CBVStringRef@Catch@@UTagInfo@2@@std@@@std@@@std@@QEAA?AU?$pair@V?$_Tree_iterator@V?$_Tree_val@U?$_Tree_simple_types@U?$pair@$$CBVStringRef@Catch@@UTagInfo@2@@std@@@std@@@std@@@std@@_N@1@$$QEAU?$pair@VStringRef@Catch@@UTagInfo@2@@1@@Z
	??$insert@V?$_Tree_const_iterator@V?$_Tree_val@U?$_Tree_simple_types@PEBVTestCaseHandle@Catch@@@std@@@std@@@std@@@?$_Tree@V?$_Tset_traits@PEBVTestCaseHandle@Catch@@U?$less@PEBVTestCaseHandle@Catch@@@std@@V?$allocator@PEBVTestCaseHandle@Catch@@@4@$0A@@std@@@std@@QEAAXV?$_Tree_const_iterator@V?$_Tree_val@U?$_Tree_simple_types@PEBVTestCaseHandle@Catch@@@std@@@std@@@1@0@Z
	??$insert@V?$_Vector_const_iterator@V?$_Vector_val@U?$_Simple_types@PEBVTestCaseHandle@Catch@@@std@@@std@@@std@@@?$_Tree@V?$_Tset_traits@PEBVTestCaseHandle@Catch@@U?$less@PEBVTestCaseHandle@Catch@@@std@@V?$allocator@PEBVTestCaseHandle@Catch@@@4@$0A@@std@@@std@@QEAAXV?$_Vector_const_iterator@V?$_Vector_val@U?$_Simple_types@PEBVTestCaseHandle@Catch@@@std@@@std@@@1@0@Z
	??$insert@V?$_Vector_const_iterator@V?$_Vector_val@U?$_Simple_types@V?$basic_string@DU?$char_traits@D@std@@V?$allocator@D@2@@std@@@std@@@std@@@std@@$0A@@?$vector@VStringRef@Catch@@V?$allocator@VStringRef@Catch@@@std@@@std@@QEAA?AV?$_Vector_iterator@V?$_Vector_val@U?$_Simple_types@VStringRef@Catch@@@std@@@std@@@1@V?$_Vector_const_iterator@V?$_Vector_val@U?$_Simple_types@VStringRef@Catch@@@std@@@std@@@1@V?$_Vector_const_iterator@V?$_Vector_val@U?$_Simple_types@V?$basic_string@DU?$char_traits@D@std@@V?$allocator@D@2@@std@@@std@@@std@@@1@1@Z
	??$insert@V?$_Vector_const_iterator@V?$_Vector_val@U?$_Simple_types@VArg@Clara@Catch@@@std@@@std@@@std@@$0A@@?$vector@VArg@Clara@Catch@@V?$allocator@VArg@Clara@Catch@@@std@@@std@@QEAA?AV?$_Vector_iterator@V?$_Vector_val@U?$_Simple_types@VArg@Clara@Catch@@@std@@@std@@@1@V?$_Vector_const_iterator@V?$_Vector_val@U?$_Simple_types@VArg@Clara@Catch@@@std@@@std@@@1@00@Z
	??$insert@V?$_Vector_const_iterator@V?$_Vector_val@U?$_Simple_types@VOpt@Clara@Catch@@@std@@@std@@@std@@$0A@@?$vector@VOpt@Clara@Catch@@V?$allocator@VOpt@Clara@Catch@@@std@@@std@@QEAA?AV?$_Vector_iterator@V?$_Vector_val@U?$_Simple_types@VOpt@Clara@Catch@@@std@@@std@@@1@V?$_Vector_const_iterator@V?$_Vector_val@U?$_Simple_types@VOpt@Clara@Catch@@@std@@@std@@@1@00@Z
	??$insert@V?$_Vector_const_iterator@V?$_Vector_val@U?$_Simple_types@VStringRef@Catch@@@std@@@std@@@std@@$0A@@?$vector@VStringRef@Catch@@V?$allocator@VStringRef@Catch@@@std@@@std@@QEAA?AV?$_Vector_iterator@V?$_Vector_val@U?$_Simple_types@VStringRef@Catch@@@std@@@std@@@1@V?$_Vector_const_iterator@V?$_Vector_val@U?$_Simple_types@VStringRef@Catch@@@std@@@std@@@1@00@Z
	??$insert@V?$_Vector_iterator@V?$_Vector_val@U?$_Simple_types@UHelpColumns@Detail@Clara@Catch@@@std@@@std@@@std@@$0A@@?$vector@UHelpColumns@Detail@Clara@Catch@@V?$allocator@UHelpColumns@Detail@Clara@Catch@@@std@@@std@@QEAA?AV?$_Vector_iterator@V?$_Vector_val@U?$_Simple_types@UHelpColumns@Detail@Clara@Catch@@@std@@@std@@@1@V?$_Vector_const_iterator@V?$_Vector_val@U?$_Simple_types@UHelpColumns@Detail@Clara@Catch@@@std@@@std@@@1@V21@1@Z
	??$invoke@AEAV<lambda_1>@?1??_MakeVoidToUnitFunc@details@Concurrency@@YA?AV?$function@$$A6AEXZ@std@@AEBV?$function@$$A6AXXZ@6@@Z@@std@@YAEAEAV<lambda_1>@?1??_MakeVoidToUnitFunc@details@Concurrency@@YA?AV?$function@$$A6AEXZ@0@AEBV?$function@$$A6AXXZ@0@@Z@@Z
	??$invoke@AEAV<lambda_1>@?4??_ScheduleContinuationTask@_Task_impl_base@details@Concurrency@@QEAAXPEAU_ContinuationTaskHandleBase@45@@Z@@std@@YAXAEAV<lambda_1>@?4??_ScheduleContinuationTask@_Task_impl_base@details@Concurrency@@QEAAXPEAU_ContinuationTaskHandleBase@45@@Z@@Z
	??$invoke@AEAV<lambda_1>@?7???R1?4??_ScheduleContinuationTask@_Task_impl_base@details@Concurrency@@QEAAXPEAU_ContinuationTaskHandleBase@45@@Z@QEBA@XZ@@std@@YAXAEAV<lambda_1>@?7???R1?4??_ScheduleContinuationTask@_Task_impl_base@details@Concurrency@@QEAAXPEAU_ContinuationTaskHandleBase@45@@Z@QEBA@XZ@@Z
	??$invoke@AEAV<lambda_1>@?CC@??_CancelAndRunContinuations@?$_Task_impl@E@details@Concurrency@@UEAA_N_N00AEBV?$shared_ptr@U_ExceptionHolder@details@Concurrency@@@std@@@Z@@std@@YAXAEAV<lambda_1>@?CC@??_CancelAndRunContinuations@?$_Task_impl@E@details@Concurrency@@UEAA_N_N00AEBV?$shared_ptr@U_ExceptionHolder@details@Concurrency@@@0@@Z@@Z
	??$invoke@V<lambda_1>@?1??_GetStaticAmbientSchedulerRef@details@Concurrency@@YAAEAV?$shared_ptr@Uscheduler_interface@Concurrency@@@std@@XZ@@std@@YAX$$QEAV<lambda_1>@?1??_GetStaticAmbientSchedulerRef@details@Concurrency@@YAAEAV?$shared_ptr@Uscheduler_interface@Concurrency@@@0@XZ@@Z
	??$isinf@N@@YA_NN@Z
	??$isnan@M@@YA_NM@Z
	??$isnan@N@@YA_NN@Z
	??$iter_swap@V?$_Vector_iterator@V?$_Vector_val@U?$_Simple_types@N@std@@@std@@@std@@V12@@std@@YAXV?$_Vector_iterator@V?$_Vector_val@U?$_Simple_types@N@std@@@std@@@0@0@Z
	??$jackknife@AEBQ6ANV?$_Vector_const_iterator@V?$_Vector_val@U?$_Simple_types@N@std@@@std@@@std@@0@Z@Detail@Benchmark@Catch@@YA?AV?$vector@NV?$allocator@N@std@@@std@@AEBQ6ANV?$_Vector_const_iterator@V?$_Vector_val@U?$_Simple_types@N@std@@@std@@@4@0@ZV?$_Vector_iterator@V?$_Vector_val@U?$_Simple_types@N@std@@@std@@@4@2@Z
	??$lexicographical_compare@PEBUTag@Catch@@PEBU12@@std@@YA_NQEBUTag@Catch@@000@Z
	??$lexicographical_compare@PEBUTag@Catch@@PEBU12@U?$less@X@std@@@std@@YA_NQEBUTag@Catch@@000U?$less@X@0@@Z
	??$lookup_classname@PEBD@?$_Regex_traits@D@std@@QEBAFPEBD0_N@Z
	??$make_pair@AEBV?$basic_string@DU?$char_traits@D@std@@V?$allocator@D@2@@std@@UTagAlias@Catch@@@std@@YA?AU?$pair@V?$basic_string@DU?$char_traits@D@std@@V?$allocator@D@2@@std@@UTagAlias@Catch@@@0@AEBV?$basic_string@DU?$char_traits@D@std@@V?$allocator@D@2@@0@$$QEAUTagAlias@Catch@@@Z
	??$make_pair@AEBVStringRef@Catch@@UTagInfo@2@@std@@YA?AU?$pair@VStringRef@Catch@@UTagInfo@2@@0@AEBVStringRef@Catch@@$$QEAUTagInfo@3@@Z
	??$make_reverse_iterator@PEBD@std@@YA?AV?$reverse_iterator@PEBD@0@PEBD@Z
	??$make_shared@U?$BoundValueRef@I@Detail@Clara@Catch@@AEAI@std@@YA?AV?$shared_ptr@U?$BoundValueRef@I@Detail@Clara@Catch@@@0@AEAI@Z
	??$make_shared@U?$BoundValueRef@N@Detail@Clara@Catch@@AEAN@std@@YA?AV?$shared_ptr@U?$BoundValueRef@N@Detail@Clara@Catch@@@0@AEAN@Z
	??$make_shared@U?$BoundValueRef@V?$basic_string@DU?$char_traits@D@std@@V?$allocator@D@2@@std@@@Detail@Clara@Catch@@AEAV?$basic_string@DU?$char_traits@D@std@@V?$allocator@D@2@@std@@@std@@YA?AV?$shared_ptr@U?$BoundValueRef@V?$basic_string@DU?$char_traits@D@std@@V?$allocator@D@2@@std@@@Detail@Clara@Catch@@@0@AEAV?$basic_string@DU?$char_traits@D@std@@V?$allocator@D@2@@0@@Z
	??$make_shared@U?$BoundValueRef@V?$vector@V?$basic_string@DU?$char_traits@D@std@@V?$allocator@D@2@@std@@V?$allocator@V?$basic_string@DU?$char_traits@D@std@@V?$allocator@D@2@@std@@@2@@std@@@Detail@Clara@Catch@@AEAV?$vector@V?$basic_string@DU?$char_traits@D@std@@V?$allocator@D@2@@std@@V?$allocator@V?$basic_string@DU?$char_traits@D@std@@V?$allocator@D@2@@std@@@2@@std@@@std@@YA?AV?$shared_ptr@U?$BoundValueRef@V?$vector@V?$basic_string@DU?$char_traits@D@std@@V?$allocator@D@2@@std@@V?$allocator@V?$basic_string@DU?$char_traits@D@std@@V?$allocator@D@2@@std@@@2@@std@@@Detail@Clara@Catch@@@0@AEAV?$vector@V?$basic_string@DU?$char_traits@D@std@@V?$allocator@D@2@@std@@V?$allocator@V?$basic_string@DU?$char_traits@D@std@@V?$allocator@D@2@@std@@@2@@0@@Z
	??$make_shared@U?$BoundValueRef@_J@Detail@Clara@Catch@@AEA_J@std@@YA?AV?$shared_ptr@U?$BoundValueRef@_J@Detail@Clara@Catch@@@0@AEA_J@Z
	??$make_shared@U?$_Task_impl@E@details@Concurrency@@AEAPEAV_CancellationTokenState@23@AEAUscheduler_ptr@3@@std@@YA?AV?$shared_ptr@U?$_Task_impl@E@details@Concurrency@@@0@AEAPEAV_CancellationTokenState@details@Concurrency@@AEAUscheduler_ptr@4@@Z
	??$make_shared@UBoundFlagRef@Detail@Clara@Catch@@AEA_N@std@@YA?AV?$shared_ptr@UBoundFlagRef@Detail@Clara@Catch@@@0@AEA_N@Z
	??$make_shared@U_ExceptionHolder@details@Concurrency@@AEBVexception_ptr@std@@V_TaskCreationCallstack@23@@std@@YA?AV?$shared_ptr@U_ExceptionHolder@details@Concurrency@@@0@AEBVexception_ptr@0@$$QEAV_TaskCreationCallstack@details@Concurrency@@@Z
	??$make_shared@V?$basic_string@DU?$char_traits@D@std@@V?$allocator@D@2@@std@@AEAY0N@$$CBD@std@@YA?AV?$shared_ptr@V?$basic_string@DU?$char_traits@D@std@@V?$allocator@D@2@@std@@@0@AEAY0N@$$CBD@Z
	??$make_unique@U?$Node@UTestCaseStats@Catch@@USectionNode@CumulativeReporterBase@2@@CumulativeReporterBase@Catch@@AEBUTestCaseStats@3@@Detail@Catch@@YA?AV?$unique_ptr@U?$Node@UTestCaseStats@Catch@@USectionNode@CumulativeReporterBase@2@@CumulativeReporterBase@Catch@@@01@AEBUTestCaseStats@1@@Z
	??$make_unique@U?$Node@UTestRunStats@Catch@@U?$Node@UTestCaseStats@Catch@@USectionNode@CumulativeReporterBase@2@@CumulativeReporterBase@2@@CumulativeReporterBase@Catch@@AEBUTestRunStats@3@@Detail@Catch@@YA?AV?$unique_ptr@U?$Node@UTestRunStats@Catch@@U?$Node@UTestCaseStats@Catch@@USectionNode@CumulativeReporterBase@2@@CumulativeReporterBase@2@@CumulativeReporterBase@Catch@@@01@AEBUTestRunStats@1@@Z
	??$make_unique@UEnumInfo@Detail@Catch@@$$V@Detail@Catch@@YA?AV?$unique_ptr@UEnumInfo@Detail@Catch@@@01@XZ
	??$make_unique@UReporterRegistryImpl@ReporterRegistry@Catch@@$$V@Detail@Catch@@YA?AV?$unique_ptr@UReporterRegistryImpl@ReporterRegistry@Catch@@@01@XZ
	??$make_unique@USectionNode@CumulativeReporterBase@Catch@@AEAUSectionStats@3@@Detail@Catch@@YA?AV?$unique_ptr@USectionNode@CumulativeReporterBase@Catch@@@01@AEAUSectionStats@1@@Z
	??$make_unique@UTestCaseInfo@Catch@@AEAVStringRef@2@AEBUNameAndTags@2@AEBUSourceLineInfo@2@@Detail@Catch@@YA?AV?$unique_ptr@UTestCaseInfo@Catch@@@01@AEAVStringRef@1@AEBUNameAndTags@1@AEBUSourceLineInfo@1@@Z
	??$make_unique@V?$ReporterFactory@VAutomakeReporter@Catch@@@Catch@@$$V@Detail@Catch@@YA?AV?$unique_ptr@V?$ReporterFactory@VAutomakeReporter@Catch@@@Catch@@@01@XZ
	??$make_unique@V?$ReporterFactory@VCompactReporter@Catch@@@Catch@@$$V@Detail@Catch@@YA?AV?$unique_ptr@V?$ReporterFactory@VCompactReporter@Catch@@@Catch@@@01@XZ
	??$make_unique@V?$ReporterFactory@VConsoleReporter@Catch@@@Catch@@$$V@Detail@Catch@@YA?AV?$unique_ptr@V?$ReporterFactory@VConsoleReporter@Catch@@@Catch@@@01@XZ
	??$make_unique@V?$ReporterFactory@VJunitReporter@Catch@@@Catch@@$$V@Detail@Catch@@YA?AV?$unique_ptr@V?$ReporterFactory@VJunitReporter@Catch@@@Catch@@@01@XZ
	??$make_unique@V?$ReporterFactory@VSonarQubeReporter@Catch@@@Catch@@$$V@Detail@Catch@@YA?AV?$unique_ptr@V?$ReporterFactory@VSonarQubeReporter@Catch@@@Catch@@@01@XZ
	??$make_unique@V?$ReporterFactory@VTAPReporter@Catch@@@Catch@@$$V@Detail@Catch@@YA?AV?$unique_ptr@V?$ReporterFactory@VTAPReporter@Catch@@@Catch@@@01@XZ
	??$make_unique@V?$ReporterFactory@VTeamCityReporter@Catch@@@Catch@@$$V@Detail@Catch@@YA?AV?$unique_ptr@V?$ReporterFactory@VTeamCityReporter@Catch@@@Catch@@@01@XZ
	??$make_unique@V?$ReporterFactory@VXmlReporter@Catch@@@Catch@@$$V@Detail@Catch@@YA?AV?$unique_ptr@V?$ReporterFactory@VXmlReporter@Catch@@@Catch@@@01@XZ
	??$make_unique@V?$basic_ostringstream@DU?$char_traits@D@std@@V?$allocator@D@2@@std@@$$V@Detail@Catch@@YA?AV?$unique_ptr@V?$basic_ostringstream@DU?$char_traits@D@std@@V?$allocator@D@2@@std@@@01@XZ
	??$make_unique@VAutomakeReporter@Catch@@UReporterConfig@2@@Detail@Catch@@YA?AV?$unique_ptr@VAutomakeReporter@Catch@@@01@$$QEAUReporterConfig@1@@Z
	??$make_unique@VCompactReporter@Catch@@UReporterConfig@2@@Detail@Catch@@YA?AV?$unique_ptr@VCompactReporter@Catch@@@01@$$QEAUReporterConfig@1@@Z
	??$make_unique@VConfig@Catch@@AEAUConfigData@2@@Detail@Catch@@YA?AV?$unique_ptr@VConfig@Catch@@@01@AEAUConfigData@1@@Z
	??$make_unique@VConsoleReporter@Catch@@UReporterConfig@2@@Detail@Catch@@YA?AV?$unique_ptr@VConsoleReporter@Catch@@@01@$$QEAUReporterConfig@1@@Z
	??$make_unique@VJunitReporter@Catch@@UReporterConfig@2@@Detail@Catch@@YA?AV?$unique_ptr@VJunitReporter@Catch@@@01@$$QEAUReporterConfig@1@@Z
	??$make_unique@VMultiReporter@Catch@@AEAPEBVConfig@2@@Detail@Catch@@YA?AV?$unique_ptr@VMultiReporter@Catch@@@01@AEAPEBVConfig@1@@Z
	??$make_unique@VNamePattern@TestSpec@Catch@@AEAV?$basic_string@DU?$char_traits@D@std@@V?$allocator@D@2@@std@@AEAV45@@Detail@Catch@@YA?AV?$unique_ptr@VNamePattern@TestSpec@Catch@@@01@AEAV?$basic_string@DU?$char_traits@D@std@@V?$allocator@D@2@@std@@0@Z
	??$make_unique@VSectionTracker@TestCaseTracking@Catch@@UNameAndLocation@23@AEAVTrackerContext@23@$$T@Detail@Catch@@YA?AV?$unique_ptr@VSectionTracker@TestCaseTracking@Catch@@@01@$$QEAUNameAndLocation@TestCaseTracking@1@AEAVTrackerContext@41@$$QEA$$T@Z
	??$make_unique@VSectionTracker@TestCaseTracking@Catch@@UNameAndLocation@23@AEAVTrackerContext@23@PEAVITracker@23@@Detail@Catch@@YA?AV?$unique_ptr@VSectionTracker@TestCaseTracking@Catch@@@01@$$QEAUNameAndLocation@TestCaseTracking@1@AEAVTrackerContext@41@$$QEAPEAVITracker@41@@Z
	??$make_unique@VSonarQubeReporter@Catch@@UReporterConfig@2@@Detail@Catch@@YA?AV?$unique_ptr@VSonarQubeReporter@Catch@@@01@$$QEAUReporterConfig@1@@Z
	??$make_unique@VTAPReporter@Catch@@UReporterConfig@2@@Detail@Catch@@YA?AV?$unique_ptr@VTAPReporter@Catch@@@01@$$QEAUReporterConfig@1@@Z
	??$make_unique@VTagPattern@TestSpec@Catch@@AEAV?$basic_string@DU?$char_traits@D@std@@V?$allocator@D@2@@std@@AEAV45@@Detail@Catch@@YA?AV?$unique_ptr@VTagPattern@TestSpec@Catch@@@01@AEAV?$basic_string@DU?$char_traits@D@std@@V?$allocator@D@2@@std@@0@Z
	??$make_unique@VTagPattern@TestSpec@Catch@@AEAY01$$CBDAEAV?$basic_string@DU?$char_traits@D@std@@V?$allocator@D@2@@std@@@Detail@Catch@@YA?AV?$unique_ptr@VTagPattern@TestSpec@Catch@@@01@AEAY01$$CBDAEAV?$basic_string@DU?$char_traits@D@std@@V?$allocator@D@2@@std@@@Z
	??$make_unique@VTeamCityReporter@Catch@@UReporterConfig@2@@Detail@Catch@@YA?AV?$unique_ptr@VTeamCityReporter@Catch@@@01@$$QEAUReporterConfig@1@@Z
	??$make_unique@VXmlReporter@Catch@@UReporterConfig@2@@Detail@Catch@@YA?AV?$unique_ptr@VXmlReporter@Catch@@@01@$$QEAUReporterConfig@1@@Z
	??$make_unique@V_Node_assert@std@@W4_Node_type@2@$0A@@std@@YA?AV?$unique_ptr@V_Node_assert@std@@U?$default_delete@V_Node_assert@std@@@2@@0@$$QEAW4_Node_type@0@@Z
	??$max@J@std@@YAAEBJAEBJ0@Z
	??$max@N@std@@YAAEBNAEBN0@Z
	??$max@PEAD@std@@YAAEBQEADAEBQEAD0@Z
	??$max@_K@std@@YAAEB_KAEB_K0@Z
	??$min@H@std@@YAAEBHAEBH0@Z
	??$min@J@std@@YAAEBJAEBJ0@Z
	??$min@N@std@@YAAEBNAEBN0@Z
	??$min@_K@std@@YAAEB_KAEB_K0@Z
	??$min_element@V?$_Vector_iterator@V?$_Vector_val@U?$_Simple_types@N@std@@@std@@@std@@@std@@YA?AV?$_Vector_iterator@V?$_Vector_val@U?$_Simple_types@N@std@@@std@@@0@V10@0@Z
	??$min_element@V?$_Vector_iterator@V?$_Vector_val@U?$_Simple_types@N@std@@@std@@@std@@U?$less@X@2@@std@@YA?AV?$_Vector_iterator@V?$_Vector_val@U?$_Simple_types@N@std@@@std@@@0@V10@0U?$less@X@0@@Z
	??$next@V?$_Tree_const_iterator@V?$_Tree_val@U?$_Tree_simple_types@PEBVTestCaseHandle@Catch@@@std@@@std@@@std@@@std@@YA?AV?$_Tree_const_iterator@V?$_Tree_val@U?$_Tree_simple_types@PEBVTestCaseHandle@Catch@@@std@@@std@@@0@V10@_J@Z
	??$next@V?$_Vector_const_iterator@V?$_Vector_val@U?$_Simple_types@VTestCaseHandle@Catch@@@std@@@std@@@std@@@std@@YA?AV?$_Vector_const_iterator@V?$_Vector_val@U?$_Simple_types@VTestCaseHandle@Catch@@@std@@@std@@@0@V10@_J@Z
	??$nth_element@V?$_Vector_iterator@V?$_Vector_val@U?$_Simple_types@N@std@@@std@@@std@@@std@@YAXV?$_Vector_iterator@V?$_Vector_val@U?$_Simple_types@N@std@@@std@@@0@00@Z
	??$nth_element@V?$_Vector_iterator@V?$_Vector_val@U?$_Simple_types@N@std@@@std@@@std@@U?$less@X@2@@std@@YAXV?$_Vector_iterator@V?$_Vector_val@U?$_Simple_types@N@std@@@std@@@0@00U?$less@X@0@@Z
	??$ok@VParseState@Detail@Clara@Catch@@@?$BasicResult@VParseState@Detail@Clara@Catch@@@Detail@Clara@Catch@@SA?AV0123@AEBVParseState@123@@Z
	??$ok@W4ParseResultType@Clara@Catch@@@?$BasicResult@W4ParseResultType@Clara@Catch@@@Detail@Clara@Catch@@SA?AV0123@AEBW4ParseResultType@23@@Z
	??$regex_match@U?$char_traits@D@std@@V?$allocator@D@2@DV?$regex_traits@D@2@@std@@YA_NAEBV?$basic_string@DU?$char_traits@D@std@@V?$allocator@D@2@@0@AEBV?$basic_regex@DV?$regex_traits@D@std@@@0@W4match_flag_type@regex_constants@0@@Z
	??$remove@V?$_Vector_iterator@V?$_Vector_val@U?$_Simple_types@UMessageInfo@Catch@@@std@@@std@@@std@@UMessageInfo@Catch@@@std@@YA?AV?$_Vector_iterator@V?$_Vector_val@U?$_Simple_types@UMessageInfo@Catch@@@std@@@std@@@0@V10@V10@AEBUMessageInfo@Catch@@@Z
	??$replace@V?$_String_iterator@V?$_String_val@U?$_Simple_types@D@std@@@std@@@std@@D@std@@YAXV?$_String_iterator@V?$_String_val@U?$_Simple_types@D@std@@@std@@@0@0AEBD1@Z
	??$setfill@D@std@@YA?AU?$_Fillobj@D@0@D@Z
	??$sort@V?$_Vector_iterator@V?$_Vector_val@U?$_Simple_types@N@std@@@std@@@std@@@std@@YAXV?$_Vector_iterator@V?$_Vector_val@U?$_Simple_types@N@std@@@std@@@0@0@Z
	??$sort@V?$_Vector_iterator@V?$_Vector_val@U?$_Simple_types@N@std@@@std@@@std@@U?$less@X@2@@std@@YAXV?$_Vector_iterator@V?$_Vector_val@U?$_Simple_types@N@std@@@std@@@0@0U?$less@X@0@@Z
	??$sort@V?$_Vector_iterator@V?$_Vector_val@U?$_Simple_types@UTag@Catch@@@std@@@std@@@std@@@std@@YAXV?$_Vector_iterator@V?$_Vector_val@U?$_Simple_types@UTag@Catch@@@std@@@std@@@0@0@Z
	??$sort@V?$_Vector_iterator@V?$_Vector_val@U?$_Simple_types@UTag@Catch@@@std@@@std@@@std@@U?$less@X@2@@std@@YAXV?$_Vector_iterator@V?$_Vector_val@U?$_Simple_types@UTag@Catch@@@std@@@std@@@0@0U?$less@X@0@@Z
	??$sprintf_s@$0BDK@@@YAHAEAY0BDK@DPEBDZZ
	??$sqrt@H$0A@@@YANH@Z
	??$stringify@C@Detail@Catch@@YA?AV?$basic_string@DU?$char_traits@D@std@@V?$allocator@D@2@@std@@AEBC@Z
	??$stringify@D@Detail@Catch@@YA?AV?$basic_string@DU?$char_traits@D@std@@V?$allocator@D@2@@std@@AEBD@Z
	??$stringify@I@Detail@Catch@@YA?AV?$basic_string@DU?$char_traits@D@std@@V?$allocator@D@2@@std@@AEBI@Z
	??$stringify@N@Detail@Catch@@YA?AV?$basic_string@DU?$char_traits@D@std@@V?$allocator@D@2@@std@@AEBN@Z
	??$stringify@USourceLineInfo@Catch@@@Detail@Catch@@YA?AV?$basic_string@DU?$char_traits@D@std@@V?$allocator@D@2@@std@@AEBUSourceLineInfo@1@@Z
	??$stringify@V?$basic_string@DU?$char_traits@D@std@@V?$allocator@D@2@@std@@@Detail@Catch@@YA?AV?$basic_string@DU?$char_traits@D@std@@V?$allocator@D@2@@std@@AEBV23@@Z
	??$stringify@V?$basic_string@_WU?$char_traits@_W@std@@V?$allocator@_W@2@@std@@@Detail@Catch@@YA?AV?$basic_string@DU?$char_traits@D@std@@V?$allocator@D@2@@std@@AEBV?$basic_string@_WU?$char_traits@_W@std@@V?$allocator@_W@2@@3@@Z
	??$stringify@_J@Detail@Catch@@YA?AV?$basic_string@DU?$char_traits@D@std@@V?$allocator@D@2@@std@@AEB_J@Z
	??$stringify@_K@Detail@Catch@@YA?AV?$basic_string@DU?$char_traits@D@std@@V?$allocator@D@2@@std@@AEB_K@Z
	??$swap@N$0A@@std@@YAXAEAN0@Z
	??$swap@PEAU?$_Task_impl@E@details@Concurrency@@$0A@@std@@YAXAEAPEAU?$_Task_impl@E@details@Concurrency@@0@Z
	??$swap@PEAU?$_Tree_node@PEBVTestCaseHandle@Catch@@PEAX@std@@$0A@@std@@YAXAEAPEAU?$_Tree_node@PEBVTestCaseHandle@Catch@@PEAX@0@0@Z
	??$swap@PEAU?$_Tree_node@U?$pair@$$CBV?$basic_string@DU?$char_traits@D@std@@V?$allocator@D@2@@std@@V12@@std@@PEAX@std@@$0A@@std@@YAXAEAPEAU?$_Tree_node@U?$pair@$$CBV?$basic_string@DU?$char_traits@D@std@@V?$allocator@D@2@@std@@V12@@std@@PEAX@0@0@Z
	??$swap@PEAU?$_Tree_node@VStringRef@Catch@@PEAX@std@@$0A@@std@@YAXAEAPEAU?$_Tree_node@VStringRef@Catch@@PEAX@0@0@Z
	??$swap@PEAUBoundRef@Detail@Clara@Catch@@$0A@@std@@YAXAEAPEAUBoundRef@Detail@Clara@Catch@@0@Z
	??$swap@PEAUBoundValueRefBase@Detail@Clara@Catch@@$0A@@std@@YAXAEAPEAUBoundValueRefBase@Detail@Clara@Catch@@0@Z
	??$swap@PEAU_ExceptionHolder@details@Concurrency@@$0A@@std@@YAXAEAPEAU_ExceptionHolder@details@Concurrency@@0@Z
	??$swap@PEAV?$basic_string@DU?$char_traits@D@std@@V?$allocator@D@2@@std@@$0A@@std@@YAXAEAPEAV?$basic_string@DU?$char_traits@D@std@@V?$allocator@D@2@@0@0@Z
	??$swap@PEAV?$unique_ptr@U?$Node@UTestCaseStats@Catch@@USectionNode@CumulativeReporterBase@2@@CumulativeReporterBase@Catch@@@Detail@Catch@@$0A@@std@@YAXAEAPEAV?$unique_ptr@U?$Node@UTestCaseStats@Catch@@USectionNode@CumulativeReporterBase@2@@CumulativeReporterBase@Catch@@@Detail@Catch@@0@Z
	??$swap@PEAV_Node_base@std@@$0A@@std@@YAXAEAPEAV_Node_base@0@0@Z
	??$swap@PEAV_Ref_count_base@std@@$0A@@std@@YAXAEAPEAV_Ref_count_base@0@0@Z
	??$swap@PEBVColourImpl@Catch@@$0A@@std@@YAXAEAPEBVColourImpl@Catch@@0@Z
	??$swap@UTag@Catch@@$0A@@std@@YAXAEAUTag@Catch@@0@Z
	??$swap@VTestCaseHandle@Catch@@$0A@@std@@YAXAEAVTestCaseHandle@Catch@@0@Z
	??$swap@W4Code@Colour@Catch@@$0A@@std@@YAXAEAW4Code@Colour@Catch@@0@Z
	??$swap@_K$0A@@std@@YAXAEA_K0@Z
	??$swap@_KVTestCaseHandle@Catch@@$0A@@std@@YAXAEAU?$pair@_KVTestCaseHandle@Catch@@@0@0@Z
	??$swap@_N$0A@@std@@YAXAEA_N0@Z
	??$throw_exception@Uoptimized_away_error@Detail@Benchmark@Catch@@@Catch@@YAXAEBUoptimized_away_error@Detail@Benchmark@0@@Z
	??$throw_exception@VGeneratorException@Catch@@@Catch@@YAXAEBVGeneratorException@0@@Z
	??$throw_exception@Vdomain_error@std@@@Catch@@YAXAEBVdomain_error@std@@@Z
	??$throw_exception@Vlogic_error@std@@@Catch@@YAXAEBVlogic_error@std@@@Z
	??$throw_exception@Vruntime_error@std@@@Catch@@YAXAEBVruntime_error@std@@@Z
	??$transform_primary@PEAD@?$_Regex_traits@D@std@@QEBA?AV?$basic_string@DU?$char_traits@D@std@@V?$allocator@D@2@@1@PEAD0@Z
	??$transform_primary@PEBD@?$_Regex_traits@D@std@@QEBA?AV?$basic_string@DU?$char_traits@D@std@@V?$allocator@D@2@@1@PEBD0@Z
	??$transform_primary@V?$_String_iterator@V?$_String_val@U?$_Simple_types@D@std@@@std@@@std@@@?$_Regex_traits@D@std@@QEBA?AV?$basic_string@DU?$char_traits@D@std@@V?$allocator@D@2@@1@V?$_String_iterator@V?$_String_val@U?$_Simple_types@D@std@@@std@@@1@0@Z
	??$ulpDistance@M@Catch@@YA_KMM@Z
	??$ulpDistance@N@Catch@@YA_KNN@Z
	??$uninitialized_copy@PEAPEADPEAPEAD@std@@YAPEAPEADQEAPEAD0PEAPEAD@Z
	??$unique@V?$_Vector_iterator@V?$_Vector_val@U?$_Simple_types@UTag@Catch@@@std@@@std@@@std@@@std@@YA?AV?$_Vector_iterator@V?$_Vector_val@U?$_Simple_types@UTag@Catch@@@std@@@std@@@0@V10@0@Z
	??$unique@V?$_Vector_iterator@V?$_Vector_val@U?$_Simple_types@UTag@Catch@@@std@@@std@@@std@@U?$equal_to@X@2@@std@@YA?AV?$_Vector_iterator@V?$_Vector_val@U?$_Simple_types@UTag@Catch@@@std@@@std@@@0@V10@0U?$equal_to@X@0@@Z
	??$use_facet@V?$codecvt@DDU_Mbstatet@@@std@@@std@@YAAEBV?$codecvt@DDU_Mbstatet@@@0@AEBVlocale@0@@Z
	??$use_facet@V?$collate@D@std@@@std@@YAAEBV?$collate@D@0@AEBVlocale@0@@Z
	??$use_facet@V?$ctype@D@std@@@std@@YAAEBV?$ctype@D@0@AEBVlocale@0@@Z
	??$wait@V<lambda_1>@?BE@??_DeregisterCallback@_CancellationTokenState@details@Concurrency@@QEAAXPEAV_CancellationTokenRegistration@45@@Z@@condition_variable@std@@QEAAXAEAV?$unique_lock@Vmutex@std@@@1@V<lambda_1>@?BE@??_DeregisterCallback@_CancellationTokenState@details@Concurrency@@QEAAXPEAV_CancellationTokenRegistration@67@@Z@@Z
	??$writeAttribute@DX@XmlWriter@Catch@@QEAAAEAV01@VStringRef@1@AEBD@Z
	??$writeAttribute@HX@XmlWriter@Catch@@QEAAAEAV01@VStringRef@1@AEBH@Z
	??$writeAttribute@IX@ScopedElement@XmlWriter@Catch@@QEAAAEAV012@VStringRef@2@AEBI@Z
	??$writeAttribute@IX@XmlWriter@Catch@@QEAAAEAV01@VStringRef@1@AEBI@Z
	??$writeAttribute@JX@XmlWriter@Catch@@QEAAAEAV01@VStringRef@1@AEBJ@Z
	??$writeAttribute@NX@ScopedElement@XmlWriter@Catch@@QEAAAEAV012@VStringRef@2@AEBN@Z
	??$writeAttribute@NX@XmlWriter@Catch@@QEAAAEAV01@VStringRef@1@AEBN@Z
	??$writeAttribute@UVersion@Catch@@X@XmlWriter@Catch@@QEAAAEAV01@VStringRef@1@AEBUVersion@1@@Z
	??$writeAttribute@VTestSpec@Catch@@X@ScopedElement@XmlWriter@Catch@@QEAAAEAV012@VStringRef@2@AEBVTestSpec@2@@Z
	??$writeAttribute@VTestSpec@Catch@@X@XmlWriter@Catch@@QEAAAEAV01@VStringRef@1@AEBVTestSpec@1@@Z
	??$writeAttribute@_KX@ScopedElement@XmlWriter@Catch@@QEAAAEAV012@VStringRef@2@AEB_K@Z
	??$writeAttribute@_KX@XmlWriter@Catch@@QEAAAEAV01@VStringRef@1@AEB_K@Z
	??$writeAttribute@_NX@ScopedElement@XmlWriter@Catch@@QEAAAEAV012@VStringRef@2@AEB_N@Z
	??0<lambda_1>@?1???$bootstrap@AEBQ6ANV?$_Vector_const_iterator@V?$_Vector_val@U?$_Simple_types@N@std@@@std@@@std@@0@Z@Detail@Benchmark@Catch@@YA?AU?$Estimate@N@23@NV?$_Vector_iterator@V?$_Vector_val@U?$_Simple_types@N@std@@@std@@@std@@0AEBV?$vector@NV?$allocator@N@std@@@6@AEBQ6ANV?$_Vector_const_iterator@V?$_Vector_val@U?$_Simple_types@N@std@@@std@@@6@2@Z@Z@QEAA@AEBN@Z
	??0<lambda_1>@?1??_MakeVoidToUnitFunc@details@Concurrency@@YA?AV?$function@$$A6AEXZ@std@@AEBV?$function@$$A6AXXZ@5@@Z@QEAA@$$QEAV0?1??123@YA?AV45@0@Z@@Z
	??0<lambda_1>@?1??_MakeVoidToUnitFunc@details@Concurrency@@YA?AV?$function@$$A6AEXZ@std@@AEBV?$function@$$A6AXXZ@5@@Z@QEAA@0@Z
	??0<lambda_1>@?1??_MakeVoidToUnitFunc@details@Concurrency@@YA?AV?$function@$$A6AEXZ@std@@AEBV?$function@$$A6AXXZ@5@@Z@QEAA@AEBV0?1??123@YA?AV45@0@Z@@Z
	??0<lambda_1>@?1??_RegisterCancellation@_Task_impl_base@details@Concurrency@@QEAAXV?$weak_ptr@U_Task_impl_base@details@Concurrency@@@std@@@Z@QEAA@AEBV0?1??1234@QEAAX0@Z@@Z
	??0<lambda_1>@?1??_RegisterCancellation@_Task_impl_base@details@Concurrency@@QEAAXV?$weak_ptr@U_Task_impl_base@details@Concurrency@@@std@@@Z@QEAA@AEBV56@@Z
	??0<lambda_1>@?4??_ScheduleContinuationTask@_Task_impl_base@details@Concurrency@@QEAAXPEAU_ContinuationTaskHandleBase@34@@Z@QEAA@AEBQEAU534@@Z
	??0<lambda_1>@?7???R0?4??_ScheduleContinuationTask@_Task_impl_base@details@Concurrency@@QEAAXPEAU_ContinuationTaskHandleBase@34@@Z@QEBA@XZ@QEAA@$$QEAV0?7???R0?4??1234@QEAAX0@Z@QEBA@XZ@@Z
	??0<lambda_1>@?7???R0?4??_ScheduleContinuationTask@_Task_impl_base@details@Concurrency@@QEAAXPEAU_ContinuationTaskHandleBase@34@@Z@QEBA@XZ@QEAA@AEBQEAU534@AEBV?$shared_ptr@U_Task_impl_base@details@Concurrency@@@std@@@Z
	??0<lambda_1>@?7???R0?4??_ScheduleContinuationTask@_Task_impl_base@details@Concurrency@@QEAAXPEAU_ContinuationTaskHandleBase@34@@Z@QEBA@XZ@QEAA@AEBV0?7???R0?4??1234@QEAAX0@Z@QEBA@XZ@@Z
	??0<lambda_1>@?BE@??_DeregisterCallback@_CancellationTokenState@details@Concurrency@@QEAAXPEAV_CancellationTokenRegistration@34@@Z@QEAA@AEBQEAV534@@Z
	??0<lambda_1>@?CC@??_CancelAndRunContinuations@?$_Task_impl@E@details@Concurrency@@UEAA_N_N00AEBV?$shared_ptr@U_ExceptionHolder@details@Concurrency@@@std@@@Z@QEAA@PEAU234@@Z
	??0<lambda_2>@?1???$bootstrap@AEBQ6ANV?$_Vector_const_iterator@V?$_Vector_val@U?$_Simple_types@N@std@@@std@@@std@@0@Z@Detail@Benchmark@Catch@@YA?AU?$Estimate@N@23@NV?$_Vector_iterator@V?$_Vector_val@U?$_Simple_types@N@std@@@std@@@std@@0AEBV?$vector@NV?$allocator@N@std@@@6@AEBQ6ANV?$_Vector_const_iterator@V?$_Vector_val@U?$_Simple_types@N@std@@@std@@@6@2@Z@Z@QEAA@AEBJ@Z
	??0<lambda_3>@?1???$bootstrap@AEBQ6ANV?$_Vector_const_iterator@V?$_Vector_val@U?$_Simple_types@N@std@@@std@@@std@@0@Z@Detail@Benchmark@Catch@@YA?AU?$Estimate@N@23@NV?$_Vector_iterator@V?$_Vector_val@U?$_Simple_types@N@std@@@std@@@std@@0AEBV?$vector@NV?$allocator@N@std@@@6@AEBQ6ANV?$_Vector_const_iterator@V?$_Vector_val@U?$_Simple_types@N@std@@@std@@@6@2@Z@Z@QEAA@AEBN4@Z
	??0?$BasicResult@VParseState@Detail@Clara@Catch@@@Detail@Clara@Catch@@IEAA@W4ResultType@123@$$QEAV?$basic_string@DU?$char_traits@D@std@@V?$allocator@D@2@@std@@@Z
	??0?$BasicResult@VParseState@Detail@Clara@Catch@@@Detail@Clara@Catch@@IEAA@W4ResultType@123@AEBVParseState@123@@Z
	??0?$BasicResult@VParseState@Detail@Clara@Catch@@@Detail@Clara@Catch@@QEAA@$$QEAV0123@@Z
	??0?$BasicResult@W4ParseResultType@Clara@Catch@@@Detail@Clara@Catch@@IEAA@W4ResultType@123@$$QEAV?$basic_string@DU?$char_traits@D@std@@V?$allocator@D@2@@std@@@Z
	??0?$BasicResult@W4ParseResultType@Clara@Catch@@@Detail@Clara@Catch@@IEAA@W4ResultType@123@AEBW4ParseResultType@23@@Z
	??0?$BasicResult@W4ParseResultType@Clara@Catch@@@Detail@Clara@Catch@@QEAA@$$QEAV0123@@Z
	??0?$BasicResult@W4ParseResultType@Clara@Catch@@@Detail@Clara@Catch@@QEAA@AEBV0123@@Z
	??0?$BasicResult@X@Detail@Clara@Catch@@IEAA@W4ResultType@123@$$QEAV?$basic_string@DU?$char_traits@D@std@@V?$allocator@D@2@@std@@@Z
	??0?$BasicResult@X@Detail@Clara@Catch@@IEAA@W4ResultType@123@@Z
	??0?$BasicResult@X@Detail@Clara@Catch@@QEAA@$$QEAV0123@@Z
	??0?$BenchmarkStats@V?$duration@NU?$ratio@$00$0DLJKMKAA@@std@@@chrono@std@@@Catch@@QEAA@$$QEAU01@@Z
	??0?$BenchmarkStats@V?$duration@NU?$ratio@$00$0DLJKMKAA@@std@@@chrono@std@@@Catch@@QEAA@AEBU01@@Z
	??0?$BoundValueRef@I@Detail@Clara@Catch@@QEAA@AEAI@Z
	??0?$BoundValueRef@N@Detail@Clara@Catch@@QEAA@AEAN@Z
	??0?$BoundValueRef@V?$basic_string@DU?$char_traits@D@std@@V?$allocator@D@2@@std@@@Detail@Clara@Catch@@QEAA@AEAV?$basic_string@DU?$char_traits@D@std@@V?$allocator@D@2@@std@@@Z
	??0?$BoundValueRef@V?$vector@V?$basic_string@DU?$char_traits@D@std@@V?$allocator@D@2@@std@@V?$allocator@V?$basic_string@DU?$char_traits@D@std@@V?$allocator@D@2@@std@@@2@@std@@@Detail@Clara@Catch@@QEAA@AEAV?$vector@V?$basic_string@DU?$char_traits@D@std@@V?$allocator@D@2@@std@@V?$allocator@V?$basic_string@DU?$char_traits@D@std@@V?$allocator@D@2@@std@@@2@@std@@@Z
	??0?$BoundValueRef@_J@Detail@Clara@Catch@@QEAA@AEA_J@Z
	??0?$ComposableParserImpl@VArg@Clara@Catch@@@Detail@Clara@Catch@@QEAA@$$QEAV0123@@Z
	??0?$ComposableParserImpl@VArg@Clara@Catch@@@Detail@Clara@Catch@@QEAA@AEBV0123@@Z
	??0?$ComposableParserImpl@VArg@Clara@Catch@@@Detail@Clara@Catch@@QEAA@XZ
	??0?$ComposableParserImpl@VExeName@Clara@Catch@@@Detail@Clara@Catch@@QEAA@AEBV0123@@Z
	??0?$ComposableParserImpl@VExeName@Clara@Catch@@@Detail@Clara@Catch@@QEAA@XZ
	??0?$ComposableParserImpl@VOpt@Clara@Catch@@@Detail@Clara@Catch@@QEAA@$$QEAV0123@@Z
	??0?$ComposableParserImpl@VOpt@Clara@Catch@@@Detail@Clara@Catch@@QEAA@AEBV0123@@Z
	??0?$ComposableParserImpl@VOpt@Clara@Catch@@@Detail@Clara@Catch@@QEAA@XZ
	??0?$MatchExpr@V?$basic_string@DU?$char_traits@D@std@@V?$allocator@D@2@@std@@AEBV?$MatcherBase@V?$basic_string@DU?$char_traits@D@std@@V?$allocator@D@2@@std@@@Matchers@Catch@@@Catch@@QEAA@$$QEAV?$basic_string@DU?$char_traits@D@std@@V?$allocator@D@2@@std@@AEBV?$MatcherBase@V?$basic_string@DU?$char_traits@D@std@@V?$allocator@D@2@@std@@@Matchers@1@@Z
	??0?$MatcherBase@N@Matchers@Catch@@QEAA@XZ
	??0?$MatcherBase@V?$basic_string@DU?$char_traits@D@std@@V?$allocator@D@2@@std@@@Matchers@Catch@@QEAA@XZ
	??0?$MatcherBase@Vexception@std@@@Matchers@Catch@@QEAA@XZ
	??0?$Node@UTestCaseStats@Catch@@USectionNode@CumulativeReporterBase@2@@CumulativeReporterBase@Catch@@QEAA@AEBUTestCaseStats@2@@Z
	??0?$Node@UTestRunStats@Catch@@U?$Node@UTestCaseStats@Catch@@USectionNode@CumulativeReporterBase@2@@CumulativeReporterBase@2@@CumulativeReporterBase@Catch@@QEAA@AEBUTestRunStats@2@@Z
	??0?$Optional@I@Catch@@QEAA@$$QEAI@Z
	??0?$Optional@I@Catch@@QEAA@XZ
	??0?$Optional@U?$BenchmarkStats@V?$duration@NU?$ratio@$00$0DLJKMKAA@@std@@@chrono@std@@@Catch@@@Catch@@QEAA@$$QEAV01@@Z
	??0?$Optional@U?$BenchmarkStats@V?$duration@NU?$ratio@$00$0DLJKMKAA@@std@@@chrono@std@@@Catch@@@Catch@@QEAA@AEBU?$BenchmarkStats@V?$duration@NU?$ratio@$00$0DLJKMKAA@@std@@@chrono@std@@@1@@Z
	??0?$Optional@U?$BenchmarkStats@V?$duration@NU?$ratio@$00$0DLJKMKAA@@std@@@chrono@std@@@Catch@@@Catch@@QEAA@AEBV01@@Z
	??0?$Optional@U?$BenchmarkStats@V?$duration@NU?$ratio@$00$0DLJKMKAA@@std@@@chrono@std@@@Catch@@@Catch@@QEAA@XZ
	??0?$Optional@UAssertionStats@Catch@@@Catch@@QEAA@$$QEAV01@@Z
	??0?$Optional@UAssertionStats@Catch@@@Catch@@QEAA@AEBUAssertionStats@1@@Z
	??0?$Optional@UAssertionStats@Catch@@@Catch@@QEAA@AEBV01@@Z
	??0?$Optional@UAssertionStats@Catch@@@Catch@@QEAA@XZ
	??0?$Optional@V?$basic_string@DU?$char_traits@D@std@@V?$allocator@D@2@@std@@@Catch@@QEAA@$$QEAV01@@Z
	??0?$Optional@V?$basic_string@DU?$char_traits@D@std@@V?$allocator@D@2@@std@@@Catch@@QEAA@$$QEAV?$basic_string@DU?$char_traits@D@std@@V?$allocator@D@2@@std@@@Z
	??0?$Optional@V?$basic_string@DU?$char_traits@D@std@@V?$allocator@D@2@@std@@@Catch@@QEAA@AEBV01@@Z
	??0?$Optional@V?$basic_string@DU?$char_traits@D@std@@V?$allocator@D@2@@std@@@Catch@@QEAA@XZ
	??0?$Optional@VAssertionResult@Catch@@@Catch@@QEAA@XZ
	??0?$Optional@VReporterSpec@Catch@@@Catch@@QEAA@$$QEAVReporterSpec@1@@Z
	??0?$Optional@VReporterSpec@Catch@@@Catch@@QEAA@XZ
	??0?$Optional@W4ColourMode@Catch@@@Catch@@QEAA@$$QEAV01@@Z
	??0?$Optional@W4ColourMode@Catch@@@Catch@@QEAA@$$QEAW4ColourMode@1@@Z
	??0?$Optional@W4ColourMode@Catch@@@Catch@@QEAA@AEBV01@@Z
	??0?$Optional@W4ColourMode@Catch@@@Catch@@QEAA@XZ
	??0?$ParserRefImpl@VArg@Clara@Catch@@@Detail@Clara@Catch@@QEAA@$$QEAV0123@@Z
	??0?$ParserRefImpl@VArg@Clara@Catch@@@Detail@Clara@Catch@@QEAA@AEBV0123@@Z
	??0?$ParserRefImpl@VOpt@Clara@Catch@@@Detail@Clara@Catch@@IEAA@AEBV?$shared_ptr@UBoundRef@Detail@Clara@Catch@@@std@@@Z
	??0?$ParserRefImpl@VOpt@Clara@Catch@@@Detail@Clara@Catch@@QEAA@$$QEAV0123@@Z
	??0?$ParserRefImpl@VOpt@Clara@Catch@@@Detail@Clara@Catch@@QEAA@AEBV0123@@Z
	??0?$ReporterFactory@VAutomakeReporter@Catch@@@Catch@@QEAA@XZ
	??0?$ReporterFactory@VCompactReporter@Catch@@@Catch@@QEAA@XZ
	??0?$ReporterFactory@VConsoleReporter@Catch@@@Catch@@QEAA@XZ
	??0?$ReporterFactory@VJunitReporter@Catch@@@Catch@@QEAA@XZ
	??0?$ReporterFactory@VSonarQubeReporter@Catch@@@Catch@@QEAA@XZ
	??0?$ReporterFactory@VTAPReporter@Catch@@@Catch@@QEAA@XZ
	??0?$ReporterFactory@VTeamCityReporter@Catch@@@Catch@@QEAA@XZ
	??0?$ReporterFactory@VXmlReporter@Catch@@@Catch@@QEAA@XZ
	??0?$ResultValueBase@VParseState@Detail@Clara@Catch@@@Detail@Clara@Catch@@IEAA@AEBV0123@@Z
	??0?$ResultValueBase@VParseState@Detail@Clara@Catch@@@Detail@Clara@Catch@@IEAA@W4ResultType@123@@Z
	??0?$ResultValueBase@VParseState@Detail@Clara@Catch@@@Detail@Clara@Catch@@IEAA@W4ResultType@123@AEBVParseState@123@@Z
	??0?$ResultValueBase@W4ParseResultType@Clara@Catch@@@Detail@Clara@Catch@@IEAA@AEBV0123@@Z
	??0?$ResultValueBase@W4ParseResultType@Clara@Catch@@@Detail@Clara@Catch@@IEAA@W4ResultType@123@@Z
	??0?$ResultValueBase@W4ParseResultType@Clara@Catch@@@Detail@Clara@Catch@@IEAA@W4ResultType@123@AEBW4ParseResultType@23@@Z
	??0?$ResultValueBase@X@Detail@Clara@Catch@@IEAA@W4ResultType@123@@Z
	??0?$ResultValueBase@X@Detail@Clara@Catch@@QEAA@$$QEAV0123@@Z
	??0?$Singleton@UStringStreams@Catch@@U12@U12@@Catch@@QEAA@XZ
	??0?$_Alloc_construct_ptr@V?$allocator@U?$_Tree_node@PEBUTestCaseInfo@Catch@@PEAX@std@@@std@@@std@@QEAA@AEAV?$allocator@U?$_Tree_node@PEBUTestCaseInfo@Catch@@PEAX@std@@@1@@Z
	??0?$_Alloc_construct_ptr@V?$allocator@U?$_Tree_node@PEBVTestCaseHandle@Catch@@PEAX@std@@@std@@@std@@QEAA@AEAV?$allocator@U?$_Tree_node@PEBVTestCaseHandle@Catch@@PEAX@std@@@1@@Z
	??0?$_Alloc_construct_ptr@V?$allocator@U?$_Tree_node@U?$pair@$$CBV?$basic_string@DU?$char_traits@D@std@@V?$allocator@D@2@@std@@UTagAlias@Catch@@@std@@PEAX@std@@@std@@@std@@QEAA@AEAV?$allocator@U?$_Tree_node@U?$pair@$$CBV?$basic_string@DU?$char_traits@D@std@@V?$allocator@D@2@@std@@UTagAlias@Catch@@@std@@PEAX@std@@@1@@Z
	??0?$_Alloc_construct_ptr@V?$allocator@U?$_Tree_node@U?$pair@$$CBV?$basic_string@DU?$char_traits@D@std@@V?$allocator@D@2@@std@@V12@@std@@PEAX@std@@@std@@@std@@QEAA@AEAV?$allocator@U?$_Tree_node@U?$pair@$$CBV?$basic_string@DU?$char_traits@D@std@@V?$allocator@D@2@@std@@V12@@std@@PEAX@std@@@1@@Z
	??0?$_Alloc_construct_ptr@V?$allocator@U?$_Tree_node@U?$pair@$$CBV?$basic_string@DU?$char_traits@D@std@@V?$allocator@D@2@@std@@V?$unique_ptr@VIReporterFactory@Catch@@@Detail@Catch@@@std@@PEAX@std@@@std@@@std@@QEAA@AEAV?$allocator@U?$_Tree_node@U?$pair@$$CBV?$basic_string@DU?$char_traits@D@std@@V?$allocator@D@2@@std@@V?$unique_ptr@VIReporterFactory@Catch@@@Detail@Catch@@@std@@PEAX@std@@@1@@Z
	??0?$_Alloc_construct_ptr@V?$allocator@U?$_Tree_node@U?$pair@$$CBVStringRef@Catch@@UTagInfo@2@@std@@PEAX@std@@@std@@@std@@QEAA@AEAV?$allocator@U?$_Tree_node@U?$pair@$$CBVStringRef@Catch@@UTagInfo@2@@std@@PEAX@std@@@1@@Z
	??0?$_Alloc_construct_ptr@V?$allocator@U?$_Tree_node@U?$pair@$$CBVStringRef@Catch@@V?$vector@PEBU?$Node@UTestCaseStats@Catch@@USectionNode@CumulativeReporterBase@2@@CumulativeReporterBase@Catch@@V?$allocator@PEBU?$Node@UTestCaseStats@Catch@@USectionNode@CumulativeReporterBase@2@@CumulativeReporterBase@Catch@@@std@@@std@@@std@@PEAX@std@@@std@@@std@@QEAA@AEAV?$allocator@U?$_Tree_node@U?$pair@$$CBVStringRef@Catch@@V?$vector@PEBU?$Node@UTestCaseStats@Catch@@USectionNode@CumulativeReporterBase@2@@CumulativeReporterBase@Catch@@V?$allocator@PEBU?$Node@UTestCaseStats@Catch@@USectionNode@CumulativeReporterBase@2@@CumulativeReporterBase@Catch@@@std@@@std@@@std@@PEAX@std@@@1@@Z
	??0?$_Alloc_construct_ptr@V?$allocator@U?$_Tree_node@VStringRef@Catch@@PEAX@std@@@std@@@std@@QEAA@AEAV?$allocator@U?$_Tree_node@VStringRef@Catch@@PEAX@std@@@1@@Z
	??0?$_Associated_state@U?$Estimate@N@Benchmark@Catch@@@std@@QEAA@PEAU?$_Deleter_base@U?$Estimate@N@Benchmark@Catch@@@1@@Z
	??0?$_Atomic_integral@J$03@std@@QEAA@J@Z
	??0?$_Atomic_integral_facade@J@std@@QEAA@J@Z
	??0?$_Atomic_storage@J$03@std@@QEAA@J@Z
	??0?$_Bt_state_t@PEBD@std@@QEAA@AEBV01@@Z
	??0?$_Bt_state_t@PEBD@std@@QEAA@XZ
	??0?$_Buf@D@std@@QEAA@XZ
	??0?$_Builder@PEBDDV?$regex_traits@D@std@@@std@@QEAA@AEBV?$regex_traits@D@1@W4syntax_option_type@regex_constants@1@@Z
	??0?$_CancellationTokenCallback@V<lambda_1>@?1??_RegisterCancellation@_Task_impl_base@details@Concurrency@@QEAAXV?$weak_ptr@U_Task_impl_base@details@Concurrency@@@std@@@Z@@details@Concurrency@@QEAA@AEBV<lambda_1>@?1??_RegisterCancellation@_Task_impl_base@12@QEAAXV?$weak_ptr@U_Task_impl_base@details@Concurrency@@@std@@@Z@@Z
	??0?$_Cmp_collate@V?$regex_traits@D@std@@@std@@QEAA@AEBV?$regex_traits@D@1@@Z
	??0?$_Cmp_icase@V?$_Regex_traits@D@std@@@std@@QEAA@AEBV?$_Regex_traits@D@1@@Z
	??0?$_Cmp_icase@V?$regex_traits@D@std@@@std@@QEAA@AEBV?$regex_traits@D@1@@Z
	??0?$_Container_proxy_ptr12@V?$allocator@U_Container_proxy@std@@@std@@@std@@QEAA@AEAV?$allocator@U_Container_proxy@std@@@1@AEAU_Container_base12@1@@Z
	??0?$_Deque_val@U?$_Deque_simple_types@D@std@@@std@@QEAA@XZ
	??0?$_Fillobj@D@std@@QEAA@D@Z
	??0?$_Func_base@E$$V@std@@QEAA@XZ
	??0?$_Func_base@U?$Estimate@N@Benchmark@Catch@@$$V@std@@QEAA@XZ
	??0?$_Func_base@X$$V@std@@QEAA@XZ
	??0?$_Func_class@E$$V@std@@QEAA@XZ
	??0?$_Func_class@U?$Estimate@N@Benchmark@Catch@@$$V@std@@QEAA@XZ
	??0?$_Func_class@X$$V@std@@QEAA@XZ
	??0?$_Matcher@PEBDDV?$regex_traits@D@std@@PEBD@std@@QEAA@PEBD0AEBV?$regex_traits@D@1@PEAV_Root_node@1@IW4syntax_option_type@regex_constants@1@W4match_flag_type@51@@Z
	??0?$_Node_class@DV?$regex_traits@D@std@@@std@@QEAA@W4_Node_type@1@W4_Node_flags@1@@Z
	??0?$_Node_str@D@std@@QEAA@W4_Node_flags@1@@Z
	??0?$_Parser@PEBDDV?$regex_traits@D@std@@@std@@QEAA@AEBV?$regex_traits@D@1@PEBD1W4syntax_option_type@regex_constants@1@@Z
	??0?$_Promise@U?$Estimate@N@Benchmark@Catch@@@std@@QEAA@PEAV?$_Associated_state@U?$Estimate@N@Benchmark@Catch@@@1@@Z
	??0?$_Ptr_base@U?$BoundValueRef@I@Detail@Clara@Catch@@@std@@IEAA@XZ
	??0?$_Ptr_base@U?$BoundValueRef@N@Detail@Clara@Catch@@@std@@IEAA@XZ
	??0?$_Ptr_base@U?$BoundValueRef@V?$basic_string@DU?$char_traits@D@std@@V?$allocator@D@2@@std@@@Detail@Clara@Catch@@@std@@IEAA@XZ
	??0?$_Ptr_base@U?$BoundValueRef@V?$vector@V?$basic_string@DU?$char_traits@D@std@@V?$allocator@D@2@@std@@V?$allocator@V?$basic_string@DU?$char_traits@D@std@@V?$allocator@D@2@@std@@@2@@std@@@Detail@Clara@Catch@@@std@@IEAA@XZ
	??0?$_Ptr_base@U?$BoundValueRef@_J@Detail@Clara@Catch@@@std@@IEAA@XZ
	??0?$_Ptr_base@U?$_Task_impl@E@details@Concurrency@@@std@@IEAA@XZ
	??0?$_Ptr_base@UBoundFlagRef@Detail@Clara@Catch@@@std@@IEAA@XZ
	??0?$_Ptr_base@UBoundRef@Detail@Clara@Catch@@@std@@IEAA@XZ
	??0?$_Ptr_base@UBoundValueRefBase@Detail@Clara@Catch@@@std@@IEAA@XZ
	??0?$_Ptr_base@U_ExceptionHolder@details@Concurrency@@@std@@IEAA@XZ
	??0?$_Ptr_base@U_Task_impl_base@details@Concurrency@@@std@@IEAA@XZ
	??0?$_Ptr_base@Uscheduler_interface@Concurrency@@@std@@IEAA@XZ
	??0?$_Ptr_base@V?$basic_string@DU?$char_traits@D@std@@V?$allocator@D@2@@std@@@std@@IEAA@XZ
	??0?$_Regex_traits@D@std@@QEAA@XZ
	??0?$_Rng_from_urng_v2@_KV?$mersenne_twister_engine@I$0CA@$0CHA@$0BIN@$0BP@$0JJAILANP@$0L@$0PPPPPPPP@$06$0JNCMFGIA@$0P@$0OPMGAAAA@$0BC@$0GMAHIJGF@@std@@@std@@QEAA@AEAV?$mersenne_twister_engine@I$0CA@$0CHA@$0BIN@$0BP@$0JJAILANP@$0L@$0PPPPPPPP@$06$0JNCMFGIA@$0P@$0OPMGAAAA@$0BC@$0GMAHIJGF@@1@@Z
	??0?$_Sequence@D@std@@QEAA@I@Z
	??0?$_State_manager@U?$Estimate@N@Benchmark@Catch@@@std@@QEAA@$$QEAV01@_N@Z
	??0?$_State_manager@U?$Estimate@N@Benchmark@Catch@@@std@@QEAA@AEBV01@_N@Z
	??0?$_State_manager@U?$Estimate@N@Benchmark@Catch@@@std@@QEAA@PEAV?$_Associated_state@U?$Estimate@N@Benchmark@Catch@@@1@_N@Z
	??0?$_String_bitmap@D$00@std@@QEAA@XZ
	??0?$_String_const_iterator@V?$_String_val@U?$_Simple_types@D@std@@@std@@@std@@QEAA@$$QEAV01@@Z
	??0?$_String_const_iterator@V?$_String_val@U?$_Simple_types@D@std@@@std@@@std@@QEAA@AEBV01@@Z
	??0?$_String_const_iterator@V?$_String_val@U?$_Simple_types@D@std@@@std@@@std@@QEAA@PEBDPEBU_Container_base12@1@@Z
	??0?$_String_iterator@V?$_String_val@U?$_Simple_types@D@std@@@std@@@std@@QEAA@AEBV01@@Z
	??0?$_String_iterator@V?$_String_val@U?$_Simple_types@D@std@@@std@@@std@@QEAA@PEBDPEBU_Container_base12@1@@Z
	??0?$_String_val@U?$_Simple_types@D@std@@@std@@QEAA@XZ
	??0?$_String_val@U?$_Simple_types@_W@std@@@std@@QEAA@XZ
	??0?$_Task_impl@E@details@Concurrency@@QEAA@PEAV_CancellationTokenState@12@Uscheduler_ptr@2@@Z
	??0?$_Tgt_state_t@PEBD@std@@QEAA@AEBV01@@Z
	??0?$_Tgt_state_t@PEBD@std@@QEAA@XZ
	??0?$_Tree@V?$_Tmap_traits@V?$basic_string@DU?$char_traits@D@std@@V?$allocator@D@2@@std@@UTagAlias@Catch@@U?$less@V?$basic_string@DU?$char_traits@D@std@@V?$allocator@D@2@@std@@@2@V?$allocator@U?$pair@$$CBV?$basic_string@DU?$char_traits@D@std@@V?$allocator@D@2@@std@@UTagAlias@Catch@@@std@@@2@$0A@@std@@@std@@QEAA@AEBU?$less@V?$basic_string@DU?$char_traits@D@std@@V?$allocator@D@2@@std@@@1@@Z
	??0?$_Tree@V?$_Tmap_traits@V?$basic_string@DU?$char_traits@D@std@@V?$allocator@D@2@@std@@V12@U?$less@V?$basic_string@DU?$char_traits@D@std@@V?$allocator@D@2@@std@@@2@V?$allocator@U?$pair@$$CBV?$basic_string@DU?$char_traits@D@std@@V?$allocator@D@2@@std@@V12@@std@@@2@$0A@@std@@@std@@QEAA@$$QEAV01@@Z
	??0?$_Tree@V?$_Tmap_traits@V?$basic_string@DU?$char_traits@D@std@@V?$allocator@D@2@@std@@V12@U?$less@V?$basic_string@DU?$char_traits@D@std@@V?$allocator@D@2@@std@@@2@V?$allocator@U?$pair@$$CBV?$basic_string@DU?$char_traits@D@std@@V?$allocator@D@2@@std@@V12@@std@@@2@$0A@@std@@@std@@QEAA@AEBU?$less@V?$basic_string@DU?$char_traits@D@std@@V?$allocator@D@2@@std@@@1@@Z
	??0?$_Tree@V?$_Tmap_traits@V?$basic_string@DU?$char_traits@D@std@@V?$allocator@D@2@@std@@V?$unique_ptr@VIReporterFactory@Catch@@@Detail@Catch@@UCaseInsensitiveLess@45@V?$allocator@U?$pair@$$CBV?$basic_string@DU?$char_traits@D@std@@V?$allocator@D@2@@std@@V?$unique_ptr@VIReporterFactory@Catch@@@Detail@Catch@@@std@@@2@$0A@@std@@@std@@QEAA@AEBUCaseInsensitiveLess@Detail@Catch@@@Z
	??0?$_Tree@V?$_Tmap_traits@VStringRef@Catch@@UTagInfo@2@UCaseInsensitiveLess@Detail@2@V?$allocator@U?$pair@$$CBVStringRef@Catch@@UTagInfo@2@@std@@@std@@$0A@@std@@@std@@QEAA@AEBUCaseInsensitiveLess@Detail@Catch@@@Z
	??0?$_Tree@V?$_Tmap_traits@VStringRef@Catch@@V?$vector@PEBU?$Node@UTestCaseStats@Catch@@USectionNode@CumulativeReporterBase@2@@CumulativeReporterBase@Catch@@V?$allocator@PEBU?$Node@UTestCaseStats@Catch@@USectionNode@CumulativeReporterBase@2@@CumulativeReporterBase@Catch@@@std@@@std@@U?$less@VStringRef@Catch@@@4@V?$allocator@U?$pair@$$CBVStringRef@Catch@@V?$vector@PEBU?$Node@UTestCaseStats@Catch@@USectionNode@CumulativeReporterBase@2@@CumulativeReporterBase@Catch@@V?$allocator@PEBU?$Node@UTestCaseStats@Catch@@USectionNode@CumulativeReporterBase@2@@CumulativeReporterBase@Catch@@@std@@@std@@@std@@@4@$0A@@std@@@std@@QEAA@AEBU?$less@VStringRef@Catch@@@1@@Z
	??0?$_Tree@V?$_Tset_traits@PEBVTestCaseHandle@Catch@@U?$less@PEBVTestCaseHandle@Catch@@@std@@V?$allocator@PEBVTestCaseHandle@Catch@@@4@$0A@@std@@@std@@QEAA@AEBU?$less@PEBVTestCaseHandle@Catch@@@1@@Z
	??0?$_Tree@V?$_Tset_traits@VStringRef@Catch@@U?$less@VStringRef@Catch@@@std@@V?$allocator@VStringRef@Catch@@@4@$0A@@std@@@std@@QEAA@$$QEAV01@@Z
	??0?$_Tree@V?$_Tset_traits@VStringRef@Catch@@U?$less@VStringRef@Catch@@@std@@V?$allocator@VStringRef@Catch@@@4@$0A@@std@@@std@@QEAA@AEBU?$less@VStringRef@Catch@@@1@@Z
	??0?$_Tree_const_iterator@V?$_Tree_val@U?$_Tree_simple_types@PEBUTestCaseInfo@Catch@@@std@@@std@@@std@@QEAA@$$QEAV01@@Z
	??0?$_Tree_const_iterator@V?$_Tree_val@U?$_Tree_simple_types@PEBUTestCaseInfo@Catch@@@std@@@std@@@std@@QEAA@PEAU?$_Tree_node@PEBUTestCaseInfo@Catch@@PEAX@1@PEBV?$_Tree_val@U?$_Tree_simple_types@PEBUTestCaseInfo@Catch@@@std@@@1@@Z
	??0?$_Tree_const_iterator@V?$_Tree_val@U?$_Tree_simple_types@PEBVTestCaseHandle@Catch@@@std@@@std@@@std@@QEAA@$$QEAV01@@Z
	??0?$_Tree_const_iterator@V?$_Tree_val@U?$_Tree_simple_types@PEBVTestCaseHandle@Catch@@@std@@@std@@@std@@QEAA@AEBV01@@Z
	??0?$_Tree_const_iterator@V?$_Tree_val@U?$_Tree_simple_types@PEBVTestCaseHandle@Catch@@@std@@@std@@@std@@QEAA@PEAU?$_Tree_node@PEBVTestCaseHandle@Catch@@PEAX@1@PEBV?$_Tree_val@U?$_Tree_simple_types@PEBVTestCaseHandle@Catch@@@std@@@1@@Z
	??0?$_Tree_const_iterator@V?$_Tree_val@U?$_Tree_simple_types@U?$pair@$$CBV?$basic_string@DU?$char_traits@D@std@@V?$allocator@D@2@@std@@UTagAlias@Catch@@@std@@@std@@@std@@@std@@QEAA@$$QEAV01@@Z
	??0?$_Tree_const_iterator@V?$_Tree_val@U?$_Tree_simple_types@U?$pair@$$CBV?$basic_string@DU?$char_traits@D@std@@V?$allocator@D@2@@std@@UTagAlias@Catch@@@std@@@std@@@std@@@std@@QEAA@PEAU?$_Tree_node@U?$pair@$$CBV?$basic_string@DU?$char_traits@D@std@@V?$allocator@D@2@@std@@UTagAlias@Catch@@@std@@PEAX@1@PEBV?$_Tree_val@U?$_Tree_simple_types@U?$pair@$$CBV?$basic_string@DU?$char_traits@D@std@@V?$allocator@D@2@@std@@UTagAlias@Catch@@@std@@@std@@@1@@Z
	??0?$_Tree_const_iterator@V?$_Tree_val@U?$_Tree_simple_types@U?$pair@$$CBV?$basic_string@DU?$char_traits@D@std@@V?$allocator@D@2@@std@@V12@@std@@@std@@@std@@@std@@QEAA@$$QEAV01@@Z
	??0?$_Tree_const_iterator@V?$_Tree_val@U?$_Tree_simple_types@U?$pair@$$CBV?$basic_string@DU?$char_traits@D@std@@V?$allocator@D@2@@std@@V12@@std@@@std@@@std@@@std@@QEAA@PEAU?$_Tree_node@U?$pair@$$CBV?$basic_string@DU?$char_traits@D@std@@V?$allocator@D@2@@std@@V12@@std@@PEAX@1@PEBV?$_Tree_val@U?$_Tree_simple_types@U?$pair@$$CBV?$basic_string@DU?$char_traits@D@std@@V?$allocator@D@2@@std@@V12@@std@@@std@@@1@@Z
	??0?$_Tree_const_iterator@V?$_Tree_val@U?$_Tree_simple_types@U?$pair@$$CBV?$basic_string@DU?$char_traits@D@std@@V?$allocator@D@2@@std@@V?$unique_ptr@VIReporterFactory@Catch@@@Detail@Catch@@@std@@@std@@@std@@@std@@QEAA@$$QEAV01@@Z
	??0?$_Tree_const_iterator@V?$_Tree_val@U?$_Tree_simple_types@U?$pair@$$CBV?$basic_string@DU?$char_traits@D@std@@V?$allocator@D@2@@std@@V?$unique_ptr@VIReporterFactory@Catch@@@Detail@Catch@@@std@@@std@@@std@@@std@@QEAA@PEAU?$_Tree_node@U?$pair@$$CBV?$basic_string@DU?$char_traits@D@std@@V?$allocator@D@2@@std@@V?$unique_ptr@VIReporterFactory@Catch@@@Detail@Catch@@@std@@PEAX@1@PEBV?$_Tree_val@U?$_Tree_simple_types@U?$pair@$$CBV?$basic_string@DU?$char_traits@D@std@@V?$allocator@D@2@@std@@V?$unique_ptr@VIReporterFactory@Catch@@@Detail@Catch@@@std@@@std@@@1@@Z
	??0?$_Tree_const_iterator@V?$_Tree_val@U?$_Tree_simple_types@U?$pair@$$CBVStringRef@Catch@@UTagInfo@2@@std@@@std@@@std@@@std@@QEAA@$$QEAV01@@Z
	??0?$_Tree_const_iterator@V?$_Tree_val@U?$_Tree_simple_types@U?$pair@$$CBVStringRef@Catch@@UTagInfo@2@@std@@@std@@@std@@@std@@QEAA@PEAU?$_Tree_node@U?$pair@$$CBVStringRef@Catch@@UTagInfo@2@@std@@PEAX@1@PEBV?$_Tree_val@U?$_Tree_simple_types@U?$pair@$$CBVStringRef@Catch@@UTagInfo@2@@std@@@std@@@1@@Z
	??0?$_Tree_const_iterator@V?$_Tree_val@U?$_Tree_simple_types@VStringRef@Catch@@@std@@@std@@@std@@QEAA@$$QEAV01@@Z
	??0?$_Tree_const_iterator@V?$_Tree_val@U?$_Tree_simple_types@VStringRef@Catch@@@std@@@std@@@std@@QEAA@PEAU?$_Tree_node@VStringRef@Catch@@PEAX@1@PEBV?$_Tree_val@U?$_Tree_simple_types@VStringRef@Catch@@@std@@@1@@Z
	??0?$_Tree_head_scoped_ptr@V?$allocator@U?$_Tree_node@PEBVTestCaseHandle@Catch@@PEAX@std@@@std@@V?$_Tree_val@U?$_Tree_simple_types@PEBVTestCaseHandle@Catch@@@std@@@2@@std@@QEAA@AEAV?$allocator@U?$_Tree_node@PEBVTestCaseHandle@Catch@@PEAX@std@@@1@AEAV?$_Tree_val@U?$_Tree_simple_types@PEBVTestCaseHandle@Catch@@@std@@@1@@Z
	??0?$_Tree_head_scoped_ptr@V?$allocator@U?$_Tree_node@U?$pair@$$CBV?$basic_string@DU?$char_traits@D@std@@V?$allocator@D@2@@std@@V12@@std@@PEAX@std@@@std@@V?$_Tree_val@U?$_Tree_simple_types@U?$pair@$$CBV?$basic_string@DU?$char_traits@D@std@@V?$allocator@D@2@@std@@V12@@std@@@std@@@2@@std@@QEAA@AEAV?$allocator@U?$_Tree_node@U?$pair@$$CBV?$basic_string@DU?$char_traits@D@std@@V?$allocator@D@2@@std@@V12@@std@@PEAX@std@@@1@AEAV?$_Tree_val@U?$_Tree_simple_types@U?$pair@$$CBV?$basic_string@DU?$char_traits@D@std@@V?$allocator@D@2@@std@@V12@@std@@@std@@@1@@Z
	??0?$_Tree_head_scoped_ptr@V?$allocator@U?$_Tree_node@VStringRef@Catch@@PEAX@std@@@std@@V?$_Tree_val@U?$_Tree_simple_types@VStringRef@Catch@@@std@@@2@@std@@QEAA@AEAV?$allocator@U?$_Tree_node@VStringRef@Catch@@PEAX@std@@@1@AEAV?$_Tree_val@U?$_Tree_simple_types@VStringRef@Catch@@@std@@@1@@Z
	??0?$_Tree_iterator@V?$_Tree_val@U?$_Tree_simple_types@U?$pair@$$CBV?$basic_string@DU?$char_traits@D@std@@V?$allocator@D@2@@std@@UTagAlias@Catch@@@std@@@std@@@std@@@std@@QEAA@$$QEAV01@@Z
	??0?$_Tree_iterator@V?$_Tree_val@U?$_Tree_simple_types@U?$pair@$$CBV?$basic_string@DU?$char_traits@D@std@@V?$allocator@D@2@@std@@UTagAlias@Catch@@@std@@@std@@@std@@@std@@QEAA@PEAU?$_Tree_node@U?$pair@$$CBV?$basic_string@DU?$char_traits@D@std@@V?$allocator@D@2@@std@@UTagAlias@Catch@@@std@@PEAX@1@PEBV?$_Tree_val@U?$_Tree_simple_types@U?$pair@$$CBV?$basic_string@DU?$char_traits@D@std@@V?$allocator@D@2@@std@@UTagAlias@Catch@@@std@@@std@@@1@@Z
	??0?$_Tree_iterator@V?$_Tree_val@U?$_Tree_simple_types@U?$pair@$$CBV?$basic_string@DU?$char_traits@D@std@@V?$allocator@D@2@@std@@V12@@std@@@std@@@std@@@std@@QEAA@$$QEAV01@@Z
	??0?$_Tree_iterator@V?$_Tree_val@U?$_Tree_simple_types@U?$pair@$$CBV?$basic_string@DU?$char_traits@D@std@@V?$allocator@D@2@@std@@V12@@std@@@std@@@std@@@std@@QEAA@PEAU?$_Tree_node@U?$pair@$$CBV?$basic_string@DU?$char_traits@D@std@@V?$allocator@D@2@@std@@V12@@std@@PEAX@1@PEBV?$_Tree_val@U?$_Tree_simple_types@U?$pair@$$CBV?$basic_string@DU?$char_traits@D@std@@V?$allocator@D@2@@std@@V12@@std@@@std@@@1@@Z
	??0?$_Tree_iterator@V?$_Tree_val@U?$_Tree_simple_types@U?$pair@$$CBV?$basic_string@DU?$char_traits@D@std@@V?$allocator@D@2@@std@@V?$unique_ptr@VIReporterFactory@Catch@@@Detail@Catch@@@std@@@std@@@std@@@std@@QEAA@$$QEAV01@@Z
	??0?$_Tree_iterator@V?$_Tree_val@U?$_Tree_simple_types@U?$pair@$$CBV?$basic_string@DU?$char_traits@D@std@@V?$allocator@D@2@@std@@V?$unique_ptr@VIReporterFactory@Catch@@@Detail@Catch@@@std@@@std@@@std@@@std@@QEAA@PEAU?$_Tree_node@U?$pair@$$CBV?$basic_string@DU?$char_traits@D@std@@V?$allocator@D@2@@std@@V?$unique_ptr@VIReporterFactory@Catch@@@Detail@Catch@@@std@@PEAX@1@PEBV?$_Tree_val@U?$_Tree_simple_types@U?$pair@$$CBV?$basic_string@DU?$char_traits@D@std@@V?$allocator@D@2@@std@@V?$unique_ptr@VIReporterFactory@Catch@@@Detail@Catch@@@std@@@std@@@1@@Z
	??0?$_Tree_iterator@V?$_Tree_val@U?$_Tree_simple_types@U?$pair@$$CBVStringRef@Catch@@UTagInfo@2@@std@@@std@@@std@@@std@@QEAA@$$QEAV01@@Z
	??0?$_Tree_iterator@V?$_Tree_val@U?$_Tree_simple_types@U?$pair@$$CBVStringRef@Catch@@UTagInfo@2@@std@@@std@@@std@@@std@@QEAA@PEAU?$_Tree_node@U?$pair@$$CBVStringRef@Catch@@UTagInfo@2@@std@@PEAX@1@PEBV?$_Tree_val@U?$_Tree_simple_types@U?$pair@$$CBVStringRef@Catch@@UTagInfo@2@@std@@@std@@@1@@Z
	??0?$_Tree_temp_node_alloc@V?$allocator@U?$_Tree_node@PEBUTestCaseInfo@Catch@@PEAX@std@@@std@@@std@@QEAA@AEAV?$allocator@U?$_Tree_node@PEBUTestCaseInfo@Catch@@PEAX@std@@@1@@Z
	??0?$_Tree_temp_node_alloc@V?$allocator@U?$_Tree_node@PEBVTestCaseHandle@Catch@@PEAX@std@@@std@@@std@@QEAA@AEAV?$allocator@U?$_Tree_node@PEBVTestCaseHandle@Catch@@PEAX@std@@@1@@Z
	??0?$_Tree_temp_node_alloc@V?$allocator@U?$_Tree_node@U?$pair@$$CBV?$basic_string@DU?$char_traits@D@std@@V?$allocator@D@2@@std@@UTagAlias@Catch@@@std@@PEAX@std@@@std@@@std@@QEAA@AEAV?$allocator@U?$_Tree_node@U?$pair@$$CBV?$basic_string@DU?$char_traits@D@std@@V?$allocator@D@2@@std@@UTagAlias@Catch@@@std@@PEAX@std@@@1@@Z
	??0?$_Tree_temp_node_alloc@V?$allocator@U?$_Tree_node@U?$pair@$$CBV?$basic_string@DU?$char_traits@D@std@@V?$allocator@D@2@@std@@V12@@std@@PEAX@std@@@std@@@std@@QEAA@AEAV?$allocator@U?$_Tree_node@U?$pair@$$CBV?$basic_string@DU?$char_traits@D@std@@V?$allocator@D@2@@std@@V12@@std@@PEAX@std@@@1@@Z
	??0?$_Tree_temp_node_alloc@V?$allocator@U?$_Tree_node@U?$pair@$$CBV?$basic_string@DU?$char_traits@D@std@@V?$allocator@D@2@@std@@V?$unique_ptr@VIReporterFactory@Catch@@@Detail@Catch@@@std@@PEAX@std@@@std@@@std@@QEAA@AEAV?$allocator@U?$_Tree_node@U?$pair@$$CBV?$basic_string@DU?$char_traits@D@std@@V?$allocator@D@2@@std@@V?$unique_ptr@VIReporterFactory@Catch@@@Detail@Catch@@@std@@PEAX@std@@@1@@Z
	??0?$_Tree_temp_node_alloc@V?$allocator@U?$_Tree_node@U?$pair@$$CBVStringRef@Catch@@UTagInfo@2@@std@@PEAX@std@@@std@@@std@@QEAA@AEAV?$allocator@U?$_Tree_node@U?$pair@$$CBVStringRef@Catch@@UTagInfo@2@@std@@PEAX@std@@@1@@Z
	??0?$_Tree_temp_node_alloc@V?$allocator@U?$_Tree_node@U?$pair@$$CBVStringRef@Catch@@V?$vector@PEBU?$Node@UTestCaseStats@Catch@@USectionNode@CumulativeReporterBase@2@@CumulativeReporterBase@Catch@@V?$allocator@PEBU?$Node@UTestCaseStats@Catch@@USectionNode@CumulativeReporterBase@2@@CumulativeReporterBase@Catch@@@std@@@std@@@std@@PEAX@std@@@std@@@std@@QEAA@AEAV?$allocator@U?$_Tree_node@U?$pair@$$CBVStringRef@Catch@@V?$vector@PEBU?$Node@UTestCaseStats@Catch@@USectionNode@CumulativeReporterBase@2@@CumulativeReporterBase@Catch@@V?$allocator@PEBU?$Node@UTestCaseStats@Catch@@USectionNode@CumulativeReporterBase@2@@CumulativeReporterBase@Catch@@@std@@@std@@@std@@PEAX@std@@@1@@Z
	??0?$_Tree_temp_node_alloc@V?$allocator@U?$_Tree_node@VStringRef@Catch@@PEAX@std@@@std@@@std@@QEAA@AEAV?$allocator@U?$_Tree_node@VStringRef@Catch@@PEAX@std@@@1@@Z
	??0?$_Tree_unchecked_const_iterator@V?$_Tree_val@U?$_Tree_simple_types@PEBUTestCaseInfo@Catch@@@std@@@std@@U_Iterator_base12@2@@std@@QEAA@$$QEAV01@@Z
	??0?$_Tree_unchecked_const_iterator@V?$_Tree_val@U?$_Tree_simple_types@PEBUTestCaseInfo@Catch@@@std@@@std@@U_Iterator_base12@2@@std@@QEAA@PEAU?$_Tree_node@PEBUTestCaseInfo@Catch@@PEAX@1@PEBV?$_Tree_val@U?$_Tree_simple_types@PEBUTestCaseInfo@Catch@@@std@@@1@@Z
	??0?$_Tree_unchecked_const_iterator@V?$_Tree_val@U?$_Tree_simple_types@PEBVTestCaseHandle@Catch@@@std@@@std@@U_Iterator_base0@2@@std@@QEAA@PEAU?$_Tree_node@PEBVTestCaseHandle@Catch@@PEAX@1@PEBV?$_Tree_val@U?$_Tree_simple_types@PEBVTestCaseHandle@Catch@@@std@@@1@@Z
	??0?$_Tree_unchecked_const_iterator@V?$_Tree_val@U?$_Tree_simple_types@PEBVTestCaseHandle@Catch@@@std@@@std@@U_Iterator_base12@2@@std@@QEAA@$$QEAV01@@Z
	??0?$_Tree_unchecked_const_iterator@V?$_Tree_val@U?$_Tree_simple_types@PEBVTestCaseHandle@Catch@@@std@@@std@@U_Iterator_base12@2@@std@@QEAA@AEBV01@@Z
	??0?$_Tree_unchecked_const_iterator@V?$_Tree_val@U?$_Tree_simple_types@PEBVTestCaseHandle@Catch@@@std@@@std@@U_Iterator_base12@2@@std@@QEAA@PEAU?$_Tree_node@PEBVTestCaseHandle@Catch@@PEAX@1@PEBV?$_Tree_val@U?$_Tree_simple_types@PEBVTestCaseHandle@Catch@@@std@@@1@@Z
	??0?$_Tree_unchecked_const_iterator@V?$_Tree_val@U?$_Tree_simple_types@U?$pair@$$CBV?$basic_string@DU?$char_traits@D@std@@V?$allocator@D@2@@std@@UTagAlias@Catch@@@std@@@std@@@std@@U_Iterator_base0@2@@std@@QEAA@PEAU?$_Tree_node@U?$pair@$$CBV?$basic_string@DU?$char_traits@D@std@@V?$allocator@D@2@@std@@UTagAlias@Catch@@@std@@PEAX@1@PEBV?$_Tree_val@U?$_Tree_simple_types@U?$pair@$$CBV?$basic_string@DU?$char_traits@D@std@@V?$allocator@D@2@@std@@UTagAlias@Catch@@@std@@@std@@@1@@Z
	??0?$_Tree_unchecked_const_iterator@V?$_Tree_val@U?$_Tree_simple_types@U?$pair@$$CBV?$basic_string@DU?$char_traits@D@std@@V?$allocator@D@2@@std@@UTagAlias@Catch@@@std@@@std@@@std@@U_Iterator_base12@2@@std@@QEAA@$$QEAV01@@Z
	??0?$_Tree_unchecked_const_iterator@V?$_Tree_val@U?$_Tree_simple_types@U?$pair@$$CBV?$basic_string@DU?$char_traits@D@std@@V?$allocator@D@2@@std@@UTagAlias@Catch@@@std@@@std@@@std@@U_Iterator_base12@2@@std@@QEAA@PEAU?$_Tree_node@U?$pair@$$CBV?$basic_string@DU?$char_traits@D@std@@V?$allocator@D@2@@std@@UTagAlias@Catch@@@std@@PEAX@1@PEBV?$_Tree_val@U?$_Tree_simple_types@U?$pair@$$CBV?$basic_string@DU?$char_traits@D@std@@V?$allocator@D@2@@std@@UTagAlias@Catch@@@std@@@std@@@1@@Z
	??0?$_Tree_unchecked_const_iterator@V?$_Tree_val@U?$_Tree_simple_types@U?$pair@$$CBV?$basic_string@DU?$char_traits@D@std@@V?$allocator@D@2@@std@@V12@@std@@@std@@@std@@U_Iterator_base0@2@@std@@QEAA@PEAU?$_Tree_node@U?$pair@$$CBV?$basic_string@DU?$char_traits@D@std@@V?$allocator@D@2@@std@@V12@@std@@PEAX@1@PEBV?$_Tree_val@U?$_Tree_simple_types@U?$pair@$$CBV?$basic_string@DU?$char_traits@D@std@@V?$allocator@D@2@@std@@V12@@std@@@std@@@1@@Z
	??0?$_Tree_unchecked_const_iterator@V?$_Tree_val@U?$_Tree_simple_types@U?$pair@$$CBV?$basic_string@DU?$char_traits@D@std@@V?$allocator@D@2@@std@@V12@@std@@@std@@@std@@U_Iterator_base12@2@@std@@QEAA@$$QEAV01@@Z
	??0?$_Tree_unchecked_const_iterator@V?$_Tree_val@U?$_Tree_simple_types@U?$pair@$$CBV?$basic_string@DU?$char_traits@D@std@@V?$allocator@D@2@@std@@V12@@std@@@std@@@std@@U_Iterator_base12@2@@std@@QEAA@PEAU?$_Tree_node@U?$pair@$$CBV?$basic_string@DU?$char_traits@D@std@@V?$allocator@D@2@@std@@V12@@std@@PEAX@1@PEBV?$_Tree_val@U?$_Tree_simple_types@U?$pair@$$CBV?$basic_string@DU?$char_traits@D@std@@V?$allocator@D@2@@std@@V12@@std@@@std@@@1@@Z
	??0?$_Tree_unchecked_const_iterator@V?$_Tree_val@U?$_Tree_simple_types@U?$pair@$$CBV?$basic_string@DU?$char_traits@D@std@@V?$allocator@D@2@@std@@V?$unique_ptr@VIReporterFactory@Catch@@@Detail@Catch@@@std@@@std@@@std@@U_Iterator_base0@2@@std@@QEAA@PEAU?$_Tree_node@U?$pair@$$CBV?$basic_string@DU?$char_traits@D@std@@V?$allocator@D@2@@std@@V?$unique_ptr@VIReporterFactory@Catch@@@Detail@Catch@@@std@@PEAX@1@PEBV?$_Tree_val@U?$_Tree_simple_types@U?$pair@$$CBV?$basic_string@DU?$char_traits@D@std@@V?$allocator@D@2@@std@@V?$unique_ptr@VIReporterFactory@Catch@@@Detail@Catch@@@std@@@std@@@1@@Z
	??0?$_Tree_unchecked_const_iterator@V?$_Tree_val@U?$_Tree_simple_types@U?$pair@$$CBV?$basic_string@DU?$char_traits@D@std@@V?$allocator@D@2@@std@@V?$unique_ptr@VIReporterFactory@Catch@@@Detail@Catch@@@std@@@std@@@std@@U_Iterator_base12@2@@std@@QEAA@$$QEAV01@@Z
	??0?$_Tree_unchecked_const_iterator@V?$_Tree_val@U?$_Tree_simple_types@U?$pair@$$CBV?$basic_string@DU?$char_traits@D@std@@V?$allocator@D@2@@std@@V?$unique_ptr@VIReporterFactory@Catch@@@Detail@Catch@@@std@@@std@@@std@@U_Iterator_base12@2@@std@@QEAA@PEAU?$_Tree_node@U?$pair@$$CBV?$basic_string@DU?$char_traits@D@std@@V?$allocator@D@2@@std@@V?$unique_ptr@VIReporterFactory@Catch@@@Detail@Catch@@@std@@PEAX@1@PEBV?$_Tree_val@U?$_Tree_simple_types@U?$pair@$$CBV?$basic_string@DU?$char_traits@D@std@@V?$allocator@D@2@@std@@V?$unique_ptr@VIReporterFactory@Catch@@@Detail@Catch@@@std@@@std@@@1@@Z
	??0?$_Tree_unchecked_const_iterator@V?$_Tree_val@U?$_Tree_simple_types@U?$pair@$$CBVStringRef@Catch@@UTagInfo@2@@std@@@std@@@std@@U_Iterator_base0@2@@std@@QEAA@PEAU?$_Tree_node@U?$pair@$$CBVStringRef@Catch@@UTagInfo@2@@std@@PEAX@1@PEBV?$_Tree_val@U?$_Tree_simple_types@U?$pair@$$CBVStringRef@Catch@@UTagInfo@2@@std@@@std@@@1@@Z
	??0?$_Tree_unchecked_const_iterator@V?$_Tree_val@U?$_Tree_simple_types@U?$pair@$$CBVStringRef@Catch@@UTagInfo@2@@std@@@std@@@std@@U_Iterator_base12@2@@std@@QEAA@$$QEAV01@@Z
	??0?$_Tree_unchecked_const_iterator@V?$_Tree_val@U?$_Tree_simple_types@U?$pair@$$CBVStringRef@Catch@@UTagInfo@2@@std@@@std@@@std@@U_Iterator_base12@2@@std@@QEAA@PEAU?$_Tree_node@U?$pair@$$CBVStringRef@Catch@@UTagInfo@2@@std@@PEAX@1@PEBV?$_Tree_val@U?$_Tree_simple_types@U?$pair@$$CBVStringRef@Catch@@UTagInfo@2@@std@@@std@@@1@@Z
	??0?$_Tree_unchecked_const_iterator@V?$_Tree_val@U?$_Tree_simple_types@U?$pair@$$CBVStringRef@Catch@@V?$vector@PEBU?$Node@UTestCaseStats@Catch@@USectionNode@CumulativeReporterBase@2@@CumulativeReporterBase@Catch@@V?$allocator@PEBU?$Node@UTestCaseStats@Catch@@USectionNode@CumulativeReporterBase@2@@CumulativeReporterBase@Catch@@@std@@@std@@@std@@@std@@@std@@U_Iterator_base0@2@@std@@QEAA@PEAU?$_Tree_node@U?$pair@$$CBVStringRef@Catch@@V?$vector@PEBU?$Node@UTestCaseStats@Catch@@USectionNode@CumulativeReporterBase@2@@CumulativeReporterBase@Catch@@V?$allocator@PEBU?$Node@UTestCaseStats@Catch@@USectionNode@CumulativeReporterBase@2@@CumulativeReporterBase@Catch@@@std@@@std@@@std@@PEAX@1@PEBV?$_Tree_val@U?$_Tree_simple_types@U?$pair@$$CBVStringRef@Catch@@V?$vector@PEBU?$Node@UTestCaseStats@Catch@@USectionNode@CumulativeReporterBase@2@@CumulativeReporterBase@Catch@@V?$allocator@PEBU?$Node@UTestCaseStats@Catch@@USectionNode@CumulativeReporterBase@2@@CumulativeReporterBase@Catch@@@std@@@std@@@std@@@std@@@1@@Z
	??0?$_Tree_unchecked_const_iterator@V?$_Tree_val@U?$_Tree_simple_types@VStringRef@Catch@@@std@@@std@@U_Iterator_base0@2@@std@@QEAA@PEAU?$_Tree_node@VStringRef@Catch@@PEAX@1@PEBV?$_Tree_val@U?$_Tree_simple_types@VStringRef@Catch@@@std@@@1@@Z
	??0?$_Tree_unchecked_const_iterator@V?$_Tree_val@U?$_Tree_simple_types@VStringRef@Catch@@@std@@@std@@U_Iterator_base12@2@@std@@QEAA@$$QEAV01@@Z
	??0?$_Tree_unchecked_const_iterator@V?$_Tree_val@U?$_Tree_simple_types@VStringRef@Catch@@@std@@@std@@U_Iterator_base12@2@@std@@QEAA@PEAU?$_Tree_node@VStringRef@Catch@@PEAX@1@PEBV?$_Tree_val@U?$_Tree_simple_types@VStringRef@Catch@@@std@@@1@@Z
	??0?$_Tree_unchecked_iterator@V?$_Tree_val@U?$_Tree_simple_types@U?$pair@$$CBVStringRef@Catch@@UTagInfo@2@@std@@@std@@@std@@@std@@QEAA@PEAU?$_Tree_node@U?$pair@$$CBVStringRef@Catch@@UTagInfo@2@@std@@PEAX@1@PEBV?$_Tree_val@U?$_Tree_simple_types@U?$pair@$$CBVStringRef@Catch@@UTagInfo@2@@std@@@std@@@1@@Z
	??0?$_Tree_unchecked_iterator@V?$_Tree_val@U?$_Tree_simple_types@U?$pair@$$CBVStringRef@Catch@@V?$vector@PEBU?$Node@UTestCaseStats@Catch@@USectionNode@CumulativeReporterBase@2@@CumulativeReporterBase@Catch@@V?$allocator@PEBU?$Node@UTestCaseStats@Catch@@USectionNode@CumulativeReporterBase@2@@CumulativeReporterBase@Catch@@@std@@@std@@@std@@@std@@@std@@@std@@QEAA@PEAU?$_Tree_node@U?$pair@$$CBVStringRef@Catch@@V?$vector@PEBU?$Node@UTestCaseStats@Catch@@USectionNode@CumulativeReporterBase@2@@CumulativeReporterBase@Catch@@V?$allocator@PEBU?$Node@UTestCaseStats@Catch@@USectionNode@CumulativeReporterBase@2@@CumulativeReporterBase@Catch@@@std@@@std@@@std@@PEAX@1@PEBV?$_Tree_val@U?$_Tree_simple_types@U?$pair@$$CBVStringRef@Catch@@V?$vector@PEBU?$Node@UTestCaseStats@Catch@@USectionNode@CumulativeReporterBase@2@@CumulativeReporterBase@Catch@@V?$allocator@PEBU?$Node@UTestCaseStats@Catch@@USectionNode@CumulativeReporterBase@2@@CumulativeReporterBase@Catch@@@std@@@std@@@std@@@std@@@1@@Z
	??0?$_Tree_val@U?$_Tree_simple_types@PEBUTestCaseInfo@Catch@@@std@@@std@@QEAA@XZ
	??0?$_Tree_val@U?$_Tree_simple_types@PEBVTestCaseHandle@Catch@@@std@@@std@@QEAA@XZ
	??0?$_Tree_val@U?$_Tree_simple_types@U?$pair@$$CBV?$basic_string@DU?$char_traits@D@std@@V?$allocator@D@2@@std@@UTagAlias@Catch@@@std@@@std@@@std@@QEAA@XZ
	??0?$_Tree_val@U?$_Tree_simple_types@U?$pair@$$CBV?$basic_string@DU?$char_traits@D@std@@V?$allocator@D@2@@std@@V12@@std@@@std@@@std@@QEAA@XZ
	??0?$_Tree_val@U?$_Tree_simple_types@U?$pair@$$CBV?$basic_string@DU?$char_traits@D@std@@V?$allocator@D@2@@std@@V?$unique_ptr@VIReporterFactory@Catch@@@Detail@Catch@@@std@@@std@@@std@@QEAA@XZ
	??0?$_Tree_val@U?$_Tree_simple_types@U?$pair@$$CBVStringRef@Catch@@UTagInfo@2@@std@@@std@@@std@@QEAA@XZ
	??0?$_Tree_val@U?$_Tree_simple_types@U?$pair@$$CBVStringRef@Catch@@V?$vector@PEBU?$Node@UTestCaseStats@Catch@@USectionNode@CumulativeReporterBase@2@@CumulativeReporterBase@Catch@@V?$allocator@PEBU?$Node@UTestCaseStats@Catch@@USectionNode@CumulativeReporterBase@2@@CumulativeReporterBase@Catch@@@std@@@std@@@std@@@std@@@std@@QEAA@XZ
	??0?$_Tree_val@U?$_Tree_simple_types@VStringRef@Catch@@@std@@@std@@QEAA@XZ
	??0?$_Uninitialized_backout@PEAPEAD@std@@QEAA@PEAPEAD@Z
	??0?$_Uninitialized_backout_al@V?$allocator@D@std@@@std@@QEAA@PEADAEAV?$allocator@D@1@@Z
	??0?$_Uninitialized_backout_al@V?$allocator@I@std@@@std@@QEAA@PEAIAEAV?$allocator@I@1@@Z
